
out.o:     file format elf64-x86-64


Disassembly of section .text:

0000000000000000 <term_handler>:
       0:	55                   	push   %rbp
       1:	48 89 e5             	mov    %rsp,%rbp
       4:	48 83 ec 30          	sub    $0x30,%rsp
       8:	89 7d ec             	mov    %edi,-0x14(%rbp)
       b:	c7 04 25 00 00 00 00 	movl   $0x1,0x0
      12:	01 00 00 00 
      16:	48 b8 00 00 00 00 00 	movabs $0x0,%rax
      1d:	00 00 00 
      20:	48 89 45 f0          	mov    %rax,-0x10(%rbp)
      24:	48 8b 45 f0          	mov    -0x10(%rbp),%rax
      28:	83 38 ff             	cmpl   $0xffffffff,(%rax)
      2b:	75 02                	jne    2f <term_handler+0x2f>
      2d:	eb 2b                	jmp    5a <term_handler+0x5a>
      2f:	48 8b 45 f0          	mov    -0x10(%rbp),%rax
      33:	8b 38                	mov    (%rax),%edi
      35:	be 02 00 00 00       	mov    $0x2,%esi
      3a:	e8 00 00 00 00       	callq  3f <term_handler+0x3f>
      3f:	48 8b 4d f0          	mov    -0x10(%rbp),%rcx
      43:	8b 39                	mov    (%rcx),%edi
      45:	89 45 e8             	mov    %eax,-0x18(%rbp)
      48:	e8 00 00 00 00       	callq  4d <term_handler+0x4d>
      4d:	48 8b 4d f0          	mov    -0x10(%rbp),%rcx
      51:	c7 01 ff ff ff ff    	movl   $0xffffffff,(%rcx)
      57:	89 45 e4             	mov    %eax,-0x1c(%rbp)
      5a:	48 b8 00 00 00 00 00 	movabs $0x0,%rax
      61:	00 00 00 
      64:	48 89 45 f8          	mov    %rax,-0x8(%rbp)
      68:	48 8b 45 f8          	mov    -0x8(%rbp),%rax
      6c:	83 38 ff             	cmpl   $0xffffffff,(%rax)
      6f:	75 02                	jne    73 <term_handler+0x73>
      71:	eb 2b                	jmp    9e <term_handler+0x9e>
      73:	48 8b 45 f8          	mov    -0x8(%rbp),%rax
      77:	8b 38                	mov    (%rax),%edi
      79:	be 02 00 00 00       	mov    $0x2,%esi
      7e:	e8 00 00 00 00       	callq  83 <term_handler+0x83>
      83:	48 8b 4d f8          	mov    -0x8(%rbp),%rcx
      87:	8b 39                	mov    (%rcx),%edi
      89:	89 45 e0             	mov    %eax,-0x20(%rbp)
      8c:	e8 00 00 00 00       	callq  91 <term_handler+0x91>
      91:	48 8b 4d f8          	mov    -0x8(%rbp),%rcx
      95:	c7 01 ff ff ff ff    	movl   $0xffffffff,(%rcx)
      9b:	89 45 dc             	mov    %eax,-0x24(%rbp)
      9e:	e8 00 00 00 00       	callq  a3 <term_handler+0xa3>
      a3:	48 83 c4 30          	add    $0x30,%rsp
      a7:	5d                   	pop    %rbp
      a8:	c3                   	retq   
      a9:	90                   	nop
      aa:	90                   	nop
      ab:	90                   	nop
      ac:	90                   	nop
      ad:	90                   	nop
      ae:	90                   	nop
      af:	90                   	nop

00000000000000b0 <idle>:
      b0:	55                   	push   %rbp
      b1:	48 89 e5             	mov    %rsp,%rbp
      b4:	48 81 ec b0 01 00 00 	sub    $0x1b0,%rsp
      bb:	48 89 bd a0 fe ff ff 	mov    %rdi,-0x160(%rbp)
      c2:	89 b5 9c fe ff ff    	mov    %esi,-0x164(%rbp)
      c8:	c7 85 94 fe ff ff 00 	movl   $0x0,-0x16c(%rbp)
      cf:	00 00 00 
      d2:	81 bd 9c fe ff ff 80 	cmpl   $0xffff9780,-0x164(%rbp)
      d9:	97 ff ff 
      dc:	75 0c                	jne    ea <idle+0x3a>
      de:	c7 85 94 fe ff ff 02 	movl   $0x2,-0x16c(%rbp)
      e5:	00 00 00 
      e8:	eb 29                	jmp    113 <idle+0x63>
      ea:	81 bd 9c fe ff ff 00 	cmpl   $0xffff9700,-0x164(%rbp)
      f1:	97 ff ff 
      f4:	75 0c                	jne    102 <idle+0x52>
      f6:	c7 85 94 fe ff ff 01 	movl   $0x1,-0x16c(%rbp)
      fd:	00 00 00 
     100:	eb 0f                	jmp    111 <idle+0x61>
     102:	c7 85 ac fe ff ff 00 	movl   $0x0,-0x154(%rbp)
     109:	00 00 00 
     10c:	e9 23 03 00 00       	jmpq   434 <idle+0x384>
     111:	eb 00                	jmp    113 <idle+0x63>
     113:	eb 00                	jmp    115 <idle+0x65>
     115:	83 bd 94 fe ff ff 00 	cmpl   $0x0,-0x16c(%rbp)
     11c:	0f 84 03 03 00 00    	je     425 <idle+0x375>
     122:	48 8b 85 a0 fe ff ff 	mov    -0x160(%rbp),%rax
     129:	8b 8d 94 fe ff ff    	mov    -0x16c(%rbp),%ecx
     12f:	48 89 45 f0          	mov    %rax,-0x10(%rbp)
     133:	89 4d ec             	mov    %ecx,-0x14(%rbp)
     136:	c7 45 e8 00 00 00 00 	movl   $0x0,-0x18(%rbp)
     13d:	48 8b 45 f0          	mov    -0x10(%rbp),%rax
     141:	8b 08                	mov    (%rax),%ecx
     143:	89 8d cc fe ff ff    	mov    %ecx,-0x134(%rbp)
     149:	83 bd cc fe ff ff 00 	cmpl   $0x0,-0x134(%rbp)
     150:	7d 0c                	jge    15e <idle+0xae>
     152:	c7 45 fc bb ff ff ff 	movl   $0xffffffbb,-0x4(%rbp)
     159:	e9 95 02 00 00       	jmpq   3f3 <idle+0x343>
     15e:	48 8d 85 50 ff ff ff 	lea    -0xb0(%rbp),%rax
     165:	48 89 85 c0 fe ff ff 	mov    %rax,-0x140(%rbp)
     16c:	c7 85 c8 fe ff ff 10 	movl   $0x10,-0x138(%rbp)
     173:	00 00 00 
     176:	83 bd c8 fe ff ff 00 	cmpl   $0x0,-0x138(%rbp)
     17d:	74 2d                	je     1ac <idle+0xfc>
     17f:	48 8b 85 c0 fe ff ff 	mov    -0x140(%rbp),%rax
     186:	48 89 c1             	mov    %rax,%rcx
     189:	48 83 c1 08          	add    $0x8,%rcx
     18d:	48 89 8d c0 fe ff ff 	mov    %rcx,-0x140(%rbp)
     194:	48 c7 00 00 00 00 00 	movq   $0x0,(%rax)
     19b:	8b 95 c8 fe ff ff    	mov    -0x138(%rbp),%edx
     1a1:	83 c2 ff             	add    $0xffffffff,%edx
     1a4:	89 95 c8 fe ff ff    	mov    %edx,-0x138(%rbp)
     1aa:	eb ca                	jmp    176 <idle+0xc6>
     1ac:	8b 45 ec             	mov    -0x14(%rbp),%eax
     1af:	83 e0 01             	and    $0x1,%eax
     1b2:	83 f8 00             	cmp    $0x0,%eax
     1b5:	74 4a                	je     201 <idle+0x151>
     1b7:	b8 01 00 00 00       	mov    $0x1,%eax
     1bc:	89 c1                	mov    %eax,%ecx
     1be:	8b 45 ec             	mov    -0x14(%rbp),%eax
     1c1:	83 e0 fe             	and    $0xfffffffe,%eax
     1c4:	89 45 ec             	mov    %eax,-0x14(%rbp)
     1c7:	48 63 95 cc fe ff ff 	movslq -0x134(%rbp),%rdx
     1ce:	48 83 e2 3f          	and    $0x3f,%rdx
     1d2:	48 89 8d 88 fe ff ff 	mov    %rcx,-0x178(%rbp)
     1d9:	48 89 d1             	mov    %rdx,%rcx
     1dc:	48 8b 95 88 fe ff ff 	mov    -0x178(%rbp),%rdx
     1e3:	48 d3 e2             	shl    %cl,%rdx
     1e6:	48 63 b5 cc fe ff ff 	movslq -0x134(%rbp),%rsi
     1ed:	48 c1 ee 06          	shr    $0x6,%rsi
     1f1:	48 0b 94 f5 50 ff ff 	or     -0xb0(%rbp,%rsi,8),%rdx
     1f8:	ff 
     1f9:	48 89 94 f5 50 ff ff 	mov    %rdx,-0xb0(%rbp,%rsi,8)
     200:	ff 
     201:	48 8d 85 d0 fe ff ff 	lea    -0x130(%rbp),%rax
     208:	48 89 85 b0 fe ff ff 	mov    %rax,-0x150(%rbp)
     20f:	c7 85 bc fe ff ff 10 	movl   $0x10,-0x144(%rbp)
     216:	00 00 00 
     219:	83 bd bc fe ff ff 00 	cmpl   $0x0,-0x144(%rbp)
     220:	74 2d                	je     24f <idle+0x19f>
     222:	48 8b 85 b0 fe ff ff 	mov    -0x150(%rbp),%rax
     229:	48 89 c1             	mov    %rax,%rcx
     22c:	48 83 c1 08          	add    $0x8,%rcx
     230:	48 89 8d b0 fe ff ff 	mov    %rcx,-0x150(%rbp)
     237:	48 c7 00 00 00 00 00 	movq   $0x0,(%rax)
     23e:	8b 95 bc fe ff ff    	mov    -0x144(%rbp),%edx
     244:	83 c2 ff             	add    $0xffffffff,%edx
     247:	89 95 bc fe ff ff    	mov    %edx,-0x144(%rbp)
     24d:	eb ca                	jmp    219 <idle+0x169>
     24f:	8b 45 ec             	mov    -0x14(%rbp),%eax
     252:	83 e0 02             	and    $0x2,%eax
     255:	83 f8 00             	cmp    $0x0,%eax
     258:	74 4a                	je     2a4 <idle+0x1f4>
     25a:	b8 01 00 00 00       	mov    $0x1,%eax
     25f:	89 c1                	mov    %eax,%ecx
     261:	8b 45 ec             	mov    -0x14(%rbp),%eax
     264:	83 e0 fd             	and    $0xfffffffd,%eax
     267:	89 45 ec             	mov    %eax,-0x14(%rbp)
     26a:	48 63 95 cc fe ff ff 	movslq -0x134(%rbp),%rdx
     271:	48 83 e2 3f          	and    $0x3f,%rdx
     275:	48 89 8d 80 fe ff ff 	mov    %rcx,-0x180(%rbp)
     27c:	48 89 d1             	mov    %rdx,%rcx
     27f:	48 8b 95 80 fe ff ff 	mov    -0x180(%rbp),%rdx
     286:	48 d3 e2             	shl    %cl,%rdx
     289:	48 63 b5 cc fe ff ff 	movslq -0x134(%rbp),%rsi
     290:	48 c1 ee 06          	shr    $0x6,%rsi
     294:	48 0b 94 f5 d0 fe ff 	or     -0x130(%rbp,%rsi,8),%rdx
     29b:	ff 
     29c:	48 89 94 f5 d0 fe ff 	mov    %rdx,-0x130(%rbp,%rsi,8)
     2a3:	ff 
     2a4:	83 7d ec 00          	cmpl   $0x0,-0x14(%rbp)
     2a8:	74 0c                	je     2b6 <idle+0x206>
     2aa:	c7 45 fc b7 ff ff ff 	movl   $0xffffffb7,-0x4(%rbp)
     2b1:	e9 3d 01 00 00       	jmpq   3f3 <idle+0x343>
     2b6:	8b 45 e8             	mov    -0x18(%rbp),%eax
     2b9:	31 d2                	xor    %edx,%edx
     2bb:	b9 e8 03 00 00       	mov    $0x3e8,%ecx
     2c0:	f7 f1                	div    %ecx
     2c2:	89 c0                	mov    %eax,%eax
     2c4:	89 c6                	mov    %eax,%esi
     2c6:	48 89 75 d0          	mov    %rsi,-0x30(%rbp)
     2ca:	8b 45 e8             	mov    -0x18(%rbp),%eax
     2cd:	31 ff                	xor    %edi,%edi
     2cf:	89 fa                	mov    %edi,%edx
     2d1:	f7 f1                	div    %ecx
     2d3:	69 ca e8 03 00 00    	imul   $0x3e8,%edx,%ecx
     2d9:	89 c9                	mov    %ecx,%ecx
     2db:	89 ce                	mov    %ecx,%esi
     2dd:	48 89 75 d8          	mov    %rsi,-0x28(%rbp)
     2e1:	8b 85 cc fe ff ff    	mov    -0x134(%rbp),%eax
     2e7:	83 c0 01             	add    $0x1,%eax
     2ea:	83 7d e8 ff          	cmpl   $0xffffffff,-0x18(%rbp)
     2ee:	89 85 7c fe ff ff    	mov    %eax,-0x184(%rbp)
     2f4:	75 0d                	jne    303 <idle+0x253>
     2f6:	31 c0                	xor    %eax,%eax
     2f8:	89 c1                	mov    %eax,%ecx
     2fa:	48 89 8d 70 fe ff ff 	mov    %rcx,-0x190(%rbp)
     301:	eb 0d                	jmp    310 <idle+0x260>
     303:	48 8d 45 d0          	lea    -0x30(%rbp),%rax
     307:	48 89 85 70 fe ff ff 	mov    %rax,-0x190(%rbp)
     30e:	eb 00                	jmp    310 <idle+0x260>
     310:	48 8b 85 70 fe ff ff 	mov    -0x190(%rbp),%rax
     317:	31 c9                	xor    %ecx,%ecx
     319:	8b bd 7c fe ff ff    	mov    -0x184(%rbp),%edi
     31f:	48 8d b5 50 ff ff ff 	lea    -0xb0(%rbp),%rsi
     326:	48 8d 95 d0 fe ff ff 	lea    -0x130(%rbp),%rdx
     32d:	49 89 c0             	mov    %rax,%r8
     330:	e8 00 00 00 00       	callq  335 <idle+0x285>
     335:	89 45 e4             	mov    %eax,-0x1c(%rbp)
     338:	83 7d e4 04          	cmpl   $0x4,-0x1c(%rbp)
     33c:	74 a3                	je     2e1 <idle+0x231>
     33e:	83 7d e4 00          	cmpl   $0x0,-0x1c(%rbp)
     342:	7d 0c                	jge    350 <idle+0x2a0>
     344:	c7 45 fc b9 ff ff ff 	movl   $0xffffffb9,-0x4(%rbp)
     34b:	e9 a3 00 00 00       	jmpq   3f3 <idle+0x343>
     350:	b8 01 00 00 00       	mov    $0x1,%eax
     355:	89 c1                	mov    %eax,%ecx
     357:	c7 45 e4 00 00 00 00 	movl   $0x0,-0x1c(%rbp)
     35e:	48 63 95 cc fe ff ff 	movslq -0x134(%rbp),%rdx
     365:	48 c1 ea 06          	shr    $0x6,%rdx
     369:	48 8b 94 d5 50 ff ff 	mov    -0xb0(%rbp,%rdx,8),%rdx
     370:	ff 
     371:	48 63 b5 cc fe ff ff 	movslq -0x134(%rbp),%rsi
     378:	48 83 e6 3f          	and    $0x3f,%rsi
     37c:	48 89 8d 68 fe ff ff 	mov    %rcx,-0x198(%rbp)
     383:	48 89 f1             	mov    %rsi,%rcx
     386:	48 8b b5 68 fe ff ff 	mov    -0x198(%rbp),%rsi
     38d:	48 d3 e6             	shl    %cl,%rsi
     390:	48 21 f2             	and    %rsi,%rdx
     393:	48 83 fa 00          	cmp    $0x0,%rdx
     397:	74 09                	je     3a2 <idle+0x2f2>
     399:	8b 45 e4             	mov    -0x1c(%rbp),%eax
     39c:	83 c8 01             	or     $0x1,%eax
     39f:	89 45 e4             	mov    %eax,-0x1c(%rbp)
     3a2:	b8 01 00 00 00       	mov    $0x1,%eax
     3a7:	89 c1                	mov    %eax,%ecx
     3a9:	48 63 95 cc fe ff ff 	movslq -0x134(%rbp),%rdx
     3b0:	48 c1 ea 06          	shr    $0x6,%rdx
     3b4:	48 8b 94 d5 d0 fe ff 	mov    -0x130(%rbp,%rdx,8),%rdx
     3bb:	ff 
     3bc:	48 63 b5 cc fe ff ff 	movslq -0x134(%rbp),%rsi
     3c3:	48 83 e6 3f          	and    $0x3f,%rsi
     3c7:	48 89 8d 60 fe ff ff 	mov    %rcx,-0x1a0(%rbp)
     3ce:	48 89 f1             	mov    %rsi,%rcx
     3d1:	48 8b b5 60 fe ff ff 	mov    -0x1a0(%rbp),%rsi
     3d8:	48 d3 e6             	shl    %cl,%rsi
     3db:	48 21 f2             	and    %rsi,%rdx
     3de:	48 83 fa 00          	cmp    $0x0,%rdx
     3e2:	74 09                	je     3ed <idle+0x33d>
     3e4:	8b 45 e4             	mov    -0x1c(%rbp),%eax
     3e7:	83 c8 02             	or     $0x2,%eax
     3ea:	89 45 e4             	mov    %eax,-0x1c(%rbp)
     3ed:	8b 45 e4             	mov    -0x1c(%rbp),%eax
     3f0:	89 45 fc             	mov    %eax,-0x4(%rbp)
     3f3:	8b 45 fc             	mov    -0x4(%rbp),%eax
     3f6:	89 85 98 fe ff ff    	mov    %eax,-0x168(%rbp)
     3fc:	83 bd 98 fe ff ff 00 	cmpl   $0x0,-0x168(%rbp)
     403:	7d 0e                	jge    413 <idle+0x363>
     405:	8b 85 98 fe ff ff    	mov    -0x168(%rbp),%eax
     40b:	89 85 ac fe ff ff    	mov    %eax,-0x154(%rbp)
     411:	eb 21                	jmp    434 <idle+0x384>
     413:	8b 85 98 fe ff ff    	mov    -0x168(%rbp),%eax
     419:	3b 85 94 fe ff ff    	cmp    -0x16c(%rbp),%eax
     41f:	75 02                	jne    423 <idle+0x373>
     421:	eb 07                	jmp    42a <idle+0x37a>
     423:	eb 00                	jmp    425 <idle+0x375>
     425:	e9 eb fc ff ff       	jmpq   115 <idle+0x65>
     42a:	c7 85 ac fe ff ff 00 	movl   $0x0,-0x154(%rbp)
     431:	00 00 00 
     434:	8b 85 ac fe ff ff    	mov    -0x154(%rbp),%eax
     43a:	89 85 5c fe ff ff    	mov    %eax,-0x1a4(%rbp)
     440:	e8 00 00 00 00       	callq  445 <idle+0x395>
     445:	8b 85 5c fe ff ff    	mov    -0x1a4(%rbp),%eax
     44b:	48 81 c4 b0 01 00 00 	add    $0x1b0,%rsp
     452:	5d                   	pop    %rbp
     453:	c3                   	retq   
     454:	90                   	nop
     455:	90                   	nop
     456:	90                   	nop
     457:	90                   	nop
     458:	90                   	nop
     459:	90                   	nop
     45a:	90                   	nop
     45b:	90                   	nop
     45c:	90                   	nop
     45d:	90                   	nop
     45e:	90                   	nop
     45f:	90                   	nop

0000000000000460 <main>:
     460:	55                   	push   %rbp
     461:	48 89 e5             	mov    %rsp,%rbp
     464:	41 56                	push   %r14
     466:	53                   	push   %rbx
     467:	48 81 ec 60 2e 00 00 	sub    $0x2e60,%rsp
     46e:	89 bd d4 d9 ff ff    	mov    %edi,-0x262c(%rbp)
     474:	48 89 b5 c8 d9 ff ff 	mov    %rsi,-0x2638(%rbp)
     47b:	e8 00 00 00 00       	callq  480 <main+0x20>
     480:	48 be 00 00 00 00 00 	movabs $0x0,%rsi
     487:	00 00 00 
     48a:	bf d0 00 00 00       	mov    $0xd0,%edi
     48f:	89 f8                	mov    %edi,%eax
     491:	48 89 f7             	mov    %rsi,%rdi
     494:	48 89 c6             	mov    %rax,%rsi
     497:	e8 00 00 00 00       	callq  49c <main+0x3c>
     49c:	48 89 85 c0 d9 ff ff 	mov    %rax,-0x2640(%rbp)
     4a3:	e8 00 00 00 00       	callq  4a8 <main+0x48>
     4a8:	b9 04 00 00 00       	mov    $0x4,%ecx
     4ad:	89 ce                	mov    %ecx,%esi
     4af:	48 bf 00 00 00 00 00 	movabs $0x0,%rdi
     4b6:	00 00 00 
     4b9:	e8 00 00 00 00       	callq  4be <main+0x5e>
     4be:	b9 0b 00 00 00       	mov    $0xb,%ecx
     4c3:	89 ce                	mov    %ecx,%esi
     4c5:	48 bf 00 00 00 00 00 	movabs $0x0,%rdi
     4cc:	00 00 00 
     4cf:	48 89 85 b8 d9 ff ff 	mov    %rax,-0x2648(%rbp)
     4d6:	e8 00 00 00 00       	callq  4db <main+0x7b>
     4db:	48 89 85 b0 d9 ff ff 	mov    %rax,-0x2650(%rbp)
     4e2:	e8 00 00 00 00       	callq  4e7 <main+0x87>
     4e7:	b9 1b 05 00 00       	mov    $0x51b,%ecx
     4ec:	89 ce                	mov    %ecx,%esi
     4ee:	48 bf 00 00 00 00 00 	movabs $0x0,%rdi
     4f5:	00 00 00 
     4f8:	e8 00 00 00 00       	callq  4fd <main+0x9d>
     4fd:	48 89 85 a8 d9 ff ff 	mov    %rax,-0x2658(%rbp)
     504:	e8 00 00 00 00       	callq  509 <main+0xa9>
     509:	b9 1b 05 00 00       	mov    $0x51b,%ecx
     50e:	89 ce                	mov    %ecx,%esi
     510:	48 bf 00 00 00 00 00 	movabs $0x0,%rdi
     517:	00 00 00 
     51a:	e8 00 00 00 00       	callq  51f <main+0xbf>
     51f:	48 89 85 a0 d9 ff ff 	mov    %rax,-0x2660(%rbp)
     526:	e8 00 00 00 00       	callq  52b <main+0xcb>
     52b:	b9 ab 06 00 00       	mov    $0x6ab,%ecx
     530:	89 ce                	mov    %ecx,%esi
     532:	48 bf 00 00 00 00 00 	movabs $0x0,%rdi
     539:	00 00 00 
     53c:	e8 00 00 00 00       	callq  541 <main+0xe1>
     541:	48 89 85 98 d9 ff ff 	mov    %rax,-0x2668(%rbp)
     548:	e8 00 00 00 00       	callq  54d <main+0xed>
     54d:	b9 ad 04 00 00       	mov    $0x4ad,%ecx
     552:	89 ce                	mov    %ecx,%esi
     554:	48 bf 00 00 00 00 00 	movabs $0x0,%rdi
     55b:	00 00 00 
     55e:	e8 00 00 00 00       	callq  563 <main+0x103>
     563:	b9 08 00 00 00       	mov    $0x8,%ecx
     568:	89 ce                	mov    %ecx,%esi
     56a:	48 bf 00 00 00 00 00 	movabs $0x0,%rdi
     571:	00 00 00 
     574:	48 89 85 90 d9 ff ff 	mov    %rax,-0x2670(%rbp)
     57b:	e8 00 00 00 00       	callq  580 <main+0x120>
     580:	48 89 85 88 d9 ff ff 	mov    %rax,-0x2678(%rbp)
     587:	e8 00 00 00 00       	callq  58c <main+0x12c>
     58c:	b9 01 00 00 00       	mov    $0x1,%ecx
     591:	89 ce                	mov    %ecx,%esi
     593:	48 bf 00 00 00 00 00 	movabs $0x0,%rdi
     59a:	00 00 00 
     59d:	e8 00 00 00 00       	callq  5a2 <main+0x142>
     5a2:	48 89 85 80 d9 ff ff 	mov    %rax,-0x2680(%rbp)
     5a9:	e8 00 00 00 00       	callq  5ae <main+0x14e>
     5ae:	b9 1e 00 00 00       	mov    $0x1e,%ecx
     5b3:	89 ce                	mov    %ecx,%esi
     5b5:	48 bf 00 00 00 00 00 	movabs $0x0,%rdi
     5bc:	00 00 00 
     5bf:	e8 00 00 00 00       	callq  5c4 <main+0x164>
     5c4:	48 89 85 78 d9 ff ff 	mov    %rax,-0x2688(%rbp)
     5cb:	e8 00 00 00 00       	callq  5d0 <main+0x170>
     5d0:	b9 1d 00 00 00       	mov    $0x1d,%ecx
     5d5:	89 ce                	mov    %ecx,%esi
     5d7:	48 bf 00 00 00 00 00 	movabs $0x0,%rdi
     5de:	00 00 00 
     5e1:	e8 00 00 00 00       	callq  5e6 <main+0x186>
     5e6:	48 89 85 70 d9 ff ff 	mov    %rax,-0x2690(%rbp)
     5ed:	e8 00 00 00 00       	callq  5f2 <main+0x192>
     5f2:	b9 1d 00 00 00       	mov    $0x1d,%ecx
     5f7:	89 ce                	mov    %ecx,%esi
     5f9:	48 bf 00 00 00 00 00 	movabs $0x0,%rdi
     600:	00 00 00 
     603:	e8 00 00 00 00       	callq  608 <main+0x1a8>
     608:	48 89 85 68 d9 ff ff 	mov    %rax,-0x2698(%rbp)
     60f:	e8 00 00 00 00       	callq  614 <main+0x1b4>
     614:	b9 20 00 00 00       	mov    $0x20,%ecx
     619:	89 ce                	mov    %ecx,%esi
     61b:	48 bf 00 00 00 00 00 	movabs $0x0,%rdi
     622:	00 00 00 
     625:	e8 00 00 00 00       	callq  62a <main+0x1ca>
     62a:	48 89 85 60 d9 ff ff 	mov    %rax,-0x26a0(%rbp)
     631:	e8 00 00 00 00       	callq  636 <main+0x1d6>
     636:	b9 20 00 00 00       	mov    $0x20,%ecx
     63b:	89 ce                	mov    %ecx,%esi
     63d:	48 bf 00 00 00 00 00 	movabs $0x0,%rdi
     644:	00 00 00 
     647:	e8 00 00 00 00       	callq  64c <main+0x1ec>
     64c:	b9 02 00 00 00       	mov    $0x2,%ecx
     651:	89 ce                	mov    %ecx,%esi
     653:	48 bf 00 00 00 00 00 	movabs $0x0,%rdi
     65a:	00 00 00 
     65d:	48 89 85 58 d9 ff ff 	mov    %rax,-0x26a8(%rbp)
     664:	e8 00 00 00 00       	callq  669 <main+0x209>
     669:	b9 0f 00 00 00       	mov    $0xf,%ecx
     66e:	89 ce                	mov    %ecx,%esi
     670:	48 bf 00 00 00 00 00 	movabs $0x0,%rdi
     677:	00 00 00 
     67a:	48 89 85 50 d9 ff ff 	mov    %rax,-0x26b0(%rbp)
     681:	e8 00 00 00 00       	callq  686 <main+0x226>
     686:	b9 0e 00 00 00       	mov    $0xe,%ecx
     68b:	89 ce                	mov    %ecx,%esi
     68d:	48 bf 00 00 00 00 00 	movabs $0x0,%rdi
     694:	00 00 00 
     697:	48 89 85 48 d9 ff ff 	mov    %rax,-0x26b8(%rbp)
     69e:	e8 00 00 00 00       	callq  6a3 <main+0x243>
     6a3:	b9 01 00 00 00       	mov    $0x1,%ecx
     6a8:	89 ce                	mov    %ecx,%esi
     6aa:	48 bf 00 00 00 00 00 	movabs $0x0,%rdi
     6b1:	00 00 00 
     6b4:	48 89 85 40 d9 ff ff 	mov    %rax,-0x26c0(%rbp)
     6bb:	e8 00 00 00 00       	callq  6c0 <main+0x260>
     6c0:	31 c9                	xor    %ecx,%ecx
     6c2:	89 ce                	mov    %ecx,%esi
     6c4:	31 c9                	xor    %ecx,%ecx
     6c6:	ba 28 02 00 00       	mov    $0x228,%edx
     6cb:	89 d7                	mov    %edx,%edi
     6cd:	ba 58 01 00 00       	mov    $0x158,%edx
     6d2:	41 b8 a0 00 00 00    	mov    $0xa0,%r8d
     6d8:	45 89 c1             	mov    %r8d,%r9d
     6db:	41 b8 60 01 00 00    	mov    $0x160,%r8d
     6e1:	45 89 c2             	mov    %r8d,%r10d
     6e4:	41 b8 10 00 00 00    	mov    $0x10,%r8d
     6ea:	45 89 c3             	mov    %r8d,%r11d
     6ed:	48 bb 00 00 00 00 00 	movabs $0x0,%rbx
     6f4:	00 00 00 
     6f7:	c7 85 ac ef ff ff 00 	movl   $0x0,-0x1054(%rbp)
     6fe:	00 00 00 
     701:	44 8b 85 d4 d9 ff ff 	mov    -0x262c(%rbp),%r8d
     708:	44 89 85 a8 ef ff ff 	mov    %r8d,-0x1058(%rbp)
     70f:	4c 8b b5 c8 d9 ff ff 	mov    -0x2638(%rbp),%r14
     716:	4c 89 b5 a0 ef ff ff 	mov    %r14,-0x1060(%rbp)
     71d:	c7 85 9c ef ff ff 00 	movl   $0x0,-0x1064(%rbp)
     724:	00 00 00 
     727:	48 c7 85 58 ef ff ff 	movq   $0x0,-0x10a8(%rbp)
     72e:	00 00 00 00 
     732:	48 89 9d 50 ef ff ff 	mov    %rbx,-0x10b0(%rbp)
     739:	48 8d 9d 40 ef ff ff 	lea    -0x10c0(%rbp),%rbx
     740:	48 89 bd 38 d9 ff ff 	mov    %rdi,-0x26c8(%rbp)
     747:	48 89 df             	mov    %rbx,%rdi
     74a:	48 89 b5 30 d9 ff ff 	mov    %rsi,-0x26d0(%rbp)
     751:	89 ce                	mov    %ecx,%esi
     753:	48 89 95 28 d9 ff ff 	mov    %rdx,-0x26d8(%rbp)
     75a:	4c 89 da             	mov    %r11,%rdx
     75d:	48 89 85 20 d9 ff ff 	mov    %rax,-0x26e0(%rbp)
     764:	89 8d 1c d9 ff ff    	mov    %ecx,-0x26e4(%rbp)
     76a:	4c 89 95 10 d9 ff ff 	mov    %r10,-0x26f0(%rbp)
     771:	4c 89 8d 08 d9 ff ff 	mov    %r9,-0x26f8(%rbp)
     778:	e8 00 00 00 00       	callq  77d <main+0x31d>
     77d:	48 8b 04 25 00 00 00 	mov    0x0,%rax
     784:	00 
     785:	48 89 85 28 ef ff ff 	mov    %rax,-0x10d8(%rbp)
     78c:	48 8b 04 25 00 00 00 	mov    0x0,%rax
     793:	00 
     794:	48 89 85 30 ef ff ff 	mov    %rax,-0x10d0(%rbp)
     79b:	c7 85 5c e0 ff ff 00 	movl   $0x0,-0x1fa4(%rbp)
     7a2:	00 00 00 
     7a5:	c7 85 58 e0 ff ff 00 	movl   $0x0,-0x1fa8(%rbp)
     7ac:	00 00 00 
     7af:	48 b8 00 00 00 00 00 	movabs $0x0,%rax
     7b6:	00 00 00 
     7b9:	48 89 85 b0 ef ff ff 	mov    %rax,-0x1050(%rbp)
     7c0:	48 8b 85 b0 ef ff ff 	mov    -0x1050(%rbp),%rax
     7c7:	c7 00 ff ff ff ff    	movl   $0xffffffff,(%rax)
     7cd:	48 b8 00 00 00 00 00 	movabs $0x0,%rax
     7d4:	00 00 00 
     7d7:	48 89 85 e8 ef ff ff 	mov    %rax,-0x1018(%rbp)
     7de:	48 8b 85 e8 ef ff ff 	mov    -0x1018(%rbp),%rax
     7e5:	c7 00 ff ff ff ff    	movl   $0xffffffff,(%rax)
     7eb:	48 8d 85 a0 e8 ff ff 	lea    -0x1760(%rbp),%rax
     7f2:	48 89 85 f0 ef ff ff 	mov    %rax,-0x1010(%rbp)
     7f9:	48 8b 85 f0 ef ff ff 	mov    -0x1010(%rbp),%rax
     800:	48 89 c7             	mov    %rax,%rdi
     803:	8b b5 1c d9 ff ff    	mov    -0x26e4(%rbp),%esi
     809:	48 8b 95 10 d9 ff ff 	mov    -0x26f0(%rbp),%rdx
     810:	e8 00 00 00 00       	callq  815 <main+0x3b5>
     815:	48 8d 85 00 e8 ff ff 	lea    -0x1800(%rbp),%rax
     81c:	48 89 85 28 f0 ff ff 	mov    %rax,-0xfd8(%rbp)
     823:	48 8b 85 28 f0 ff ff 	mov    -0xfd8(%rbp),%rax
     82a:	48 89 c7             	mov    %rax,%rdi
     82d:	8b b5 1c d9 ff ff    	mov    -0x26e4(%rbp),%esi
     833:	48 8b 95 08 d9 ff ff 	mov    -0x26f8(%rbp),%rdx
     83a:	e8 00 00 00 00       	callq  83f <main+0x3df>
     83f:	48 8d 85 00 ea ff ff 	lea    -0x1600(%rbp),%rax
     846:	48 89 85 30 f0 ff ff 	mov    %rax,-0xfd0(%rbp)
     84d:	48 8b 85 30 f0 ff ff 	mov    -0xfd0(%rbp),%rax
     854:	48 89 c7             	mov    %rax,%rdi
     857:	8b b5 1c d9 ff ff    	mov    -0x26e4(%rbp),%esi
     85d:	48 8b 95 28 d9 ff ff 	mov    -0x26d8(%rbp),%rdx
     864:	e8 00 00 00 00       	callq  869 <main+0x409>
     869:	48 8d 85 a0 e5 ff ff 	lea    -0x1a60(%rbp),%rax
     870:	48 89 85 68 f0 ff ff 	mov    %rax,-0xf98(%rbp)
     877:	48 8b 85 68 f0 ff ff 	mov    -0xf98(%rbp),%rax
     87e:	48 89 c7             	mov    %rax,%rdi
     881:	8b b5 1c d9 ff ff    	mov    -0x26e4(%rbp),%esi
     887:	48 8b 95 38 d9 ff ff 	mov    -0x26c8(%rbp),%rdx
     88e:	e8 00 00 00 00       	callq  893 <main+0x433>
     893:	48 8d 85 50 e3 ff ff 	lea    -0x1cb0(%rbp),%rax
     89a:	48 89 85 70 f0 ff ff 	mov    %rax,-0xf90(%rbp)
     8a1:	48 8b 85 70 f0 ff ff 	mov    -0xf90(%rbp),%rax
     8a8:	48 89 c7             	mov    %rax,%rdi
     8ab:	8b b5 1c d9 ff ff    	mov    -0x26e4(%rbp),%esi
     8b1:	48 8b 95 38 d9 ff ff 	mov    -0x26c8(%rbp),%rdx
     8b8:	e8 00 00 00 00       	callq  8bd <main+0x45d>
     8bd:	48 8d 85 f0 e2 ff ff 	lea    -0x1d10(%rbp),%rax
     8c4:	48 89 85 d0 f1 ff ff 	mov    %rax,-0xe30(%rbp)
     8cb:	48 8b 85 d0 f1 ff ff 	mov    -0xe30(%rbp),%rax
     8d2:	48 89 c7             	mov    %rax,%rdi
     8d5:	48 8b b5 30 d9 ff ff 	mov    -0x26d0(%rbp),%rsi
     8dc:	e8 00 00 00 00       	callq  8e1 <main+0x481>
     8e1:	31 c9                	xor    %ecx,%ecx
     8e3:	89 ce                	mov    %ecx,%esi
     8e5:	48 8b 95 d0 f1 ff ff 	mov    -0xe30(%rbp),%rdx
     8ec:	48 83 c2 10          	add    $0x10,%rdx
     8f0:	48 89 d7             	mov    %rdx,%rdi
     8f3:	48 89 85 00 d9 ff ff 	mov    %rax,-0x2700(%rbp)
     8fa:	e8 00 00 00 00       	callq  8ff <main+0x49f>
     8ff:	31 c9                	xor    %ecx,%ecx
     901:	89 ce                	mov    %ecx,%esi
     903:	31 c9                	xor    %ecx,%ecx
     905:	41 b8 28 02 00 00    	mov    $0x228,%r8d
     90b:	44 89 c2             	mov    %r8d,%edx
     90e:	48 8d bd a0 e0 ff ff 	lea    -0x1f60(%rbp),%rdi
     915:	48 89 bd d8 f1 ff ff 	mov    %rdi,-0xe28(%rbp)
     91c:	48 8b bd d8 f1 ff ff 	mov    -0xe28(%rbp),%rdi
     923:	48 89 b5 f8 d8 ff ff 	mov    %rsi,-0x2708(%rbp)
     92a:	89 ce                	mov    %ecx,%esi
     92c:	48 89 85 f0 d8 ff ff 	mov    %rax,-0x2710(%rbp)
     933:	e8 00 00 00 00       	callq  938 <main+0x4d8>
     938:	48 8d 85 60 e0 ff ff 	lea    -0x1fa0(%rbp),%rax
     93f:	48 89 85 e0 f1 ff ff 	mov    %rax,-0xe20(%rbp)
     946:	48 8b 85 e0 f1 ff ff 	mov    -0xe20(%rbp),%rax
     94d:	48 89 c7             	mov    %rax,%rdi
     950:	48 8b b5 f8 d8 ff ff 	mov    -0x2708(%rbp),%rsi
     957:	e8 00 00 00 00       	callq  95c <main+0x4fc>
     95c:	31 c9                	xor    %ecx,%ecx
     95e:	89 ce                	mov    %ecx,%esi
     960:	48 8b 95 e0 f1 ff ff 	mov    -0xe20(%rbp),%rdx
     967:	48 83 c2 10          	add    $0x10,%rdx
     96b:	48 89 d7             	mov    %rdx,%rdi
     96e:	48 89 85 e8 d8 ff ff 	mov    %rax,-0x2718(%rbp)
     975:	e8 00 00 00 00       	callq  97a <main+0x51a>
     97a:	bf 0f 00 00 00       	mov    $0xf,%edi
     97f:	48 be 00 00 00 00 00 	movabs $0x0,%rsi
     986:	00 00 00 
     989:	48 89 85 e0 d8 ff ff 	mov    %rax,-0x2720(%rbp)
     990:	e8 00 00 00 00       	callq  995 <main+0x535>
     995:	bf 02 00 00 00       	mov    $0x2,%edi
     99a:	48 be 00 00 00 00 00 	movabs $0x0,%rsi
     9a1:	00 00 00 
     9a4:	48 89 85 d8 d8 ff ff 	mov    %rax,-0x2728(%rbp)
     9ab:	e8 00 00 00 00       	callq  9b0 <main+0x550>
     9b0:	83 bd a8 ef ff ff 00 	cmpl   $0x0,-0x1058(%rbp)
     9b7:	48 89 85 d0 d8 ff ff 	mov    %rax,-0x2730(%rbp)
     9be:	0f 85 f9 03 00 00    	jne    dbd <main+0x95d>
     9c4:	eb 00                	jmp    9c6 <main+0x566>
     9c6:	83 bd 9c ef ff ff 00 	cmpl   $0x0,-0x1064(%rbp)
     9cd:	75 0a                	jne    9d9 <main+0x579>
     9cf:	c7 85 9c ef ff ff 01 	movl   $0x1,-0x1064(%rbp)
     9d6:	00 00 00 
     9d9:	48 bf 00 00 00 00 00 	movabs $0x0,%rdi
     9e0:	00 00 00 
     9e3:	b0 00                	mov    $0x0,%al
     9e5:	e8 00 00 00 00       	callq  9ea <main+0x58a>
     9ea:	83 3c 25 00 00 00 00 	cmpl   $0x0,0x0
     9f1:	00 
     9f2:	89 85 cc d8 ff ff    	mov    %eax,-0x2734(%rbp)
     9f8:	0f 85 30 01 00 00    	jne    b2e <main+0x6ce>
     9fe:	48 b8 00 00 00 00 00 	movabs $0x0,%rax
     a05:	00 00 00 
     a08:	48 b9 00 00 00 00 00 	movabs $0x0,%rcx
     a0f:	00 00 00 
     a12:	48 89 8d f0 f1 ff ff 	mov    %rcx,-0xe10(%rbp)
     a19:	48 89 85 e8 f1 ff ff 	mov    %rax,-0xe18(%rbp)
     a20:	31 c0                	xor    %eax,%eax
     a22:	88 c1                	mov    %al,%cl
     a24:	48 8b 95 f0 f1 ff ff 	mov    -0xe10(%rbp),%rdx
     a2b:	83 3a 00             	cmpl   $0x0,(%rdx)
     a2e:	88 8d cb d8 ff ff    	mov    %cl,-0x2735(%rbp)
     a34:	74 21                	je     a57 <main+0x5f7>
     a36:	48 8b 85 e8 f1 ff ff 	mov    -0xe18(%rbp),%rax
     a3d:	48 b9 00 00 00 00 00 	movabs $0x0,%rcx
     a44:	00 00 00 
     a47:	48 83 c1 14          	add    $0x14,%rcx
     a4b:	48 39 c8             	cmp    %rcx,%rax
     a4e:	0f 92 c2             	setb   %dl
     a51:	88 95 cb d8 ff ff    	mov    %dl,-0x2735(%rbp)
     a57:	8a 85 cb d8 ff ff    	mov    -0x2735(%rbp),%al
     a5d:	a8 01                	test   $0x1,%al
     a5f:	75 05                	jne    a66 <main+0x606>
     a61:	e9 b0 00 00 00       	jmpq   b16 <main+0x6b6>
     a66:	48 b8 00 00 00 00 00 	movabs $0x0,%rax
     a6d:	00 00 00 
     a70:	48 8b 8d f0 f1 ff ff 	mov    -0xe10(%rbp),%rcx
     a77:	8b 11                	mov    (%rcx),%edx
     a79:	89 95 04 f2 ff ff    	mov    %edx,-0xdfc(%rbp)
     a7f:	48 89 85 f8 f1 ff ff 	mov    %rax,-0xe08(%rbp)
     a86:	48 8b 85 f8 f1 ff ff 	mov    -0xe08(%rbp),%rax
     a8d:	83 38 00             	cmpl   $0x0,(%rax)
     a90:	74 35                	je     ac7 <main+0x667>
     a92:	48 8b 85 f8 f1 ff ff 	mov    -0xe08(%rbp),%rax
     a99:	8b 08                	mov    (%rax),%ecx
     a9b:	3b 8d 04 f2 ff ff    	cmp    -0xdfc(%rbp),%ecx
     aa1:	75 10                	jne    ab3 <main+0x653>
     aa3:	48 8b 85 f8 f1 ff ff 	mov    -0xe08(%rbp),%rax
     aaa:	48 89 85 08 f2 ff ff 	mov    %rax,-0xdf8(%rbp)
     ab1:	eb 1f                	jmp    ad2 <main+0x672>
     ab3:	48 8b 85 f8 f1 ff ff 	mov    -0xe08(%rbp),%rax
     aba:	48 83 c0 30          	add    $0x30,%rax
     abe:	48 89 85 f8 f1 ff ff 	mov    %rax,-0xe08(%rbp)
     ac5:	eb bf                	jmp    a86 <main+0x626>
     ac7:	48 c7 85 08 f2 ff ff 	movq   $0x0,-0xdf8(%rbp)
     ace:	00 00 00 00 
     ad2:	48 8b 85 08 f2 ff ff 	mov    -0xdf8(%rbp),%rax
     ad9:	48 83 f8 00          	cmp    $0x0,%rax
     add:	74 20                	je     aff <main+0x69f>
     adf:	48 8b 85 f0 f1 ff ff 	mov    -0xe10(%rbp),%rax
     ae6:	8b 08                	mov    (%rax),%ecx
     ae8:	48 8b 85 e8 f1 ff ff 	mov    -0xe18(%rbp),%rax
     aef:	48 89 c2             	mov    %rax,%rdx
     af2:	48 83 c2 04          	add    $0x4,%rdx
     af6:	48 89 95 e8 f1 ff ff 	mov    %rdx,-0xe18(%rbp)
     afd:	89 08                	mov    %ecx,(%rax)
     aff:	48 8b 85 f0 f1 ff ff 	mov    -0xe10(%rbp),%rax
     b06:	48 83 c0 04          	add    $0x4,%rax
     b0a:	48 89 85 f0 f1 ff ff 	mov    %rax,-0xe10(%rbp)
     b11:	e9 0a ff ff ff       	jmpq   a20 <main+0x5c0>
     b16:	48 8b 85 e8 f1 ff ff 	mov    -0xe18(%rbp),%rax
     b1d:	c7 00 00 00 00 00    	movl   $0x0,(%rax)
     b23:	c7 04 25 00 00 00 00 	movl   $0x1,0x0
     b2a:	01 00 00 00 
     b2e:	48 b8 00 00 00 00 00 	movabs $0x0,%rax
     b35:	00 00 00 
     b38:	48 89 85 38 e0 ff ff 	mov    %rax,-0x1fc8(%rbp)
     b3f:	48 8b 85 38 e0 ff ff 	mov    -0x1fc8(%rbp),%rax
     b46:	83 38 00             	cmpl   $0x0,(%rax)
     b49:	0f 84 52 02 00 00    	je     da1 <main+0x941>
     b4f:	48 b8 00 00 00 00 00 	movabs $0x0,%rax
     b56:	00 00 00 
     b59:	48 8b 8d 38 e0 ff ff 	mov    -0x1fc8(%rbp),%rcx
     b60:	8b 11                	mov    (%rcx),%edx
     b62:	89 95 1c f2 ff ff    	mov    %edx,-0xde4(%rbp)
     b68:	8b 95 1c f2 ff ff    	mov    -0xde4(%rbp),%edx
     b6e:	89 95 34 f2 ff ff    	mov    %edx,-0xdcc(%rbp)
     b74:	48 89 85 28 f2 ff ff 	mov    %rax,-0xdd8(%rbp)
     b7b:	48 8b 85 28 f2 ff ff 	mov    -0xdd8(%rbp),%rax
     b82:	83 38 00             	cmpl   $0x0,(%rax)
     b85:	74 35                	je     bbc <main+0x75c>
     b87:	48 8b 85 28 f2 ff ff 	mov    -0xdd8(%rbp),%rax
     b8e:	8b 08                	mov    (%rax),%ecx
     b90:	3b 8d 34 f2 ff ff    	cmp    -0xdcc(%rbp),%ecx
     b96:	75 10                	jne    ba8 <main+0x748>
     b98:	48 8b 85 28 f2 ff ff 	mov    -0xdd8(%rbp),%rax
     b9f:	48 89 85 38 f2 ff ff 	mov    %rax,-0xdc8(%rbp)
     ba6:	eb 1f                	jmp    bc7 <main+0x767>
     ba8:	48 8b 85 28 f2 ff ff 	mov    -0xdd8(%rbp),%rax
     baf:	48 83 c0 30          	add    $0x30,%rax
     bb3:	48 89 85 28 f2 ff ff 	mov    %rax,-0xdd8(%rbp)
     bba:	eb bf                	jmp    b7b <main+0x71b>
     bbc:	48 c7 85 38 f2 ff ff 	movq   $0x0,-0xdc8(%rbp)
     bc3:	00 00 00 00 
     bc7:	48 8b 85 38 f2 ff ff 	mov    -0xdc8(%rbp),%rax
     bce:	48 89 85 10 f2 ff ff 	mov    %rax,-0xdf0(%rbp)
     bd5:	48 83 bd 10 f2 ff ff 	cmpq   $0x0,-0xdf0(%rbp)
     bdc:	00 
     bdd:	75 13                	jne    bf2 <main+0x792>
     bdf:	48 b8 00 00 00 00 00 	movabs $0x0,%rax
     be6:	00 00 00 
     be9:	48 89 85 20 f2 ff ff 	mov    %rax,-0xde0(%rbp)
     bf0:	eb 12                	jmp    c04 <main+0x7a4>
     bf2:	48 8b 85 10 f2 ff ff 	mov    -0xdf0(%rbp),%rax
     bf9:	48 8b 40 08          	mov    0x8(%rax),%rax
     bfd:	48 89 85 20 f2 ff ff 	mov    %rax,-0xde0(%rbp)
     c04:	48 bf 00 00 00 00 00 	movabs $0x0,%rdi
     c0b:	00 00 00 
     c0e:	48 8b 85 20 f2 ff ff 	mov    -0xde0(%rbp),%rax
     c15:	48 89 bd c0 d8 ff ff 	mov    %rdi,-0x2740(%rbp)
     c1c:	48 89 85 b8 d8 ff ff 	mov    %rax,-0x2748(%rbp)
     c23:	e8 00 00 00 00       	callq  c28 <main+0x7c8>
     c28:	48 8b bd b8 d8 ff ff 	mov    -0x2748(%rbp),%rdi
     c2f:	e8 00 00 00 00       	callq  c34 <main+0x7d4>
     c34:	48 8b bd c0 d8 ff ff 	mov    -0x2740(%rbp),%rdi
     c3b:	48 8b b5 b8 d8 ff ff 	mov    -0x2748(%rbp),%rsi
     c42:	b0 00                	mov    $0x0,%al
     c44:	e8 00 00 00 00       	callq  c49 <main+0x7e9>
     c49:	48 8b bd b8 d8 ff ff 	mov    -0x2748(%rbp),%rdi
     c50:	89 85 b4 d8 ff ff    	mov    %eax,-0x274c(%rbp)
     c56:	e8 00 00 00 00       	callq  c5b <main+0x7fb>
     c5b:	48 8b b5 38 e0 ff ff 	mov    -0x1fc8(%rbp),%rsi
     c62:	48 83 c6 04          	add    $0x4,%rsi
     c66:	48 89 b5 38 e0 ff ff 	mov    %rsi,-0x1fc8(%rbp)
     c6d:	48 8b b5 38 e0 ff ff 	mov    -0x1fc8(%rbp),%rsi
     c74:	83 3e 00             	cmpl   $0x0,(%rsi)
     c77:	75 05                	jne    c7e <main+0x81e>
     c79:	e9 23 01 00 00       	jmpq   da1 <main+0x941>
     c7e:	48 b8 00 00 00 00 00 	movabs $0x0,%rax
     c85:	00 00 00 
     c88:	48 8b 8d 38 e0 ff ff 	mov    -0x1fc8(%rbp),%rcx
     c8f:	8b 11                	mov    (%rcx),%edx
     c91:	89 95 4c f2 ff ff    	mov    %edx,-0xdb4(%rbp)
     c97:	8b 95 4c f2 ff ff    	mov    -0xdb4(%rbp),%edx
     c9d:	89 95 64 f2 ff ff    	mov    %edx,-0xd9c(%rbp)
     ca3:	48 89 85 58 f2 ff ff 	mov    %rax,-0xda8(%rbp)
     caa:	48 8b 85 58 f2 ff ff 	mov    -0xda8(%rbp),%rax
     cb1:	83 38 00             	cmpl   $0x0,(%rax)
     cb4:	74 35                	je     ceb <main+0x88b>
     cb6:	48 8b 85 58 f2 ff ff 	mov    -0xda8(%rbp),%rax
     cbd:	8b 08                	mov    (%rax),%ecx
     cbf:	3b 8d 64 f2 ff ff    	cmp    -0xd9c(%rbp),%ecx
     cc5:	75 10                	jne    cd7 <main+0x877>
     cc7:	48 8b 85 58 f2 ff ff 	mov    -0xda8(%rbp),%rax
     cce:	48 89 85 68 f2 ff ff 	mov    %rax,-0xd98(%rbp)
     cd5:	eb 1f                	jmp    cf6 <main+0x896>
     cd7:	48 8b 85 58 f2 ff ff 	mov    -0xda8(%rbp),%rax
     cde:	48 83 c0 30          	add    $0x30,%rax
     ce2:	48 89 85 58 f2 ff ff 	mov    %rax,-0xda8(%rbp)
     ce9:	eb bf                	jmp    caa <main+0x84a>
     ceb:	48 c7 85 68 f2 ff ff 	movq   $0x0,-0xd98(%rbp)
     cf2:	00 00 00 00 
     cf6:	48 8b 85 68 f2 ff ff 	mov    -0xd98(%rbp),%rax
     cfd:	48 89 85 40 f2 ff ff 	mov    %rax,-0xdc0(%rbp)
     d04:	48 83 bd 40 f2 ff ff 	cmpq   $0x0,-0xdc0(%rbp)
     d0b:	00 
     d0c:	75 13                	jne    d21 <main+0x8c1>
     d0e:	48 b8 00 00 00 00 00 	movabs $0x0,%rax
     d15:	00 00 00 
     d18:	48 89 85 50 f2 ff ff 	mov    %rax,-0xdb0(%rbp)
     d1f:	eb 12                	jmp    d33 <main+0x8d3>
     d21:	48 8b 85 40 f2 ff ff 	mov    -0xdc0(%rbp),%rax
     d28:	48 8b 40 08          	mov    0x8(%rax),%rax
     d2c:	48 89 85 50 f2 ff ff 	mov    %rax,-0xdb0(%rbp)
     d33:	48 bf 00 00 00 00 00 	movabs $0x0,%rdi
     d3a:	00 00 00 
     d3d:	48 8b 85 50 f2 ff ff 	mov    -0xdb0(%rbp),%rax
     d44:	48 89 bd a8 d8 ff ff 	mov    %rdi,-0x2758(%rbp)
     d4b:	48 89 85 a0 d8 ff ff 	mov    %rax,-0x2760(%rbp)
     d52:	e8 00 00 00 00       	callq  d57 <main+0x8f7>
     d57:	48 8b bd a0 d8 ff ff 	mov    -0x2760(%rbp),%rdi
     d5e:	e8 00 00 00 00       	callq  d63 <main+0x903>
     d63:	48 8b bd a8 d8 ff ff 	mov    -0x2758(%rbp),%rdi
     d6a:	48 8b b5 a0 d8 ff ff 	mov    -0x2760(%rbp),%rsi
     d71:	b0 00                	mov    $0x0,%al
     d73:	e8 00 00 00 00       	callq  d78 <main+0x918>
     d78:	48 8b bd a0 d8 ff ff 	mov    -0x2760(%rbp),%rdi
     d7f:	89 85 9c d8 ff ff    	mov    %eax,-0x2764(%rbp)
     d85:	e8 00 00 00 00       	callq  d8a <main+0x92a>
     d8a:	48 8b b5 38 e0 ff ff 	mov    -0x1fc8(%rbp),%rsi
     d91:	48 83 c6 04          	add    $0x4,%rsi
     d95:	48 89 b5 38 e0 ff ff 	mov    %rsi,-0x1fc8(%rbp)
     d9c:	e9 9e fd ff ff       	jmpq   b3f <main+0x6df>
     da1:	48 bf 00 00 00 00 00 	movabs $0x0,%rdi
     da8:	00 00 00 
     dab:	b0 00                	mov    $0x0,%al
     dad:	e8 00 00 00 00       	callq  db2 <main+0x952>
     db2:	89 85 98 d8 ff ff    	mov    %eax,-0x2768(%rbp)
     db8:	e9 a1 85 00 00       	jmpq   935e <main+0x8efe>
     dbd:	48 b8 00 00 00 00 00 	movabs $0x0,%rax
     dc4:	00 00 00 
     dc7:	48 b9 00 00 00 00 00 	movabs $0x0,%rcx
     dce:	00 00 00 
     dd1:	48 ba 00 00 00 00 00 	movabs $0x0,%rdx
     dd8:	00 00 00 
     ddb:	48 be 00 00 00 00 00 	movabs $0x0,%rsi
     de2:	00 00 00 
     de5:	48 bf 00 00 00 00 00 	movabs $0x0,%rdi
     dec:	00 00 00 
     def:	49 b8 00 00 00 00 00 	movabs $0x0,%r8
     df6:	00 00 00 
     df9:	66 c7 04 25 00 00 00 	movw   $0xc8,0x0
     e00:	00 c8 00 
     e03:	48 c7 04 25 00 00 00 	movq   $0x0,0x0
     e0a:	00 00 00 00 00 
     e0f:	4c 89 04 25 00 00 00 	mov    %r8,0x0
     e16:	00 
     e17:	c7 04 25 00 00 00 00 	movl   $0x0,0x0
     e1e:	00 00 00 00 
     e22:	c7 04 25 00 00 00 00 	movl   $0x0,0x0
     e29:	00 00 00 00 
     e2d:	c7 04 25 00 00 00 00 	movl   $0xffffffff,0x0
     e34:	ff ff ff ff 
     e38:	c7 04 25 00 00 00 00 	movl   $0x0,0x0
     e3f:	00 00 00 00 
     e43:	c7 04 25 00 00 00 00 	movl   $0x0,0x0
     e4a:	00 00 00 00 
     e4e:	48 89 0c 25 00 00 00 	mov    %rcx,0x0
     e55:	00 
     e56:	48 89 0c 25 00 00 00 	mov    %rcx,0x0
     e5d:	00 
     e5e:	48 89 3c 25 00 00 00 	mov    %rdi,0x0
     e65:	00 
     e66:	48 89 34 25 00 00 00 	mov    %rsi,0x0
     e6d:	00 
     e6e:	48 89 0c 25 00 00 00 	mov    %rcx,0x0
     e75:	00 
     e76:	48 89 0c 25 00 00 00 	mov    %rcx,0x0
     e7d:	00 
     e7e:	48 89 14 25 00 00 00 	mov    %rdx,0x0
     e85:	00 
     e86:	c7 04 25 00 00 00 00 	movl   $0xffffffff,0x0
     e8d:	ff ff ff ff 
     e91:	c7 04 25 00 00 00 00 	movl   $0xffffffff,0x0
     e98:	ff ff ff ff 
     e9c:	c7 04 25 00 00 00 00 	movl   $0x0,0x0
     ea3:	00 00 00 00 
     ea7:	48 89 0c 25 00 00 00 	mov    %rcx,0x0
     eae:	00 
     eaf:	48 89 04 25 00 00 00 	mov    %rax,0x0
     eb6:	00 
     eb7:	48 c7 04 25 00 00 00 	movq   $0x0,0x0
     ebe:	00 00 00 00 00 
     ec3:	48 c7 04 25 00 00 00 	movq   $0x0,0x0
     eca:	00 00 00 00 00 
     ecf:	c7 04 25 00 00 00 00 	movl   $0x0,0x0
     ed6:	00 00 00 00 
     eda:	48 c7 04 25 00 00 00 	movq   $0x0,0x0
     ee1:	00 00 00 00 00 
     ee6:	c7 04 25 00 00 00 00 	movl   $0x0,0x0
     eed:	00 00 00 00 
     ef1:	c7 04 25 00 00 00 00 	movl   $0xfffffffe,0x0
     ef8:	fe ff ff ff 
     efc:	c7 04 25 00 00 00 00 	movl   $0x0,0x0
     f03:	00 00 00 00 
     f07:	c7 04 25 00 00 00 00 	movl   $0xfffffffe,0x0
     f0e:	fe ff ff ff 
     f12:	48 c7 04 25 00 00 00 	movq   $0xffffffffffffffff,0x0
     f19:	00 ff ff ff ff 
     f1e:	c7 04 25 00 00 00 00 	movl   $0x1,0x0
     f25:	01 00 00 00 
     f29:	c7 04 25 00 00 00 00 	movl   $0xffffffff,0x0
     f30:	ff ff ff ff 
     f34:	c7 04 25 00 00 00 00 	movl   $0xffffffff,0x0
     f3b:	ff ff ff ff 
     f3f:	c7 04 25 00 00 00 00 	movl   $0xffffffff,0x0
     f46:	ff ff ff ff 
     f4a:	c7 04 25 00 00 00 00 	movl   $0xffffffff,0x0
     f51:	ff ff ff ff 
     f55:	c7 04 25 00 00 00 00 	movl   $0xffffffff,0x0
     f5c:	ff ff ff ff 
     f60:	c7 04 25 00 00 00 00 	movl   $0x1,0x0
     f67:	01 00 00 00 
     f6b:	c6 04 25 00 00 00 00 	movb   $0x0,0x0
     f72:	00 
     f73:	c7 04 25 00 00 00 00 	movl   $0xffffffff,0x0
     f7a:	ff ff ff ff 
     f7e:	c7 04 25 00 00 00 00 	movl   $0x1,0x0
     f85:	01 00 00 00 
     f89:	c7 04 25 00 00 00 00 	movl   $0x15180,0x0
     f90:	80 51 01 00 
     f94:	c7 04 25 00 00 00 00 	movl   $0xffffffff,0x0
     f9b:	ff ff ff ff 
     f9f:	c7 04 25 00 00 00 00 	movl   $0xffffffff,0x0
     fa6:	ff ff ff ff 
     faa:	48 c7 04 25 00 00 00 	movq   $0x0,0x0
     fb1:	00 00 00 00 00 
     fb6:	48 c7 04 25 00 00 00 	movq   $0x0,0x0
     fbd:	00 00 00 00 00 
     fc2:	48 c7 04 25 00 00 00 	movq   $0x0,0x0
     fc9:	00 00 00 00 00 
     fce:	48 c7 04 25 00 00 00 	movq   $0x0,0x0
     fd5:	00 00 00 00 00 
     fda:	c7 04 25 00 00 00 00 	movl   $0x0,0x0
     fe1:	00 00 00 00 
     fe5:	c7 04 25 00 00 00 00 	movl   $0x1,0x0
     fec:	01 00 00 00 
     ff0:	c7 04 25 00 00 00 00 	movl   $0xffffffff,0x0
     ff7:	ff ff ff ff 
     ffb:	c7 04 25 00 00 00 00 	movl   $0x0,0x0
    1002:	00 00 00 00 
    1006:	c7 04 25 00 00 00 00 	movl   $0x0,0x0
    100d:	00 00 00 00 
    1011:	c7 04 25 00 00 00 00 	movl   $0xffffffff,0x0
    1018:	ff ff ff ff 
    101c:	c7 04 25 00 00 00 00 	movl   $0x1,0x0
    1023:	01 00 00 00 
    1027:	c7 04 25 00 00 00 00 	movl   $0xffffffff,0x0
    102e:	ff ff ff ff 
    1032:	c7 04 25 00 00 00 00 	movl   $0xffffffff,0x0
    1039:	ff ff ff ff 
    103d:	c7 04 25 00 00 00 00 	movl   $0xffffffff,0x0
    1044:	ff ff ff ff 
    1048:	c7 85 54 e0 ff ff 01 	movl   $0x1,-0x1fac(%rbp)
    104f:	00 00 00 
    1052:	8b 85 54 e0 ff ff    	mov    -0x1fac(%rbp),%eax
    1058:	3b 85 a8 ef ff ff    	cmp    -0x1058(%rbp),%eax
    105e:	0f 8d 4c 14 00 00    	jge    24b0 <main+0x2050>
    1064:	48 8b 85 a0 ef ff ff 	mov    -0x1060(%rbp),%rax
    106b:	48 63 8d 54 e0 ff ff 	movslq -0x1fac(%rbp),%rcx
    1072:	48 8b 04 c8          	mov    (%rax,%rcx,8),%rax
    1076:	48 89 85 48 e0 ff ff 	mov    %rax,-0x1fb8(%rbp)
    107d:	48 8b bd 48 e0 ff ff 	mov    -0x1fb8(%rbp),%rdi
    1084:	be 3d 00 00 00       	mov    $0x3d,%esi
    1089:	e8 00 00 00 00       	callq  108e <main+0xc2e>
    108e:	48 89 85 40 e0 ff ff 	mov    %rax,-0x1fc0(%rbp)
    1095:	48 83 f8 00          	cmp    $0x0,%rax
    1099:	75 05                	jne    10a0 <main+0xc40>
    109b:	e9 26 f9 ff ff       	jmpq   9c6 <main+0x566>
    10a0:	48 be 00 00 00 00 00 	movabs $0x0,%rsi
    10a7:	00 00 00 
    10aa:	48 8b 85 40 e0 ff ff 	mov    -0x1fc0(%rbp),%rax
    10b1:	48 89 c1             	mov    %rax,%rcx
    10b4:	48 83 c1 01          	add    $0x1,%rcx
    10b8:	48 89 8d 40 e0 ff ff 	mov    %rcx,-0x1fc0(%rbp)
    10bf:	c6 00 00             	movb   $0x0,(%rax)
    10c2:	48 8b bd 48 e0 ff ff 	mov    -0x1fb8(%rbp),%rdi
    10c9:	e8 00 00 00 00       	callq  10ce <main+0xc6e>
    10ce:	83 f8 00             	cmp    $0x0,%eax
    10d1:	75 14                	jne    10e7 <main+0xc87>
    10d3:	48 8b 85 40 e0 ff ff 	mov    -0x1fc0(%rbp),%rax
    10da:	48 89 04 25 00 00 00 	mov    %rax,0x0
    10e1:	00 
    10e2:	e9 b3 13 00 00       	jmpq   249a <main+0x203a>
    10e7:	48 be 00 00 00 00 00 	movabs $0x0,%rsi
    10ee:	00 00 00 
    10f1:	48 8b bd 48 e0 ff ff 	mov    -0x1fb8(%rbp),%rdi
    10f8:	e8 00 00 00 00       	callq  10fd <main+0xc9d>
    10fd:	83 f8 00             	cmp    $0x0,%eax
    1100:	75 14                	jne    1116 <main+0xcb6>
    1102:	48 8b 85 40 e0 ff ff 	mov    -0x1fc0(%rbp),%rax
    1109:	48 89 04 25 00 00 00 	mov    %rax,0x0
    1110:	00 
    1111:	e9 82 13 00 00       	jmpq   2498 <main+0x2038>
    1116:	48 be 00 00 00 00 00 	movabs $0x0,%rsi
    111d:	00 00 00 
    1120:	48 8b bd 48 e0 ff ff 	mov    -0x1fb8(%rbp),%rdi
    1127:	e8 00 00 00 00       	callq  112c <main+0xccc>
    112c:	83 f8 00             	cmp    $0x0,%eax
    112f:	75 4a                	jne    117b <main+0xd1b>
    1131:	48 8b bd 40 e0 ff ff 	mov    -0x1fc0(%rbp),%rdi
    1138:	e8 00 00 00 00       	callq  113d <main+0xcdd>
    113d:	89 85 34 e0 ff ff    	mov    %eax,-0x1fcc(%rbp)
    1143:	83 bd 34 e0 ff ff 00 	cmpl   $0x0,-0x1fcc(%rbp)
    114a:	75 0d                	jne    1159 <main+0xcf9>
    114c:	c7 04 25 00 00 00 00 	movl   $0x0,0x0
    1153:	00 00 00 00 
    1157:	eb 1d                	jmp    1176 <main+0xd16>
    1159:	83 bd 34 e0 ff ff 01 	cmpl   $0x1,-0x1fcc(%rbp)
    1160:	75 0d                	jne    116f <main+0xd0f>
    1162:	c7 04 25 00 00 00 00 	movl   $0x1,0x0
    1169:	01 00 00 00 
    116d:	eb 05                	jmp    1174 <main+0xd14>
    116f:	e9 52 f8 ff ff       	jmpq   9c6 <main+0x566>
    1174:	eb 00                	jmp    1176 <main+0xd16>
    1176:	e9 1b 13 00 00       	jmpq   2496 <main+0x2036>
    117b:	48 be 00 00 00 00 00 	movabs $0x0,%rsi
    1182:	00 00 00 
    1185:	48 8b bd 48 e0 ff ff 	mov    -0x1fb8(%rbp),%rdi
    118c:	e8 00 00 00 00       	callq  1191 <main+0xd31>
    1191:	83 f8 00             	cmp    $0x0,%eax
    1194:	75 34                	jne    11ca <main+0xd6a>
    1196:	48 8b bd 40 e0 ff ff 	mov    -0x1fc0(%rbp),%rdi
    119d:	e8 00 00 00 00       	callq  11a2 <main+0xd42>
    11a2:	89 04 25 00 00 00 00 	mov    %eax,0x0
    11a9:	83 3c 25 00 00 00 00 	cmpl   $0x0,0x0
    11b0:	00 
    11b1:	7c 0d                	jl     11c0 <main+0xd60>
    11b3:	81 3c 25 00 00 00 00 	cmpl   $0xffff,0x0
    11ba:	ff ff 00 00 
    11be:	7e 05                	jle    11c5 <main+0xd65>
    11c0:	e9 01 f8 ff ff       	jmpq   9c6 <main+0x566>
    11c5:	e9 ca 12 00 00       	jmpq   2494 <main+0x2034>
    11ca:	48 be 00 00 00 00 00 	movabs $0x0,%rsi
    11d1:	00 00 00 
    11d4:	48 8b bd 48 e0 ff ff 	mov    -0x1fb8(%rbp),%rdi
    11db:	e8 00 00 00 00       	callq  11e0 <main+0xd80>
    11e0:	83 f8 00             	cmp    $0x0,%eax
    11e3:	75 31                	jne    1216 <main+0xdb6>
    11e5:	48 8b bd 40 e0 ff ff 	mov    -0x1fc0(%rbp),%rdi
    11ec:	e8 00 00 00 00       	callq  11f1 <main+0xd91>
    11f1:	89 04 25 00 00 00 00 	mov    %eax,0x0
    11f8:	83 3c 25 00 00 00 00 	cmpl   $0x0,0x0
    11ff:	00 
    1200:	7c 0a                	jl     120c <main+0xdac>
    1202:	83 3c 25 00 00 00 00 	cmpl   $0x2,0x0
    1209:	02 
    120a:	7e 05                	jle    1211 <main+0xdb1>
    120c:	e9 b5 f7 ff ff       	jmpq   9c6 <main+0x566>
    1211:	e9 7c 12 00 00       	jmpq   2492 <main+0x2032>
    1216:	48 be 00 00 00 00 00 	movabs $0x0,%rsi
    121d:	00 00 00 
    1220:	48 8b bd 48 e0 ff ff 	mov    -0x1fb8(%rbp),%rdi
    1227:	e8 00 00 00 00       	callq  122c <main+0xdcc>
    122c:	83 f8 00             	cmp    $0x0,%eax
    122f:	75 31                	jne    1262 <main+0xe02>
    1231:	48 8b bd 40 e0 ff ff 	mov    -0x1fc0(%rbp),%rdi
    1238:	e8 00 00 00 00       	callq  123d <main+0xddd>
    123d:	89 04 25 00 00 00 00 	mov    %eax,0x0
    1244:	83 3c 25 00 00 00 00 	cmpl   $0x0,0x0
    124b:	00 
    124c:	7c 0a                	jl     1258 <main+0xdf8>
    124e:	83 3c 25 00 00 00 00 	cmpl   $0x2,0x0
    1255:	02 
    1256:	7e 05                	jle    125d <main+0xdfd>
    1258:	e9 69 f7 ff ff       	jmpq   9c6 <main+0x566>
    125d:	e9 2e 12 00 00       	jmpq   2490 <main+0x2030>
    1262:	48 be 00 00 00 00 00 	movabs $0x0,%rsi
    1269:	00 00 00 
    126c:	48 8b bd 48 e0 ff ff 	mov    -0x1fb8(%rbp),%rdi
    1273:	e8 00 00 00 00       	callq  1278 <main+0xe18>
    1278:	83 f8 00             	cmp    $0x0,%eax
    127b:	75 18                	jne    1295 <main+0xe35>
    127d:	48 8b bd 40 e0 ff ff 	mov    -0x1fc0(%rbp),%rdi
    1284:	e8 00 00 00 00       	callq  1289 <main+0xe29>
    1289:	89 04 25 00 00 00 00 	mov    %eax,0x0
    1290:	e9 f9 11 00 00       	jmpq   248e <main+0x202e>
    1295:	48 be 00 00 00 00 00 	movabs $0x0,%rsi
    129c:	00 00 00 
    129f:	48 8b bd 48 e0 ff ff 	mov    -0x1fb8(%rbp),%rdi
    12a6:	e8 00 00 00 00       	callq  12ab <main+0xe4b>
    12ab:	83 f8 00             	cmp    $0x0,%eax
    12ae:	75 3d                	jne    12ed <main+0xe8d>
    12b0:	48 8b bd 40 e0 ff ff 	mov    -0x1fc0(%rbp),%rdi
    12b7:	e8 00 00 00 00       	callq  12bc <main+0xe5c>
    12bc:	66 89 c1             	mov    %ax,%cx
    12bf:	66 89 0c 25 00 00 00 	mov    %cx,0x0
    12c6:	00 
    12c7:	0f b7 04 25 00 00 00 	movzwl 0x0,%eax
    12ce:	00 
    12cf:	83 f8 01             	cmp    $0x1,%eax
    12d2:	7c 0f                	jl     12e3 <main+0xe83>
    12d4:	0f b7 04 25 00 00 00 	movzwl 0x0,%eax
    12db:	00 
    12dc:	3d 01 40 00 00       	cmp    $0x4001,%eax
    12e1:	7e 05                	jle    12e8 <main+0xe88>
    12e3:	e9 de f6 ff ff       	jmpq   9c6 <main+0x566>
    12e8:	e9 9f 11 00 00       	jmpq   248c <main+0x202c>
    12ed:	48 be 00 00 00 00 00 	movabs $0x0,%rsi
    12f4:	00 00 00 
    12f7:	48 8b bd 48 e0 ff ff 	mov    -0x1fb8(%rbp),%rdi
    12fe:	e8 00 00 00 00       	callq  1303 <main+0xea3>
    1303:	83 f8 00             	cmp    $0x0,%eax
    1306:	75 57                	jne    135f <main+0xeff>
    1308:	48 8b bd 40 e0 ff ff 	mov    -0x1fc0(%rbp),%rdi
    130f:	e8 00 00 00 00       	callq  1314 <main+0xeb4>
    1314:	89 04 25 00 00 00 00 	mov    %eax,0x0
    131b:	83 3c 25 00 00 00 00 	cmpl   $0x0,0x0
    1322:	00 
    1323:	7c 0d                	jl     1332 <main+0xed2>
    1325:	81 3c 25 00 00 00 00 	cmpl   $0x4000,0x0
    132c:	00 40 00 00 
    1330:	7e 05                	jle    1337 <main+0xed7>
    1332:	e9 8f f6 ff ff       	jmpq   9c6 <main+0x566>
    1337:	0f b7 04 25 00 00 00 	movzwl 0x0,%eax
    133e:	00 
    133f:	3b 04 25 00 00 00 00 	cmp    0x0,%eax
    1346:	7d 12                	jge    135a <main+0xefa>
    1348:	8b 04 25 00 00 00 00 	mov    0x0,%eax
    134f:	66 89 c1             	mov    %ax,%cx
    1352:	66 89 0c 25 00 00 00 	mov    %cx,0x0
    1359:	00 
    135a:	e9 2b 11 00 00       	jmpq   248a <main+0x202a>
    135f:	48 be 00 00 00 00 00 	movabs $0x0,%rsi
    1366:	00 00 00 
    1369:	48 8b bd 48 e0 ff ff 	mov    -0x1fb8(%rbp),%rdi
    1370:	e8 00 00 00 00       	callq  1375 <main+0xf15>
    1375:	83 f8 00             	cmp    $0x0,%eax
    1378:	75 14                	jne    138e <main+0xf2e>
    137a:	48 8b 85 40 e0 ff ff 	mov    -0x1fc0(%rbp),%rax
    1381:	48 89 04 25 00 00 00 	mov    %rax,0x0
    1388:	00 
    1389:	e9 fa 10 00 00       	jmpq   2488 <main+0x2028>
    138e:	48 be 00 00 00 00 00 	movabs $0x0,%rsi
    1395:	00 00 00 
    1398:	48 8b bd 48 e0 ff ff 	mov    -0x1fb8(%rbp),%rdi
    139f:	e8 00 00 00 00       	callq  13a4 <main+0xf44>
    13a4:	83 f8 00             	cmp    $0x0,%eax
    13a7:	75 14                	jne    13bd <main+0xf5d>
    13a9:	48 8b 85 40 e0 ff ff 	mov    -0x1fc0(%rbp),%rax
    13b0:	48 89 04 25 00 00 00 	mov    %rax,0x0
    13b7:	00 
    13b8:	e9 c9 10 00 00       	jmpq   2486 <main+0x2026>
    13bd:	48 be 00 00 00 00 00 	movabs $0x0,%rsi
    13c4:	00 00 00 
    13c7:	48 8b bd 48 e0 ff ff 	mov    -0x1fb8(%rbp),%rdi
    13ce:	e8 00 00 00 00       	callq  13d3 <main+0xf73>
    13d3:	83 f8 00             	cmp    $0x0,%eax
    13d6:	75 14                	jne    13ec <main+0xf8c>
    13d8:	48 8b 85 40 e0 ff ff 	mov    -0x1fc0(%rbp),%rax
    13df:	48 89 04 25 00 00 00 	mov    %rax,0x0
    13e6:	00 
    13e7:	e9 98 10 00 00       	jmpq   2484 <main+0x2024>
    13ec:	48 be 00 00 00 00 00 	movabs $0x0,%rsi
    13f3:	00 00 00 
    13f6:	48 8b bd 48 e0 ff ff 	mov    -0x1fb8(%rbp),%rdi
    13fd:	e8 00 00 00 00       	callq  1402 <main+0xfa2>
    1402:	83 f8 00             	cmp    $0x0,%eax
    1405:	75 14                	jne    141b <main+0xfbb>
    1407:	48 8b 85 40 e0 ff ff 	mov    -0x1fc0(%rbp),%rax
    140e:	48 89 04 25 00 00 00 	mov    %rax,0x0
    1415:	00 
    1416:	e9 67 10 00 00       	jmpq   2482 <main+0x2022>
    141b:	48 be 00 00 00 00 00 	movabs $0x0,%rsi
    1422:	00 00 00 
    1425:	48 8b bd 48 e0 ff ff 	mov    -0x1fb8(%rbp),%rdi
    142c:	e8 00 00 00 00       	callq  1431 <main+0xfd1>
    1431:	83 f8 00             	cmp    $0x0,%eax
    1434:	75 14                	jne    144a <main+0xfea>
    1436:	48 8b 85 40 e0 ff ff 	mov    -0x1fc0(%rbp),%rax
    143d:	48 89 04 25 00 00 00 	mov    %rax,0x0
    1444:	00 
    1445:	e9 36 10 00 00       	jmpq   2480 <main+0x2020>
    144a:	48 be 00 00 00 00 00 	movabs $0x0,%rsi
    1451:	00 00 00 
    1454:	48 8b bd 48 e0 ff ff 	mov    -0x1fb8(%rbp),%rdi
    145b:	e8 00 00 00 00       	callq  1460 <main+0x1000>
    1460:	83 f8 00             	cmp    $0x0,%eax
    1463:	75 14                	jne    1479 <main+0x1019>
    1465:	48 8b 85 40 e0 ff ff 	mov    -0x1fc0(%rbp),%rax
    146c:	48 89 04 25 00 00 00 	mov    %rax,0x0
    1473:	00 
    1474:	e9 05 10 00 00       	jmpq   247e <main+0x201e>
    1479:	48 be 00 00 00 00 00 	movabs $0x0,%rsi
    1480:	00 00 00 
    1483:	48 8b bd 48 e0 ff ff 	mov    -0x1fb8(%rbp),%rdi
    148a:	e8 00 00 00 00       	callq  148f <main+0x102f>
    148f:	83 f8 00             	cmp    $0x0,%eax
    1492:	75 14                	jne    14a8 <main+0x1048>
    1494:	48 8b 85 40 e0 ff ff 	mov    -0x1fc0(%rbp),%rax
    149b:	48 89 04 25 00 00 00 	mov    %rax,0x0
    14a2:	00 
    14a3:	e9 d4 0f 00 00       	jmpq   247c <main+0x201c>
    14a8:	48 be 00 00 00 00 00 	movabs $0x0,%rsi
    14af:	00 00 00 
    14b2:	48 8b bd 48 e0 ff ff 	mov    -0x1fb8(%rbp),%rdi
    14b9:	e8 00 00 00 00       	callq  14be <main+0x105e>
    14be:	83 f8 00             	cmp    $0x0,%eax
    14c1:	75 14                	jne    14d7 <main+0x1077>
    14c3:	48 8b 85 40 e0 ff ff 	mov    -0x1fc0(%rbp),%rax
    14ca:	48 89 04 25 00 00 00 	mov    %rax,0x0
    14d1:	00 
    14d2:	e9 a3 0f 00 00       	jmpq   247a <main+0x201a>
    14d7:	48 be 00 00 00 00 00 	movabs $0x0,%rsi
    14de:	00 00 00 
    14e1:	48 8b bd 48 e0 ff ff 	mov    -0x1fb8(%rbp),%rdi
    14e8:	e8 00 00 00 00       	callq  14ed <main+0x108d>
    14ed:	83 f8 00             	cmp    $0x0,%eax
    14f0:	75 14                	jne    1506 <main+0x10a6>
    14f2:	48 8b 85 40 e0 ff ff 	mov    -0x1fc0(%rbp),%rax
    14f9:	48 89 04 25 00 00 00 	mov    %rax,0x0
    1500:	00 
    1501:	e9 72 0f 00 00       	jmpq   2478 <main+0x2018>
    1506:	48 be 00 00 00 00 00 	movabs $0x0,%rsi
    150d:	00 00 00 
    1510:	48 8b bd 48 e0 ff ff 	mov    -0x1fb8(%rbp),%rdi
    1517:	e8 00 00 00 00       	callq  151c <main+0x10bc>
    151c:	83 f8 00             	cmp    $0x0,%eax
    151f:	75 14                	jne    1535 <main+0x10d5>
    1521:	48 8b 85 40 e0 ff ff 	mov    -0x1fc0(%rbp),%rax
    1528:	48 89 04 25 00 00 00 	mov    %rax,0x0
    152f:	00 
    1530:	e9 41 0f 00 00       	jmpq   2476 <main+0x2016>
    1535:	48 be 00 00 00 00 00 	movabs $0x0,%rsi
    153c:	00 00 00 
    153f:	48 8b bd 48 e0 ff ff 	mov    -0x1fb8(%rbp),%rdi
    1546:	e8 00 00 00 00       	callq  154b <main+0x10eb>
    154b:	83 f8 00             	cmp    $0x0,%eax
    154e:	75 14                	jne    1564 <main+0x1104>
    1550:	48 8b 85 40 e0 ff ff 	mov    -0x1fc0(%rbp),%rax
    1557:	48 89 04 25 00 00 00 	mov    %rax,0x0
    155e:	00 
    155f:	e9 10 0f 00 00       	jmpq   2474 <main+0x2014>
    1564:	48 be 00 00 00 00 00 	movabs $0x0,%rsi
    156b:	00 00 00 
    156e:	48 8b bd 48 e0 ff ff 	mov    -0x1fb8(%rbp),%rdi
    1575:	e8 00 00 00 00       	callq  157a <main+0x111a>
    157a:	83 f8 00             	cmp    $0x0,%eax
    157d:	0f 85 59 01 00 00    	jne    16dc <main+0x127c>
    1583:	31 c0                	xor    %eax,%eax
    1585:	89 c1                	mov    %eax,%ecx
    1587:	48 ba 00 00 00 00 00 	movabs $0x0,%rdx
    158e:	00 00 00 
    1591:	48 8b b5 40 e0 ff ff 	mov    -0x1fc0(%rbp),%rsi
    1598:	48 89 b5 78 f2 ff ff 	mov    %rsi,-0xd88(%rbp)
    159f:	48 8b b5 78 f2 ff ff 	mov    -0xd88(%rbp),%rsi
    15a6:	48 89 b5 90 f2 ff ff 	mov    %rsi,-0xd70(%rbp)
    15ad:	48 89 95 88 f2 ff ff 	mov    %rdx,-0xd78(%rbp)
    15b4:	48 3b 8d 90 f2 ff ff 	cmp    -0xd70(%rbp),%rcx
    15bb:	75 10                	jne    15cd <main+0x116d>
    15bd:	48 c7 85 98 f2 ff ff 	movq   $0x0,-0xd68(%rbp)
    15c4:	00 00 00 00 
    15c8:	e9 a6 00 00 00       	jmpq   1673 <main+0x1213>
    15cd:	eb 00                	jmp    15cf <main+0x116f>
    15cf:	48 8b 85 88 f2 ff ff 	mov    -0xd78(%rbp),%rax
    15d6:	83 38 00             	cmpl   $0x0,(%rax)
    15d9:	0f 84 89 00 00 00    	je     1668 <main+0x1208>
    15df:	48 8b 85 88 f2 ff ff 	mov    -0xd78(%rbp),%rax
    15e6:	48 8b 40 08          	mov    0x8(%rax),%rax
    15ea:	48 8b b5 90 f2 ff ff 	mov    -0xd70(%rbp),%rsi
    15f1:	48 89 85 90 d8 ff ff 	mov    %rax,-0x2770(%rbp)
    15f8:	48 89 b5 88 d8 ff ff 	mov    %rsi,-0x2778(%rbp)
    15ff:	e8 00 00 00 00       	callq  1604 <main+0x11a4>
    1604:	48 8b bd 90 d8 ff ff 	mov    -0x2770(%rbp),%rdi
    160b:	e8 00 00 00 00       	callq  1610 <main+0x11b0>
    1610:	48 8b bd 90 d8 ff ff 	mov    -0x2770(%rbp),%rdi
    1617:	48 8b b5 88 d8 ff ff 	mov    -0x2778(%rbp),%rsi
    161e:	e8 00 00 00 00       	callq  1623 <main+0x11c3>
    1623:	48 8b bd 90 d8 ff ff 	mov    -0x2770(%rbp),%rdi
    162a:	89 85 84 d8 ff ff    	mov    %eax,-0x277c(%rbp)
    1630:	e8 00 00 00 00       	callq  1635 <main+0x11d5>
    1635:	31 c0                	xor    %eax,%eax
    1637:	8b 8d 84 d8 ff ff    	mov    -0x277c(%rbp),%ecx
    163d:	39 c8                	cmp    %ecx,%eax
    163f:	75 10                	jne    1651 <main+0x11f1>
    1641:	48 8b 85 88 f2 ff ff 	mov    -0xd78(%rbp),%rax
    1648:	48 89 85 98 f2 ff ff 	mov    %rax,-0xd68(%rbp)
    164f:	eb 22                	jmp    1673 <main+0x1213>
    1651:	48 8b 85 88 f2 ff ff 	mov    -0xd78(%rbp),%rax
    1658:	48 83 c0 30          	add    $0x30,%rax
    165c:	48 89 85 88 f2 ff ff 	mov    %rax,-0xd78(%rbp)
    1663:	e9 67 ff ff ff       	jmpq   15cf <main+0x116f>
    1668:	48 c7 85 98 f2 ff ff 	movq   $0x0,-0xd68(%rbp)
    166f:	00 00 00 00 
    1673:	48 8b 85 98 f2 ff ff 	mov    -0xd68(%rbp),%rax
    167a:	48 89 85 70 f2 ff ff 	mov    %rax,-0xd90(%rbp)
    1681:	48 83 bd 70 f2 ff ff 	cmpq   $0x0,-0xd90(%rbp)
    1688:	00 
    1689:	75 0c                	jne    1697 <main+0x1237>
    168b:	c7 85 84 f2 ff ff 00 	movl   $0x0,-0xd7c(%rbp)
    1692:	00 00 00 
    1695:	eb 0f                	jmp    16a6 <main+0x1246>
    1697:	48 8b 85 70 f2 ff ff 	mov    -0xd90(%rbp),%rax
    169e:	8b 08                	mov    (%rax),%ecx
    16a0:	89 8d 84 f2 ff ff    	mov    %ecx,-0xd7c(%rbp)
    16a6:	8b 85 84 f2 ff ff    	mov    -0xd7c(%rbp),%eax
    16ac:	89 04 25 00 00 00 00 	mov    %eax,0x0
    16b3:	83 3c 25 00 00 00 00 	cmpl   $0x0,0x0
    16ba:	00 
    16bb:	75 0f                	jne    16cc <main+0x126c>
    16bd:	c7 85 9c ef ff ff 02 	movl   $0x2,-0x1064(%rbp)
    16c4:	00 00 00 
    16c7:	e9 fa f2 ff ff       	jmpq   9c6 <main+0x566>
    16cc:	c7 04 25 00 00 00 00 	movl   $0x0,0x0
    16d3:	00 00 00 00 
    16d7:	e9 96 0d 00 00       	jmpq   2472 <main+0x2012>
    16dc:	48 be 00 00 00 00 00 	movabs $0x0,%rsi
    16e3:	00 00 00 
    16e6:	48 8b bd 48 e0 ff ff 	mov    -0x1fb8(%rbp),%rdi
    16ed:	e8 00 00 00 00       	callq  16f2 <main+0x1292>
    16f2:	83 f8 00             	cmp    $0x0,%eax
    16f5:	75 14                	jne    170b <main+0x12ab>
    16f7:	48 8b 85 40 e0 ff ff 	mov    -0x1fc0(%rbp),%rax
    16fe:	48 89 04 25 00 00 00 	mov    %rax,0x0
    1705:	00 
    1706:	e9 65 0d 00 00       	jmpq   2470 <main+0x2010>
    170b:	48 be 00 00 00 00 00 	movabs $0x0,%rsi
    1712:	00 00 00 
    1715:	48 8b bd 48 e0 ff ff 	mov    -0x1fb8(%rbp),%rdi
    171c:	e8 00 00 00 00       	callq  1721 <main+0x12c1>
    1721:	83 f8 00             	cmp    $0x0,%eax
    1724:	75 14                	jne    173a <main+0x12da>
    1726:	48 8b 85 40 e0 ff ff 	mov    -0x1fc0(%rbp),%rax
    172d:	48 89 04 25 00 00 00 	mov    %rax,0x0
    1734:	00 
    1735:	e9 34 0d 00 00       	jmpq   246e <main+0x200e>
    173a:	48 be 00 00 00 00 00 	movabs $0x0,%rsi
    1741:	00 00 00 
    1744:	48 8b bd 48 e0 ff ff 	mov    -0x1fb8(%rbp),%rdi
    174b:	e8 00 00 00 00       	callq  1750 <main+0x12f0>
    1750:	83 f8 00             	cmp    $0x0,%eax
    1753:	75 25                	jne    177a <main+0x131a>
    1755:	48 8b bd 40 e0 ff ff 	mov    -0x1fc0(%rbp),%rdi
    175c:	e8 00 00 00 00       	callq  1761 <main+0x1301>
    1761:	31 c9                	xor    %ecx,%ecx
    1763:	83 f8 00             	cmp    $0x0,%eax
    1766:	b8 01 00 00 00       	mov    $0x1,%eax
    176b:	0f 45 c8             	cmovne %eax,%ecx
    176e:	89 0c 25 00 00 00 00 	mov    %ecx,0x0
    1775:	e9 f2 0c 00 00       	jmpq   246c <main+0x200c>
    177a:	48 be 00 00 00 00 00 	movabs $0x0,%rsi
    1781:	00 00 00 
    1784:	48 8b bd 48 e0 ff ff 	mov    -0x1fb8(%rbp),%rdi
    178b:	e8 00 00 00 00       	callq  1790 <main+0x1330>
    1790:	83 f8 00             	cmp    $0x0,%eax
    1793:	75 71                	jne    1806 <main+0x13a6>
    1795:	48 8b bd 40 e0 ff ff 	mov    -0x1fc0(%rbp),%rdi
    179c:	e8 00 00 00 00       	callq  17a1 <main+0x1341>
    17a1:	89 c1                	mov    %eax,%ecx
    17a3:	83 e8 ff             	sub    $0xffffffff,%eax
    17a6:	89 8d 80 d8 ff ff    	mov    %ecx,-0x2780(%rbp)
    17ac:	89 85 7c d8 ff ff    	mov    %eax,-0x2784(%rbp)
    17b2:	74 21                	je     17d5 <main+0x1375>
    17b4:	eb 00                	jmp    17b6 <main+0x1356>
    17b6:	8b 85 80 d8 ff ff    	mov    -0x2780(%rbp),%eax
    17bc:	85 c0                	test   %eax,%eax
    17be:	74 22                	je     17e2 <main+0x1382>
    17c0:	eb 00                	jmp    17c2 <main+0x1362>
    17c2:	8b 85 80 d8 ff ff    	mov    -0x2780(%rbp),%eax
    17c8:	83 e8 01             	sub    $0x1,%eax
    17cb:	89 85 78 d8 ff ff    	mov    %eax,-0x2788(%rbp)
    17d1:	74 1c                	je     17ef <main+0x138f>
    17d3:	eb 27                	jmp    17fc <main+0x139c>
    17d5:	c7 04 25 00 00 00 00 	movl   $0x2,0x0
    17dc:	02 00 00 00 
    17e0:	eb 1f                	jmp    1801 <main+0x13a1>
    17e2:	c7 04 25 00 00 00 00 	movl   $0x0,0x0
    17e9:	00 00 00 00 
    17ed:	eb 12                	jmp    1801 <main+0x13a1>
    17ef:	c7 04 25 00 00 00 00 	movl   $0x1,0x0
    17f6:	01 00 00 00 
    17fa:	eb 05                	jmp    1801 <main+0x13a1>
    17fc:	e9 c5 f1 ff ff       	jmpq   9c6 <main+0x566>
    1801:	e9 64 0c 00 00       	jmpq   246a <main+0x200a>
    1806:	48 be 00 00 00 00 00 	movabs $0x0,%rsi
    180d:	00 00 00 
    1810:	48 8b bd 48 e0 ff ff 	mov    -0x1fb8(%rbp),%rdi
    1817:	e8 00 00 00 00       	callq  181c <main+0x13bc>
    181c:	83 f8 00             	cmp    $0x0,%eax
    181f:	75 31                	jne    1852 <main+0x13f2>
    1821:	48 8b bd 40 e0 ff ff 	mov    -0x1fc0(%rbp),%rdi
    1828:	e8 00 00 00 00       	callq  182d <main+0x13cd>
    182d:	89 04 25 00 00 00 00 	mov    %eax,0x0
    1834:	83 3c 25 00 00 00 00 	cmpl   $0x0,0x0
    183b:	00 
    183c:	7c 0a                	jl     1848 <main+0x13e8>
    183e:	83 3c 25 00 00 00 00 	cmpl   $0x1,0x0
    1845:	01 
    1846:	7e 05                	jle    184d <main+0x13ed>
    1848:	e9 79 f1 ff ff       	jmpq   9c6 <main+0x566>
    184d:	e9 16 0c 00 00       	jmpq   2468 <main+0x2008>
    1852:	48 be 00 00 00 00 00 	movabs $0x0,%rsi
    1859:	00 00 00 
    185c:	48 8b bd 48 e0 ff ff 	mov    -0x1fb8(%rbp),%rdi
    1863:	e8 00 00 00 00       	callq  1868 <main+0x1408>
    1868:	83 f8 00             	cmp    $0x0,%eax
    186b:	75 18                	jne    1885 <main+0x1425>
    186d:	48 8b bd 40 e0 ff ff 	mov    -0x1fc0(%rbp),%rdi
    1874:	e8 00 00 00 00       	callq  1879 <main+0x1419>
    1879:	89 04 25 00 00 00 00 	mov    %eax,0x0
    1880:	e9 e1 0b 00 00       	jmpq   2466 <main+0x2006>
    1885:	48 be 00 00 00 00 00 	movabs $0x0,%rsi
    188c:	00 00 00 
    188f:	48 8b bd 48 e0 ff ff 	mov    -0x1fb8(%rbp),%rdi
    1896:	e8 00 00 00 00       	callq  189b <main+0x143b>
    189b:	83 f8 00             	cmp    $0x0,%eax
    189e:	75 4a                	jne    18ea <main+0x148a>
    18a0:	48 be 00 00 00 00 00 	movabs $0x0,%rsi
    18a7:	00 00 00 
    18aa:	48 8b bd 40 e0 ff ff 	mov    -0x1fc0(%rbp),%rdi
    18b1:	48 b8 00 00 00 00 00 	movabs $0x0,%rax
    18b8:	00 00 00 
    18bb:	48 05 b0 00 00 00    	add    $0xb0,%rax
    18c1:	48 89 c2             	mov    %rax,%rdx
    18c4:	b0 00                	mov    $0x0,%al
    18c6:	e8 00 00 00 00       	callq  18cb <main+0x146b>
    18cb:	83 f8 01             	cmp    $0x1,%eax
    18ce:	74 05                	je     18d5 <main+0x1475>
    18d0:	e9 f1 f0 ff ff       	jmpq   9c6 <main+0x566>
    18d5:	48 83 3c 25 00 00 00 	cmpq   $0x2,0x0
    18dc:	00 02 
    18de:	73 05                	jae    18e5 <main+0x1485>
    18e0:	e9 e1 f0 ff ff       	jmpq   9c6 <main+0x566>
    18e5:	e9 7a 0b 00 00       	jmpq   2464 <main+0x2004>
    18ea:	48 be 00 00 00 00 00 	movabs $0x0,%rsi
    18f1:	00 00 00 
    18f4:	48 8b bd 48 e0 ff ff 	mov    -0x1fb8(%rbp),%rdi
    18fb:	e8 00 00 00 00       	callq  1900 <main+0x14a0>
    1900:	83 f8 00             	cmp    $0x0,%eax
    1903:	75 27                	jne    192c <main+0x14cc>
    1905:	48 8b bd 40 e0 ff ff 	mov    -0x1fc0(%rbp),%rdi
    190c:	e8 00 00 00 00       	callq  1911 <main+0x14b1>
    1911:	89 04 25 00 00 00 00 	mov    %eax,0x0
    1918:	83 3c 25 00 00 00 00 	cmpl   $0x0,0x0
    191f:	00 
    1920:	7d 05                	jge    1927 <main+0x14c7>
    1922:	e9 9f f0 ff ff       	jmpq   9c6 <main+0x566>
    1927:	e9 36 0b 00 00       	jmpq   2462 <main+0x2002>
    192c:	48 be 00 00 00 00 00 	movabs $0x0,%rsi
    1933:	00 00 00 
    1936:	48 8b bd 48 e0 ff ff 	mov    -0x1fb8(%rbp),%rdi
    193d:	e8 00 00 00 00       	callq  1942 <main+0x14e2>
    1942:	83 f8 00             	cmp    $0x0,%eax
    1945:	0f 85 ec 00 00 00    	jne    1a37 <main+0x15d7>
    194b:	48 be 00 00 00 00 00 	movabs $0x0,%rsi
    1952:	00 00 00 
    1955:	48 8b bd 40 e0 ff ff 	mov    -0x1fc0(%rbp),%rdi
    195c:	e8 00 00 00 00       	callq  1961 <main+0x1501>
    1961:	83 f8 00             	cmp    $0x0,%eax
    1964:	75 10                	jne    1976 <main+0x1516>
    1966:	c7 04 25 00 00 00 00 	movl   $0x0,0x0
    196d:	00 00 00 00 
    1971:	e9 bc 00 00 00       	jmpq   1a32 <main+0x15d2>
    1976:	48 be 00 00 00 00 00 	movabs $0x0,%rsi
    197d:	00 00 00 
    1980:	48 8b bd 40 e0 ff ff 	mov    -0x1fc0(%rbp),%rdi
    1987:	e8 00 00 00 00       	callq  198c <main+0x152c>
    198c:	83 f8 00             	cmp    $0x0,%eax
    198f:	75 10                	jne    19a1 <main+0x1541>
    1991:	c7 04 25 00 00 00 00 	movl   $0x1,0x0
    1998:	01 00 00 00 
    199c:	e9 8f 00 00 00       	jmpq   1a30 <main+0x15d0>
    19a1:	48 be 00 00 00 00 00 	movabs $0x0,%rsi
    19a8:	00 00 00 
    19ab:	48 8b bd 40 e0 ff ff 	mov    -0x1fc0(%rbp),%rdi
    19b2:	e8 00 00 00 00       	callq  19b7 <main+0x1557>
    19b7:	83 f8 00             	cmp    $0x0,%eax
    19ba:	74 1b                	je     19d7 <main+0x1577>
    19bc:	48 be 00 00 00 00 00 	movabs $0x0,%rsi
    19c3:	00 00 00 
    19c6:	48 8b bd 40 e0 ff ff 	mov    -0x1fc0(%rbp),%rdi
    19cd:	e8 00 00 00 00       	callq  19d2 <main+0x1572>
    19d2:	83 f8 00             	cmp    $0x0,%eax
    19d5:	75 0d                	jne    19e4 <main+0x1584>
    19d7:	c7 04 25 00 00 00 00 	movl   $0x2,0x0
    19de:	02 00 00 00 
    19e2:	eb 4a                	jmp    1a2e <main+0x15ce>
    19e4:	48 be 00 00 00 00 00 	movabs $0x0,%rsi
    19eb:	00 00 00 
    19ee:	48 8b bd 40 e0 ff ff 	mov    -0x1fc0(%rbp),%rdi
    19f5:	e8 00 00 00 00       	callq  19fa <main+0x159a>
    19fa:	83 f8 00             	cmp    $0x0,%eax
    19fd:	74 1b                	je     1a1a <main+0x15ba>
    19ff:	48 be 00 00 00 00 00 	movabs $0x0,%rsi
    1a06:	00 00 00 
    1a09:	48 8b bd 40 e0 ff ff 	mov    -0x1fc0(%rbp),%rdi
    1a10:	e8 00 00 00 00       	callq  1a15 <main+0x15b5>
    1a15:	83 f8 00             	cmp    $0x0,%eax
    1a18:	75 0d                	jne    1a27 <main+0x15c7>
    1a1a:	c7 04 25 00 00 00 00 	movl   $0x3,0x0
    1a21:	03 00 00 00 
    1a25:	eb 05                	jmp    1a2c <main+0x15cc>
    1a27:	e9 9a ef ff ff       	jmpq   9c6 <main+0x566>
    1a2c:	eb 00                	jmp    1a2e <main+0x15ce>
    1a2e:	eb 00                	jmp    1a30 <main+0x15d0>
    1a30:	eb 00                	jmp    1a32 <main+0x15d2>
    1a32:	e9 29 0a 00 00       	jmpq   2460 <main+0x2000>
    1a37:	48 be 00 00 00 00 00 	movabs $0x0,%rsi
    1a3e:	00 00 00 
    1a41:	48 8b bd 48 e0 ff ff 	mov    -0x1fb8(%rbp),%rdi
    1a48:	e8 00 00 00 00       	callq  1a4d <main+0x15ed>
    1a4d:	83 f8 00             	cmp    $0x0,%eax
    1a50:	0f 85 ec 00 00 00    	jne    1b42 <main+0x16e2>
    1a56:	48 be 00 00 00 00 00 	movabs $0x0,%rsi
    1a5d:	00 00 00 
    1a60:	48 8b bd 40 e0 ff ff 	mov    -0x1fc0(%rbp),%rdi
    1a67:	e8 00 00 00 00       	callq  1a6c <main+0x160c>
    1a6c:	83 f8 00             	cmp    $0x0,%eax
    1a6f:	75 10                	jne    1a81 <main+0x1621>
    1a71:	c7 04 25 00 00 00 00 	movl   $0x0,0x0
    1a78:	00 00 00 00 
    1a7c:	e9 bc 00 00 00       	jmpq   1b3d <main+0x16dd>
    1a81:	48 be 00 00 00 00 00 	movabs $0x0,%rsi
    1a88:	00 00 00 
    1a8b:	48 8b bd 40 e0 ff ff 	mov    -0x1fc0(%rbp),%rdi
    1a92:	e8 00 00 00 00       	callq  1a97 <main+0x1637>
    1a97:	83 f8 00             	cmp    $0x0,%eax
    1a9a:	75 10                	jne    1aac <main+0x164c>
    1a9c:	c7 04 25 00 00 00 00 	movl   $0x1,0x0
    1aa3:	01 00 00 00 
    1aa7:	e9 8f 00 00 00       	jmpq   1b3b <main+0x16db>
    1aac:	48 be 00 00 00 00 00 	movabs $0x0,%rsi
    1ab3:	00 00 00 
    1ab6:	48 8b bd 40 e0 ff ff 	mov    -0x1fc0(%rbp),%rdi
    1abd:	e8 00 00 00 00       	callq  1ac2 <main+0x1662>
    1ac2:	83 f8 00             	cmp    $0x0,%eax
    1ac5:	74 1b                	je     1ae2 <main+0x1682>
    1ac7:	48 be 00 00 00 00 00 	movabs $0x0,%rsi
    1ace:	00 00 00 
    1ad1:	48 8b bd 40 e0 ff ff 	mov    -0x1fc0(%rbp),%rdi
    1ad8:	e8 00 00 00 00       	callq  1add <main+0x167d>
    1add:	83 f8 00             	cmp    $0x0,%eax
    1ae0:	75 0d                	jne    1aef <main+0x168f>
    1ae2:	c7 04 25 00 00 00 00 	movl   $0x2,0x0
    1ae9:	02 00 00 00 
    1aed:	eb 4a                	jmp    1b39 <main+0x16d9>
    1aef:	48 be 00 00 00 00 00 	movabs $0x0,%rsi
    1af6:	00 00 00 
    1af9:	48 8b bd 40 e0 ff ff 	mov    -0x1fc0(%rbp),%rdi
    1b00:	e8 00 00 00 00       	callq  1b05 <main+0x16a5>
    1b05:	83 f8 00             	cmp    $0x0,%eax
    1b08:	74 1b                	je     1b25 <main+0x16c5>
    1b0a:	48 be 00 00 00 00 00 	movabs $0x0,%rsi
    1b11:	00 00 00 
    1b14:	48 8b bd 40 e0 ff ff 	mov    -0x1fc0(%rbp),%rdi
    1b1b:	e8 00 00 00 00       	callq  1b20 <main+0x16c0>
    1b20:	83 f8 00             	cmp    $0x0,%eax
    1b23:	75 0d                	jne    1b32 <main+0x16d2>
    1b25:	c7 04 25 00 00 00 00 	movl   $0x3,0x0
    1b2c:	03 00 00 00 
    1b30:	eb 05                	jmp    1b37 <main+0x16d7>
    1b32:	e9 8f ee ff ff       	jmpq   9c6 <main+0x566>
    1b37:	eb 00                	jmp    1b39 <main+0x16d9>
    1b39:	eb 00                	jmp    1b3b <main+0x16db>
    1b3b:	eb 00                	jmp    1b3d <main+0x16dd>
    1b3d:	e9 1c 09 00 00       	jmpq   245e <main+0x1ffe>
    1b42:	48 be 00 00 00 00 00 	movabs $0x0,%rsi
    1b49:	00 00 00 
    1b4c:	48 8b bd 48 e0 ff ff 	mov    -0x1fb8(%rbp),%rdi
    1b53:	e8 00 00 00 00       	callq  1b58 <main+0x16f8>
    1b58:	83 f8 00             	cmp    $0x0,%eax
    1b5b:	75 51                	jne    1bae <main+0x174e>
    1b5d:	48 8b bd 40 e0 ff ff 	mov    -0x1fc0(%rbp),%rdi
    1b64:	e8 00 00 00 00       	callq  1b69 <main+0x1709>
    1b69:	89 c1                	mov    %eax,%ecx
    1b6b:	85 c0                	test   %eax,%eax
    1b6d:	89 8d 74 d8 ff ff    	mov    %ecx,-0x278c(%rbp)
    1b73:	74 15                	je     1b8a <main+0x172a>
    1b75:	eb 00                	jmp    1b77 <main+0x1717>
    1b77:	8b 85 74 d8 ff ff    	mov    -0x278c(%rbp),%eax
    1b7d:	83 e8 01             	sub    $0x1,%eax
    1b80:	89 85 70 d8 ff ff    	mov    %eax,-0x2790(%rbp)
    1b86:	74 0f                	je     1b97 <main+0x1737>
    1b88:	eb 1a                	jmp    1ba4 <main+0x1744>
    1b8a:	c7 04 25 00 00 00 00 	movl   $0x1,0x0
    1b91:	01 00 00 00 
    1b95:	eb 12                	jmp    1ba9 <main+0x1749>
    1b97:	c7 04 25 00 00 00 00 	movl   $0x0,0x0
    1b9e:	00 00 00 00 
    1ba2:	eb 05                	jmp    1ba9 <main+0x1749>
    1ba4:	e9 1d ee ff ff       	jmpq   9c6 <main+0x566>
    1ba9:	e9 ae 08 00 00       	jmpq   245c <main+0x1ffc>
    1bae:	48 be 00 00 00 00 00 	movabs $0x0,%rsi
    1bb5:	00 00 00 
    1bb8:	48 8b bd 48 e0 ff ff 	mov    -0x1fb8(%rbp),%rdi
    1bbf:	e8 00 00 00 00       	callq  1bc4 <main+0x1764>
    1bc4:	83 f8 00             	cmp    $0x0,%eax
    1bc7:	75 51                	jne    1c1a <main+0x17ba>
    1bc9:	48 8b bd 40 e0 ff ff 	mov    -0x1fc0(%rbp),%rdi
    1bd0:	e8 00 00 00 00       	callq  1bd5 <main+0x1775>
    1bd5:	89 c1                	mov    %eax,%ecx
    1bd7:	85 c0                	test   %eax,%eax
    1bd9:	89 8d 6c d8 ff ff    	mov    %ecx,-0x2794(%rbp)
    1bdf:	74 15                	je     1bf6 <main+0x1796>
    1be1:	eb 00                	jmp    1be3 <main+0x1783>
    1be3:	8b 85 6c d8 ff ff    	mov    -0x2794(%rbp),%eax
    1be9:	83 e8 01             	sub    $0x1,%eax
    1bec:	89 85 68 d8 ff ff    	mov    %eax,-0x2798(%rbp)
    1bf2:	74 0f                	je     1c03 <main+0x17a3>
    1bf4:	eb 1a                	jmp    1c10 <main+0x17b0>
    1bf6:	c7 04 25 00 00 00 00 	movl   $0x0,0x0
    1bfd:	00 00 00 00 
    1c01:	eb 12                	jmp    1c15 <main+0x17b5>
    1c03:	c7 04 25 00 00 00 00 	movl   $0x1,0x0
    1c0a:	01 00 00 00 
    1c0e:	eb 05                	jmp    1c15 <main+0x17b5>
    1c10:	e9 b1 ed ff ff       	jmpq   9c6 <main+0x566>
    1c15:	e9 40 08 00 00       	jmpq   245a <main+0x1ffa>
    1c1a:	48 be 00 00 00 00 00 	movabs $0x0,%rsi
    1c21:	00 00 00 
    1c24:	48 8b bd 48 e0 ff ff 	mov    -0x1fb8(%rbp),%rdi
    1c2b:	e8 00 00 00 00       	callq  1c30 <main+0x17d0>
    1c30:	83 f8 00             	cmp    $0x0,%eax
    1c33:	0f 85 68 01 00 00    	jne    1da1 <main+0x1941>
    1c39:	48 be 00 00 00 00 00 	movabs $0x0,%rsi
    1c40:	00 00 00 
    1c43:	48 8b bd 40 e0 ff ff 	mov    -0x1fc0(%rbp),%rdi
    1c4a:	e8 00 00 00 00       	callq  1c4f <main+0x17ef>
    1c4f:	83 f8 00             	cmp    $0x0,%eax
    1c52:	75 1b                	jne    1c6f <main+0x180f>
    1c54:	c7 04 25 00 00 00 00 	movl   $0x0,0x0
    1c5b:	00 00 00 00 
    1c5f:	c7 04 25 00 00 00 00 	movl   $0x0,0x0
    1c66:	00 00 00 00 
    1c6a:	e9 2d 01 00 00       	jmpq   1d9c <main+0x193c>
    1c6f:	48 be 00 00 00 00 00 	movabs $0x0,%rsi
    1c76:	00 00 00 
    1c79:	48 8b bd 40 e0 ff ff 	mov    -0x1fc0(%rbp),%rdi
    1c80:	e8 00 00 00 00       	callq  1c85 <main+0x1825>
    1c85:	83 f8 00             	cmp    $0x0,%eax
    1c88:	75 1b                	jne    1ca5 <main+0x1845>
    1c8a:	c7 04 25 00 00 00 00 	movl   $0x1,0x0
    1c91:	01 00 00 00 
    1c95:	c7 04 25 00 00 00 00 	movl   $0x1,0x0
    1c9c:	01 00 00 00 
    1ca0:	e9 f5 00 00 00       	jmpq   1d9a <main+0x193a>
    1ca5:	48 be 00 00 00 00 00 	movabs $0x0,%rsi
    1cac:	00 00 00 
    1caf:	48 8b bd 40 e0 ff ff 	mov    -0x1fc0(%rbp),%rdi
    1cb6:	e8 00 00 00 00       	callq  1cbb <main+0x185b>
    1cbb:	83 f8 00             	cmp    $0x0,%eax
    1cbe:	75 1b                	jne    1cdb <main+0x187b>
    1cc0:	c7 04 25 00 00 00 00 	movl   $0x2,0x0
    1cc7:	02 00 00 00 
    1ccb:	c7 04 25 00 00 00 00 	movl   $0x2,0x0
    1cd2:	02 00 00 00 
    1cd6:	e9 bd 00 00 00       	jmpq   1d98 <main+0x1938>
    1cdb:	48 be 00 00 00 00 00 	movabs $0x0,%rsi
    1ce2:	00 00 00 
    1ce5:	48 8b bd 40 e0 ff ff 	mov    -0x1fc0(%rbp),%rdi
    1cec:	e8 00 00 00 00       	callq  1cf1 <main+0x1891>
    1cf1:	83 f8 00             	cmp    $0x0,%eax
    1cf4:	75 1b                	jne    1d11 <main+0x18b1>
    1cf6:	c7 04 25 00 00 00 00 	movl   $0x3,0x0
    1cfd:	03 00 00 00 
    1d01:	c7 04 25 00 00 00 00 	movl   $0x3,0x0
    1d08:	03 00 00 00 
    1d0c:	e9 85 00 00 00       	jmpq   1d96 <main+0x1936>
    1d11:	48 be 00 00 00 00 00 	movabs $0x0,%rsi
    1d18:	00 00 00 
    1d1b:	48 8b bd 40 e0 ff ff 	mov    -0x1fc0(%rbp),%rdi
    1d22:	e8 00 00 00 00       	callq  1d27 <main+0x18c7>
    1d27:	83 f8 00             	cmp    $0x0,%eax
    1d2a:	75 23                	jne    1d4f <main+0x18ef>
    1d2c:	c7 04 25 00 00 00 00 	movl   $0x2,0x0
    1d33:	02 00 00 00 
    1d37:	c7 04 25 00 00 00 00 	movl   $0x2,0x0
    1d3e:	02 00 00 00 
    1d42:	c7 04 25 00 00 00 00 	movl   $0x1,0x0
    1d49:	01 00 00 00 
    1d4d:	eb 45                	jmp    1d94 <main+0x1934>
    1d4f:	48 be 00 00 00 00 00 	movabs $0x0,%rsi
    1d56:	00 00 00 
    1d59:	48 8b bd 40 e0 ff ff 	mov    -0x1fc0(%rbp),%rdi
    1d60:	e8 00 00 00 00       	callq  1d65 <main+0x1905>
    1d65:	83 f8 00             	cmp    $0x0,%eax
    1d68:	75 23                	jne    1d8d <main+0x192d>
    1d6a:	c7 04 25 00 00 00 00 	movl   $0x3,0x0
    1d71:	03 00 00 00 
    1d75:	c7 04 25 00 00 00 00 	movl   $0x3,0x0
    1d7c:	03 00 00 00 
    1d80:	c7 04 25 00 00 00 00 	movl   $0x1,0x0
    1d87:	01 00 00 00 
    1d8b:	eb 05                	jmp    1d92 <main+0x1932>
    1d8d:	e9 34 ec ff ff       	jmpq   9c6 <main+0x566>
    1d92:	eb 00                	jmp    1d94 <main+0x1934>
    1d94:	eb 00                	jmp    1d96 <main+0x1936>
    1d96:	eb 00                	jmp    1d98 <main+0x1938>
    1d98:	eb 00                	jmp    1d9a <main+0x193a>
    1d9a:	eb 00                	jmp    1d9c <main+0x193c>
    1d9c:	e9 b7 06 00 00       	jmpq   2458 <main+0x1ff8>
    1da1:	48 be 00 00 00 00 00 	movabs $0x0,%rsi
    1da8:	00 00 00 
    1dab:	48 8b bd 48 e0 ff ff 	mov    -0x1fb8(%rbp),%rdi
    1db2:	e8 00 00 00 00       	callq  1db7 <main+0x1957>
    1db7:	83 f8 00             	cmp    $0x0,%eax
    1dba:	0f 85 a9 00 00 00    	jne    1e69 <main+0x1a09>
    1dc0:	48 be 00 00 00 00 00 	movabs $0x0,%rsi
    1dc7:	00 00 00 
    1dca:	48 8b 85 40 e0 ff ff 	mov    -0x1fc0(%rbp),%rax
    1dd1:	48 89 85 a0 f2 ff ff 	mov    %rax,-0xd60(%rbp)
    1dd8:	48 8b bd a0 f2 ff ff 	mov    -0xd60(%rbp),%rdi
    1ddf:	e8 00 00 00 00       	callq  1de4 <main+0x1984>
    1de4:	83 f8 00             	cmp    $0x0,%eax
    1de7:	75 0c                	jne    1df5 <main+0x1995>
    1de9:	c7 85 ac f2 ff ff 00 	movl   $0x0,-0xd54(%rbp)
    1df0:	00 00 00 
    1df3:	eb 58                	jmp    1e4d <main+0x19ed>
    1df5:	48 be 00 00 00 00 00 	movabs $0x0,%rsi
    1dfc:	00 00 00 
    1dff:	48 8b bd a0 f2 ff ff 	mov    -0xd60(%rbp),%rdi
    1e06:	e8 00 00 00 00       	callq  1e0b <main+0x19ab>
    1e0b:	83 f8 00             	cmp    $0x0,%eax
    1e0e:	75 0c                	jne    1e1c <main+0x19bc>
    1e10:	c7 85 ac f2 ff ff 01 	movl   $0x1,-0xd54(%rbp)
    1e17:	00 00 00 
    1e1a:	eb 31                	jmp    1e4d <main+0x19ed>
    1e1c:	48 be 00 00 00 00 00 	movabs $0x0,%rsi
    1e23:	00 00 00 
    1e26:	48 8b bd a0 f2 ff ff 	mov    -0xd60(%rbp),%rdi
    1e2d:	e8 00 00 00 00       	callq  1e32 <main+0x19d2>
    1e32:	83 f8 00             	cmp    $0x0,%eax
    1e35:	75 0c                	jne    1e43 <main+0x19e3>
    1e37:	c7 85 ac f2 ff ff 02 	movl   $0x2,-0xd54(%rbp)
    1e3e:	00 00 00 
    1e41:	eb 0a                	jmp    1e4d <main+0x19ed>
    1e43:	c7 85 ac f2 ff ff ff 	movl   $0xffffffff,-0xd54(%rbp)
    1e4a:	ff ff ff 
    1e4d:	8b 85 ac f2 ff ff    	mov    -0xd54(%rbp),%eax
    1e53:	89 04 25 00 00 00 00 	mov    %eax,0x0
    1e5a:	83 f8 00             	cmp    $0x0,%eax
    1e5d:	7d 05                	jge    1e64 <main+0x1a04>
    1e5f:	e9 62 eb ff ff       	jmpq   9c6 <main+0x566>
    1e64:	e9 ed 05 00 00       	jmpq   2456 <main+0x1ff6>
    1e69:	48 be 00 00 00 00 00 	movabs $0x0,%rsi
    1e70:	00 00 00 
    1e73:	48 8b bd 48 e0 ff ff 	mov    -0x1fb8(%rbp),%rdi
    1e7a:	e8 00 00 00 00       	callq  1e7f <main+0x1a1f>
    1e7f:	83 f8 00             	cmp    $0x0,%eax
    1e82:	75 31                	jne    1eb5 <main+0x1a55>
    1e84:	48 8b bd 40 e0 ff ff 	mov    -0x1fc0(%rbp),%rdi
    1e8b:	e8 00 00 00 00       	callq  1e90 <main+0x1a30>
    1e90:	89 04 25 00 00 00 00 	mov    %eax,0x0
    1e97:	83 3c 25 00 00 00 00 	cmpl   $0x0,0x0
    1e9e:	00 
    1e9f:	7c 0a                	jl     1eab <main+0x1a4b>
    1ea1:	83 3c 25 00 00 00 00 	cmpl   $0x1,0x0
    1ea8:	01 
    1ea9:	7e 05                	jle    1eb0 <main+0x1a50>
    1eab:	e9 16 eb ff ff       	jmpq   9c6 <main+0x566>
    1eb0:	e9 9f 05 00 00       	jmpq   2454 <main+0x1ff4>
    1eb5:	48 be 00 00 00 00 00 	movabs $0x0,%rsi
    1ebc:	00 00 00 
    1ebf:	48 8b bd 48 e0 ff ff 	mov    -0x1fb8(%rbp),%rdi
    1ec6:	e8 00 00 00 00       	callq  1ecb <main+0x1a6b>
    1ecb:	83 f8 00             	cmp    $0x0,%eax
    1ece:	0f 85 a4 00 00 00    	jne    1f78 <main+0x1b18>
    1ed4:	48 be 00 00 00 00 00 	movabs $0x0,%rsi
    1edb:	00 00 00 
    1ede:	48 8b bd 40 e0 ff ff 	mov    -0x1fc0(%rbp),%rdi
    1ee5:	e8 00 00 00 00       	callq  1eea <main+0x1a8a>
    1eea:	83 f8 00             	cmp    $0x0,%eax
    1eed:	75 0a                	jne    1ef9 <main+0x1a99>
    1eef:	c6 04 25 00 00 00 00 	movb   $0x1,0x0
    1ef6:	01 
    1ef7:	eb 7a                	jmp    1f73 <main+0x1b13>
    1ef9:	48 be 00 00 00 00 00 	movabs $0x0,%rsi
    1f00:	00 00 00 
    1f03:	48 8b bd 40 e0 ff ff 	mov    -0x1fc0(%rbp),%rdi
    1f0a:	e8 00 00 00 00       	callq  1f0f <main+0x1aaf>
    1f0f:	83 f8 00             	cmp    $0x0,%eax
    1f12:	75 0a                	jne    1f1e <main+0x1abe>
    1f14:	c6 04 25 00 00 00 00 	movb   $0x2,0x0
    1f1b:	02 
    1f1c:	eb 53                	jmp    1f71 <main+0x1b11>
    1f1e:	48 be 00 00 00 00 00 	movabs $0x0,%rsi
    1f25:	00 00 00 
    1f28:	48 8b bd 40 e0 ff ff 	mov    -0x1fc0(%rbp),%rdi
    1f2f:	e8 00 00 00 00       	callq  1f34 <main+0x1ad4>
    1f34:	83 f8 00             	cmp    $0x0,%eax
    1f37:	75 0a                	jne    1f43 <main+0x1ae3>
    1f39:	c6 04 25 00 00 00 00 	movb   $0x3,0x0
    1f40:	03 
    1f41:	eb 2c                	jmp    1f6f <main+0x1b0f>
    1f43:	48 be 00 00 00 00 00 	movabs $0x0,%rsi
    1f4a:	00 00 00 
    1f4d:	48 8b bd 40 e0 ff ff 	mov    -0x1fc0(%rbp),%rdi
    1f54:	e8 00 00 00 00       	callq  1f59 <main+0x1af9>
    1f59:	83 f8 00             	cmp    $0x0,%eax
    1f5c:	75 0a                	jne    1f68 <main+0x1b08>
    1f5e:	c6 04 25 00 00 00 00 	movb   $0x4,0x0
    1f65:	04 
    1f66:	eb 05                	jmp    1f6d <main+0x1b0d>
    1f68:	e9 59 ea ff ff       	jmpq   9c6 <main+0x566>
    1f6d:	eb 00                	jmp    1f6f <main+0x1b0f>
    1f6f:	eb 00                	jmp    1f71 <main+0x1b11>
    1f71:	eb 00                	jmp    1f73 <main+0x1b13>
    1f73:	e9 da 04 00 00       	jmpq   2452 <main+0x1ff2>
    1f78:	48 be 00 00 00 00 00 	movabs $0x0,%rsi
    1f7f:	00 00 00 
    1f82:	48 8b bd 48 e0 ff ff 	mov    -0x1fb8(%rbp),%rdi
    1f89:	e8 00 00 00 00       	callq  1f8e <main+0x1b2e>
    1f8e:	83 f8 00             	cmp    $0x0,%eax
    1f91:	75 14                	jne    1fa7 <main+0x1b47>
    1f93:	48 8b 85 40 e0 ff ff 	mov    -0x1fc0(%rbp),%rax
    1f9a:	48 89 04 25 00 00 00 	mov    %rax,0x0
    1fa1:	00 
    1fa2:	e9 a9 04 00 00       	jmpq   2450 <main+0x1ff0>
    1fa7:	48 be 00 00 00 00 00 	movabs $0x0,%rsi
    1fae:	00 00 00 
    1fb1:	48 8b bd 48 e0 ff ff 	mov    -0x1fb8(%rbp),%rdi
    1fb8:	e8 00 00 00 00       	callq  1fbd <main+0x1b5d>
    1fbd:	83 f8 00             	cmp    $0x0,%eax
    1fc0:	75 51                	jne    2013 <main+0x1bb3>
    1fc2:	48 8b bd 40 e0 ff ff 	mov    -0x1fc0(%rbp),%rdi
    1fc9:	e8 00 00 00 00       	callq  1fce <main+0x1b6e>
    1fce:	89 c1                	mov    %eax,%ecx
    1fd0:	85 c0                	test   %eax,%eax
    1fd2:	89 8d 64 d8 ff ff    	mov    %ecx,-0x279c(%rbp)
    1fd8:	74 15                	je     1fef <main+0x1b8f>
    1fda:	eb 00                	jmp    1fdc <main+0x1b7c>
    1fdc:	8b 85 64 d8 ff ff    	mov    -0x279c(%rbp),%eax
    1fe2:	83 e8 01             	sub    $0x1,%eax
    1fe5:	89 85 60 d8 ff ff    	mov    %eax,-0x27a0(%rbp)
    1feb:	74 0f                	je     1ffc <main+0x1b9c>
    1fed:	eb 1a                	jmp    2009 <main+0x1ba9>
    1fef:	c7 04 25 00 00 00 00 	movl   $0x0,0x0
    1ff6:	00 00 00 00 
    1ffa:	eb 12                	jmp    200e <main+0x1bae>
    1ffc:	c7 04 25 00 00 00 00 	movl   $0x1,0x0
    2003:	01 00 00 00 
    2007:	eb 05                	jmp    200e <main+0x1bae>
    2009:	e9 b8 e9 ff ff       	jmpq   9c6 <main+0x566>
    200e:	e9 3b 04 00 00       	jmpq   244e <main+0x1fee>
    2013:	48 be 00 00 00 00 00 	movabs $0x0,%rsi
    201a:	00 00 00 
    201d:	48 8b bd 48 e0 ff ff 	mov    -0x1fb8(%rbp),%rdi
    2024:	e8 00 00 00 00       	callq  2029 <main+0x1bc9>
    2029:	83 f8 00             	cmp    $0x0,%eax
    202c:	75 51                	jne    207f <main+0x1c1f>
    202e:	48 8b bd 40 e0 ff ff 	mov    -0x1fc0(%rbp),%rdi
    2035:	e8 00 00 00 00       	callq  203a <main+0x1bda>
    203a:	89 c1                	mov    %eax,%ecx
    203c:	85 c0                	test   %eax,%eax
    203e:	89 8d 5c d8 ff ff    	mov    %ecx,-0x27a4(%rbp)
    2044:	74 15                	je     205b <main+0x1bfb>
    2046:	eb 00                	jmp    2048 <main+0x1be8>
    2048:	8b 85 5c d8 ff ff    	mov    -0x27a4(%rbp),%eax
    204e:	83 e8 01             	sub    $0x1,%eax
    2051:	89 85 58 d8 ff ff    	mov    %eax,-0x27a8(%rbp)
    2057:	74 0f                	je     2068 <main+0x1c08>
    2059:	eb 1a                	jmp    2075 <main+0x1c15>
    205b:	c7 04 25 00 00 00 00 	movl   $0x0,0x0
    2062:	00 00 00 00 
    2066:	eb 12                	jmp    207a <main+0x1c1a>
    2068:	c7 04 25 00 00 00 00 	movl   $0x1,0x0
    206f:	01 00 00 00 
    2073:	eb 05                	jmp    207a <main+0x1c1a>
    2075:	e9 4c e9 ff ff       	jmpq   9c6 <main+0x566>
    207a:	e9 cd 03 00 00       	jmpq   244c <main+0x1fec>
    207f:	48 be 00 00 00 00 00 	movabs $0x0,%rsi
    2086:	00 00 00 
    2089:	48 8b bd 48 e0 ff ff 	mov    -0x1fb8(%rbp),%rdi
    2090:	e8 00 00 00 00       	callq  2095 <main+0x1c35>
    2095:	83 f8 00             	cmp    $0x0,%eax
    2098:	75 51                	jne    20eb <main+0x1c8b>
    209a:	48 8b bd 40 e0 ff ff 	mov    -0x1fc0(%rbp),%rdi
    20a1:	e8 00 00 00 00       	callq  20a6 <main+0x1c46>
    20a6:	89 c1                	mov    %eax,%ecx
    20a8:	85 c0                	test   %eax,%eax
    20aa:	89 8d 54 d8 ff ff    	mov    %ecx,-0x27ac(%rbp)
    20b0:	74 15                	je     20c7 <main+0x1c67>
    20b2:	eb 00                	jmp    20b4 <main+0x1c54>
    20b4:	8b 85 54 d8 ff ff    	mov    -0x27ac(%rbp),%eax
    20ba:	83 e8 01             	sub    $0x1,%eax
    20bd:	89 85 50 d8 ff ff    	mov    %eax,-0x27b0(%rbp)
    20c3:	74 0f                	je     20d4 <main+0x1c74>
    20c5:	eb 1a                	jmp    20e1 <main+0x1c81>
    20c7:	c7 04 25 00 00 00 00 	movl   $0x0,0x0
    20ce:	00 00 00 00 
    20d2:	eb 12                	jmp    20e6 <main+0x1c86>
    20d4:	c7 04 25 00 00 00 00 	movl   $0x1,0x0
    20db:	01 00 00 00 
    20df:	eb 05                	jmp    20e6 <main+0x1c86>
    20e1:	e9 e0 e8 ff ff       	jmpq   9c6 <main+0x566>
    20e6:	e9 5f 03 00 00       	jmpq   244a <main+0x1fea>
    20eb:	48 be 00 00 00 00 00 	movabs $0x0,%rsi
    20f2:	00 00 00 
    20f5:	48 8b bd 48 e0 ff ff 	mov    -0x1fb8(%rbp),%rdi
    20fc:	e8 00 00 00 00       	callq  2101 <main+0x1ca1>
    2101:	83 f8 00             	cmp    $0x0,%eax
    2104:	75 31                	jne    2137 <main+0x1cd7>
    2106:	48 8b bd 40 e0 ff ff 	mov    -0x1fc0(%rbp),%rdi
    210d:	e8 00 00 00 00       	callq  2112 <main+0x1cb2>
    2112:	89 04 25 00 00 00 00 	mov    %eax,0x0
    2119:	83 3c 25 00 00 00 00 	cmpl   $0x0,0x0
    2120:	00 
    2121:	7c 0a                	jl     212d <main+0x1ccd>
    2123:	83 3c 25 00 00 00 00 	cmpl   $0x1,0x0
    212a:	01 
    212b:	7e 05                	jle    2132 <main+0x1cd2>
    212d:	e9 94 e8 ff ff       	jmpq   9c6 <main+0x566>
    2132:	e9 11 03 00 00       	jmpq   2448 <main+0x1fe8>
    2137:	48 be 00 00 00 00 00 	movabs $0x0,%rsi
    213e:	00 00 00 
    2141:	48 8b bd 48 e0 ff ff 	mov    -0x1fb8(%rbp),%rdi
    2148:	e8 00 00 00 00       	callq  214d <main+0x1ced>
    214d:	83 f8 00             	cmp    $0x0,%eax
    2150:	75 27                	jne    2179 <main+0x1d19>
    2152:	48 8b bd 40 e0 ff ff 	mov    -0x1fc0(%rbp),%rdi
    2159:	e8 00 00 00 00       	callq  215e <main+0x1cfe>
    215e:	89 04 25 00 00 00 00 	mov    %eax,0x0
    2165:	83 3c 25 00 00 00 00 	cmpl   $0x0,0x0
    216c:	00 
    216d:	7d 05                	jge    2174 <main+0x1d14>
    216f:	e9 52 e8 ff ff       	jmpq   9c6 <main+0x566>
    2174:	e9 cd 02 00 00       	jmpq   2446 <main+0x1fe6>
    2179:	48 be 00 00 00 00 00 	movabs $0x0,%rsi
    2180:	00 00 00 
    2183:	48 8b bd 48 e0 ff ff 	mov    -0x1fb8(%rbp),%rdi
    218a:	e8 00 00 00 00       	callq  218f <main+0x1d2f>
    218f:	83 f8 00             	cmp    $0x0,%eax
    2192:	75 27                	jne    21bb <main+0x1d5b>
    2194:	48 8b bd 40 e0 ff ff 	mov    -0x1fc0(%rbp),%rdi
    219b:	e8 00 00 00 00       	callq  21a0 <main+0x1d40>
    21a0:	89 04 25 00 00 00 00 	mov    %eax,0x0
    21a7:	83 3c 25 00 00 00 00 	cmpl   $0x0,0x0
    21ae:	00 
    21af:	7d 05                	jge    21b6 <main+0x1d56>
    21b1:	e9 10 e8 ff ff       	jmpq   9c6 <main+0x566>
    21b6:	e9 89 02 00 00       	jmpq   2444 <main+0x1fe4>
    21bb:	48 be 00 00 00 00 00 	movabs $0x0,%rsi
    21c2:	00 00 00 
    21c5:	48 8b bd 48 e0 ff ff 	mov    -0x1fb8(%rbp),%rdi
    21cc:	e8 00 00 00 00       	callq  21d1 <main+0x1d71>
    21d1:	83 f8 00             	cmp    $0x0,%eax
    21d4:	75 27                	jne    21fd <main+0x1d9d>
    21d6:	48 8b bd 40 e0 ff ff 	mov    -0x1fc0(%rbp),%rdi
    21dd:	e8 00 00 00 00       	callq  21e2 <main+0x1d82>
    21e2:	89 04 25 00 00 00 00 	mov    %eax,0x0
    21e9:	83 3c 25 00 00 00 00 	cmpl   $0x0,0x0
    21f0:	00 
    21f1:	7d 05                	jge    21f8 <main+0x1d98>
    21f3:	e9 ce e7 ff ff       	jmpq   9c6 <main+0x566>
    21f8:	e9 45 02 00 00       	jmpq   2442 <main+0x1fe2>
    21fd:	48 be 00 00 00 00 00 	movabs $0x0,%rsi
    2204:	00 00 00 
    2207:	48 8b bd 48 e0 ff ff 	mov    -0x1fb8(%rbp),%rdi
    220e:	e8 00 00 00 00       	callq  2213 <main+0x1db3>
    2213:	83 f8 00             	cmp    $0x0,%eax
    2216:	75 31                	jne    2249 <main+0x1de9>
    2218:	48 8b bd 40 e0 ff ff 	mov    -0x1fc0(%rbp),%rdi
    221f:	e8 00 00 00 00       	callq  2224 <main+0x1dc4>
    2224:	89 04 25 00 00 00 00 	mov    %eax,0x0
    222b:	83 3c 25 00 00 00 00 	cmpl   $0xffffffff,0x0
    2232:	ff 
    2233:	7c 0a                	jl     223f <main+0x1ddf>
    2235:	83 3c 25 00 00 00 00 	cmpl   $0x1,0x0
    223c:	01 
    223d:	7e 05                	jle    2244 <main+0x1de4>
    223f:	e9 82 e7 ff ff       	jmpq   9c6 <main+0x566>
    2244:	e9 f7 01 00 00       	jmpq   2440 <main+0x1fe0>
    2249:	48 be 00 00 00 00 00 	movabs $0x0,%rsi
    2250:	00 00 00 
    2253:	48 8b bd 48 e0 ff ff 	mov    -0x1fb8(%rbp),%rdi
    225a:	e8 00 00 00 00       	callq  225f <main+0x1dff>
    225f:	83 f8 00             	cmp    $0x0,%eax
    2262:	75 31                	jne    2295 <main+0x1e35>
    2264:	48 8b bd 40 e0 ff ff 	mov    -0x1fc0(%rbp),%rdi
    226b:	e8 00 00 00 00       	callq  2270 <main+0x1e10>
    2270:	89 04 25 00 00 00 00 	mov    %eax,0x0
    2277:	83 3c 25 00 00 00 00 	cmpl   $0x0,0x0
    227e:	00 
    227f:	7c 0a                	jl     228b <main+0x1e2b>
    2281:	83 3c 25 00 00 00 00 	cmpl   $0x1,0x0
    2288:	01 
    2289:	7e 05                	jle    2290 <main+0x1e30>
    228b:	e9 36 e7 ff ff       	jmpq   9c6 <main+0x566>
    2290:	e9 a9 01 00 00       	jmpq   243e <main+0x1fde>
    2295:	48 be 00 00 00 00 00 	movabs $0x0,%rsi
    229c:	00 00 00 
    229f:	48 8b bd 48 e0 ff ff 	mov    -0x1fb8(%rbp),%rdi
    22a6:	e8 00 00 00 00       	callq  22ab <main+0x1e4b>
    22ab:	83 f8 00             	cmp    $0x0,%eax
    22ae:	75 27                	jne    22d7 <main+0x1e77>
    22b0:	48 8b bd 40 e0 ff ff 	mov    -0x1fc0(%rbp),%rdi
    22b7:	e8 00 00 00 00       	callq  22bc <main+0x1e5c>
    22bc:	89 04 25 00 00 00 00 	mov    %eax,0x0
    22c3:	83 3c 25 00 00 00 00 	cmpl   $0x0,0x0
    22ca:	00 
    22cb:	7d 05                	jge    22d2 <main+0x1e72>
    22cd:	e9 f4 e6 ff ff       	jmpq   9c6 <main+0x566>
    22d2:	e9 65 01 00 00       	jmpq   243c <main+0x1fdc>
    22d7:	48 be 00 00 00 00 00 	movabs $0x0,%rsi
    22de:	00 00 00 
    22e1:	48 8b bd 48 e0 ff ff 	mov    -0x1fb8(%rbp),%rdi
    22e8:	e8 00 00 00 00       	callq  22ed <main+0x1e8d>
    22ed:	83 f8 00             	cmp    $0x0,%eax
    22f0:	0f 85 85 00 00 00    	jne    237b <main+0x1f1b>
    22f6:	48 8b bd 40 e0 ff ff 	mov    -0x1fc0(%rbp),%rdi
    22fd:	be 2d 00 00 00       	mov    $0x2d,%esi
    2302:	e8 00 00 00 00       	callq  2307 <main+0x1ea7>
    2307:	48 89 85 48 e0 ff ff 	mov    %rax,-0x1fb8(%rbp)
    230e:	48 83 f8 00          	cmp    $0x0,%rax
    2312:	75 05                	jne    2319 <main+0x1eb9>
    2314:	e9 ad e6 ff ff       	jmpq   9c6 <main+0x566>
    2319:	48 8b 85 48 e0 ff ff 	mov    -0x1fb8(%rbp),%rax
    2320:	48 89 c1             	mov    %rax,%rcx
    2323:	48 83 c1 01          	add    $0x1,%rcx
    2327:	48 89 8d 48 e0 ff ff 	mov    %rcx,-0x1fb8(%rbp)
    232e:	c6 00 00             	movb   $0x0,(%rax)
    2331:	48 8b bd 40 e0 ff ff 	mov    -0x1fc0(%rbp),%rdi
    2338:	e8 00 00 00 00       	callq  233d <main+0x1edd>
    233d:	89 04 25 00 00 00 00 	mov    %eax,0x0
    2344:	48 8b bd 48 e0 ff ff 	mov    -0x1fb8(%rbp),%rdi
    234b:	e8 00 00 00 00       	callq  2350 <main+0x1ef0>
    2350:	89 04 25 00 00 00 00 	mov    %eax,0x0
    2357:	83 3c 25 00 00 00 00 	cmpl   $0x0,0x0
    235e:	00 
    235f:	74 10                	je     2371 <main+0x1f11>
    2361:	8b 04 25 00 00 00 00 	mov    0x0,%eax
    2368:	3b 04 25 00 00 00 00 	cmp    0x0,%eax
    236f:	73 05                	jae    2376 <main+0x1f16>
    2371:	e9 50 e6 ff ff       	jmpq   9c6 <main+0x566>
    2376:	e9 bf 00 00 00       	jmpq   243a <main+0x1fda>
    237b:	48 be 00 00 00 00 00 	movabs $0x0,%rsi
    2382:	00 00 00 
    2385:	48 8b bd 48 e0 ff ff 	mov    -0x1fb8(%rbp),%rdi
    238c:	e8 00 00 00 00       	callq  2391 <main+0x1f31>
    2391:	83 f8 00             	cmp    $0x0,%eax
    2394:	75 24                	jne    23ba <main+0x1f5a>
    2396:	48 8b bd 40 e0 ff ff 	mov    -0x1fc0(%rbp),%rdi
    239d:	e8 00 00 00 00       	callq  23a2 <main+0x1f42>
    23a2:	89 04 25 00 00 00 00 	mov    %eax,0x0
    23a9:	83 3c 25 00 00 00 00 	cmpl   $0x0,0x0
    23b0:	00 
    23b1:	7d 05                	jge    23b8 <main+0x1f58>
    23b3:	e9 0e e6 ff ff       	jmpq   9c6 <main+0x566>
    23b8:	eb 7e                	jmp    2438 <main+0x1fd8>
    23ba:	48 be 00 00 00 00 00 	movabs $0x0,%rsi
    23c1:	00 00 00 
    23c4:	48 8b bd 48 e0 ff ff 	mov    -0x1fb8(%rbp),%rdi
    23cb:	e8 00 00 00 00       	callq  23d0 <main+0x1f70>
    23d0:	83 f8 00             	cmp    $0x0,%eax
    23d3:	75 2e                	jne    2403 <main+0x1fa3>
    23d5:	48 8b bd 40 e0 ff ff 	mov    -0x1fc0(%rbp),%rdi
    23dc:	e8 00 00 00 00       	callq  23e1 <main+0x1f81>
    23e1:	89 04 25 00 00 00 00 	mov    %eax,0x0
    23e8:	83 3c 25 00 00 00 00 	cmpl   $0x0,0x0
    23ef:	00 
    23f0:	74 0f                	je     2401 <main+0x1fa1>
    23f2:	83 3c 25 00 00 00 00 	cmpl   $0x1,0x0
    23f9:	01 
    23fa:	74 05                	je     2401 <main+0x1fa1>
    23fc:	e9 c5 e5 ff ff       	jmpq   9c6 <main+0x566>
    2401:	eb 33                	jmp    2436 <main+0x1fd6>
    2403:	48 be 00 00 00 00 00 	movabs $0x0,%rsi
    240a:	00 00 00 
    240d:	48 8b bd 48 e0 ff ff 	mov    -0x1fb8(%rbp),%rdi
    2414:	e8 00 00 00 00       	callq  2419 <main+0x1fb9>
    2419:	83 f8 00             	cmp    $0x0,%eax
    241c:	75 11                	jne    242f <main+0x1fcf>
    241e:	48 8b 85 40 e0 ff ff 	mov    -0x1fc0(%rbp),%rax
    2425:	48 89 04 25 00 00 00 	mov    %rax,0x0
    242c:	00 
    242d:	eb 05                	jmp    2434 <main+0x1fd4>
    242f:	e9 92 e5 ff ff       	jmpq   9c6 <main+0x566>
    2434:	eb 00                	jmp    2436 <main+0x1fd6>
    2436:	eb 00                	jmp    2438 <main+0x1fd8>
    2438:	eb 00                	jmp    243a <main+0x1fda>
    243a:	eb 00                	jmp    243c <main+0x1fdc>
    243c:	eb 00                	jmp    243e <main+0x1fde>
    243e:	eb 00                	jmp    2440 <main+0x1fe0>
    2440:	eb 00                	jmp    2442 <main+0x1fe2>
    2442:	eb 00                	jmp    2444 <main+0x1fe4>
    2444:	eb 00                	jmp    2446 <main+0x1fe6>
    2446:	eb 00                	jmp    2448 <main+0x1fe8>
    2448:	eb 00                	jmp    244a <main+0x1fea>
    244a:	eb 00                	jmp    244c <main+0x1fec>
    244c:	eb 00                	jmp    244e <main+0x1fee>
    244e:	eb 00                	jmp    2450 <main+0x1ff0>
    2450:	eb 00                	jmp    2452 <main+0x1ff2>
    2452:	eb 00                	jmp    2454 <main+0x1ff4>
    2454:	eb 00                	jmp    2456 <main+0x1ff6>
    2456:	eb 00                	jmp    2458 <main+0x1ff8>
    2458:	eb 00                	jmp    245a <main+0x1ffa>
    245a:	eb 00                	jmp    245c <main+0x1ffc>
    245c:	eb 00                	jmp    245e <main+0x1ffe>
    245e:	eb 00                	jmp    2460 <main+0x2000>
    2460:	eb 00                	jmp    2462 <main+0x2002>
    2462:	eb 00                	jmp    2464 <main+0x2004>
    2464:	eb 00                	jmp    2466 <main+0x2006>
    2466:	eb 00                	jmp    2468 <main+0x2008>
    2468:	eb 00                	jmp    246a <main+0x200a>
    246a:	eb 00                	jmp    246c <main+0x200c>
    246c:	eb 00                	jmp    246e <main+0x200e>
    246e:	eb 00                	jmp    2470 <main+0x2010>
    2470:	eb 00                	jmp    2472 <main+0x2012>
    2472:	eb 00                	jmp    2474 <main+0x2014>
    2474:	eb 00                	jmp    2476 <main+0x2016>
    2476:	eb 00                	jmp    2478 <main+0x2018>
    2478:	eb 00                	jmp    247a <main+0x201a>
    247a:	eb 00                	jmp    247c <main+0x201c>
    247c:	eb 00                	jmp    247e <main+0x201e>
    247e:	eb 00                	jmp    2480 <main+0x2020>
    2480:	eb 00                	jmp    2482 <main+0x2022>
    2482:	eb 00                	jmp    2484 <main+0x2024>
    2484:	eb 00                	jmp    2486 <main+0x2026>
    2486:	eb 00                	jmp    2488 <main+0x2028>
    2488:	eb 00                	jmp    248a <main+0x202a>
    248a:	eb 00                	jmp    248c <main+0x202c>
    248c:	eb 00                	jmp    248e <main+0x202e>
    248e:	eb 00                	jmp    2490 <main+0x2030>
    2490:	eb 00                	jmp    2492 <main+0x2032>
    2492:	eb 00                	jmp    2494 <main+0x2034>
    2494:	eb 00                	jmp    2496 <main+0x2036>
    2496:	eb 00                	jmp    2498 <main+0x2038>
    2498:	eb 00                	jmp    249a <main+0x203a>
    249a:	eb 00                	jmp    249c <main+0x203c>
    249c:	8b 85 54 e0 ff ff    	mov    -0x1fac(%rbp),%eax
    24a2:	83 c0 01             	add    $0x1,%eax
    24a5:	89 85 54 e0 ff ff    	mov    %eax,-0x1fac(%rbp)
    24ab:	e9 a2 eb ff ff       	jmpq   1052 <main+0xbf2>
    24b0:	83 3c 25 00 00 00 00 	cmpl   $0x1,0x0
    24b7:	01 
    24b8:	75 2c                	jne    24e6 <main+0x2086>
    24ba:	83 3c 25 00 00 00 00 	cmpl   $0x1,0x0
    24c1:	01 
    24c2:	74 22                	je     24e6 <main+0x2086>
    24c4:	48 bf 00 00 00 00 00 	movabs $0x0,%rdi
    24cb:	00 00 00 
    24ce:	b0 00                	mov    $0x0,%al
    24d0:	e8 00 00 00 00       	callq  24d5 <main+0x2075>
    24d5:	c7 04 25 00 00 00 00 	movl   $0x1,0x0
    24dc:	01 00 00 00 
    24e0:	89 85 4c d8 ff ff    	mov    %eax,-0x27b4(%rbp)
    24e6:	b8 01 00 00 00       	mov    $0x1,%eax
    24eb:	89 c7                	mov    %eax,%edi
    24ed:	0f b7 04 25 00 00 00 	movzwl 0x0,%eax
    24f4:	00 
    24f5:	83 c0 01             	add    $0x1,%eax
    24f8:	48 63 f0             	movslq %eax,%rsi
    24fb:	e8 00 00 00 00       	callq  2500 <main+0x20a0>
    2500:	48 89 85 58 ef ff ff 	mov    %rax,-0x10a8(%rbp)
    2507:	48 83 bd 58 ef ff ff 	cmpq   $0x0,-0x10a8(%rbp)
    250e:	00 
    250f:	75 2e                	jne    253f <main+0x20df>
    2511:	48 bf 00 00 00 00 00 	movabs $0x0,%rdi
    2518:	00 00 00 
    251b:	0f b7 34 25 00 00 00 	movzwl 0x0,%esi
    2522:	00 
    2523:	b0 00                	mov    $0x0,%al
    2525:	e8 00 00 00 00       	callq  252a <main+0x20ca>
    252a:	c7 85 9c ef ff ff 03 	movl   $0x3,-0x1064(%rbp)
    2531:	00 00 00 
    2534:	89 85 48 d8 ff ff    	mov    %eax,-0x27b8(%rbp)
    253a:	e9 1f 6e 00 00       	jmpq   935e <main+0x8efe>
    253f:	83 3c 25 00 00 00 00 	cmpl   $0x0,0x0
    2546:	00 
    2547:	0f 8e bb 01 00 00    	jle    2708 <main+0x22a8>
    254d:	48 b8 00 00 00 00 00 	movabs $0x0,%rax
    2554:	00 00 00 
    2557:	8b 0c 25 00 00 00 00 	mov    0x0,%ecx
    255e:	89 8d bc f2 ff ff    	mov    %ecx,-0xd44(%rbp)
    2564:	48 89 85 b0 f2 ff ff 	mov    %rax,-0xd50(%rbp)
    256b:	48 8b 85 b0 f2 ff ff 	mov    -0xd50(%rbp),%rax
    2572:	83 38 00             	cmpl   $0x0,(%rax)
    2575:	74 35                	je     25ac <main+0x214c>
    2577:	48 8b 85 b0 f2 ff ff 	mov    -0xd50(%rbp),%rax
    257e:	8b 08                	mov    (%rax),%ecx
    2580:	3b 8d bc f2 ff ff    	cmp    -0xd44(%rbp),%ecx
    2586:	75 10                	jne    2598 <main+0x2138>
    2588:	48 8b 85 b0 f2 ff ff 	mov    -0xd50(%rbp),%rax
    258f:	48 89 85 c0 f2 ff ff 	mov    %rax,-0xd40(%rbp)
    2596:	eb 1f                	jmp    25b7 <main+0x2157>
    2598:	48 8b 85 b0 f2 ff ff 	mov    -0xd50(%rbp),%rax
    259f:	48 83 c0 30          	add    $0x30,%rax
    25a3:	48 89 85 b0 f2 ff ff 	mov    %rax,-0xd50(%rbp)
    25aa:	eb bf                	jmp    256b <main+0x210b>
    25ac:	48 c7 85 c0 f2 ff ff 	movq   $0x0,-0xd40(%rbp)
    25b3:	00 00 00 00 
    25b7:	48 8b 85 c0 f2 ff ff 	mov    -0xd40(%rbp),%rax
    25be:	48 89 85 28 e0 ff ff 	mov    %rax,-0x1fd8(%rbp)
    25c5:	83 3c 25 00 00 00 00 	cmpl   $0xffffffff,0x0
    25cc:	ff 
    25cd:	74 39                	je     2608 <main+0x21a8>
    25cf:	48 8b 85 28 e0 ff ff 	mov    -0x1fd8(%rbp),%rax
    25d6:	8b 48 20             	mov    0x20(%rax),%ecx
    25d9:	3b 0c 25 00 00 00 00 	cmp    0x0,%ecx
    25e0:	7e 26                	jle    2608 <main+0x21a8>
    25e2:	48 bf 00 00 00 00 00 	movabs $0x0,%rdi
    25e9:	00 00 00 
    25ec:	b0 00                	mov    $0x0,%al
    25ee:	e8 00 00 00 00       	callq  25f3 <main+0x2193>
    25f3:	c7 85 9c ef ff ff 02 	movl   $0x2,-0x1064(%rbp)
    25fa:	00 00 00 
    25fd:	89 85 44 d8 ff ff    	mov    %eax,-0x27bc(%rbp)
    2603:	e9 be e3 ff ff       	jmpq   9c6 <main+0x566>
    2608:	83 3c 25 00 00 00 00 	cmpl   $0xffffffff,0x0
    260f:	ff 
    2610:	74 39                	je     264b <main+0x21eb>
    2612:	48 8b 85 28 e0 ff ff 	mov    -0x1fd8(%rbp),%rax
    2619:	8b 48 28             	mov    0x28(%rax),%ecx
    261c:	3b 0c 25 00 00 00 00 	cmp    0x0,%ecx
    2623:	7d 26                	jge    264b <main+0x21eb>
    2625:	48 bf 00 00 00 00 00 	movabs $0x0,%rdi
    262c:	00 00 00 
    262f:	b0 00                	mov    $0x0,%al
    2631:	e8 00 00 00 00       	callq  2636 <main+0x21d6>
    2636:	c7 85 9c ef ff ff 02 	movl   $0x2,-0x1064(%rbp)
    263d:	00 00 00 
    2640:	89 85 40 d8 ff ff    	mov    %eax,-0x27c0(%rbp)
    2646:	e9 7b e3 ff ff       	jmpq   9c6 <main+0x566>
    264b:	83 3c 25 00 00 00 00 	cmpl   $0xffffffff,0x0
    2652:	ff 
    2653:	74 13                	je     2668 <main+0x2208>
    2655:	8b 04 25 00 00 00 00 	mov    0x0,%eax
    265c:	48 8b 8d 28 e0 ff ff 	mov    -0x1fd8(%rbp),%rcx
    2663:	3b 41 28             	cmp    0x28(%rcx),%eax
    2666:	7e 11                	jle    2679 <main+0x2219>
    2668:	48 8b 85 28 e0 ff ff 	mov    -0x1fd8(%rbp),%rax
    266f:	8b 48 28             	mov    0x28(%rax),%ecx
    2672:	89 0c 25 00 00 00 00 	mov    %ecx,0x0
    2679:	8b 04 25 00 00 00 00 	mov    0x0,%eax
    2680:	48 8b 8d 28 e0 ff ff 	mov    -0x1fd8(%rbp),%rcx
    2687:	3b 41 20             	cmp    0x20(%rcx),%eax
    268a:	7d 32                	jge    26be <main+0x225e>
    268c:	48 8b 85 28 e0 ff ff 	mov    -0x1fd8(%rbp),%rax
    2693:	8b 48 20             	mov    0x20(%rax),%ecx
    2696:	89 0c 25 00 00 00 00 	mov    %ecx,0x0
    269d:	83 3c 25 00 00 00 00 	cmpl   $0x1,0x0
    26a4:	01 
    26a5:	75 15                	jne    26bc <main+0x225c>
    26a7:	83 3c 25 00 00 00 00 	cmpl   $0x2,0x0
    26ae:	02 
    26af:	7d 0b                	jge    26bc <main+0x225c>
    26b1:	c7 04 25 00 00 00 00 	movl   $0x2,0x0
    26b8:	02 00 00 00 
    26bc:	eb 00                	jmp    26be <main+0x225e>
    26be:	48 8b 85 28 e0 ff ff 	mov    -0x1fd8(%rbp),%rax
    26c5:	83 78 10 2a          	cmpl   $0x2a,0x10(%rax)
    26c9:	75 3b                	jne    2706 <main+0x22a6>
    26cb:	83 3c 25 00 00 00 00 	cmpl   $0x1,0x0
    26d2:	01 
    26d3:	75 26                	jne    26fb <main+0x229b>
    26d5:	48 bf 00 00 00 00 00 	movabs $0x0,%rdi
    26dc:	00 00 00 
    26df:	b0 00                	mov    $0x0,%al
    26e1:	e8 00 00 00 00       	callq  26e6 <main+0x2286>
    26e6:	c7 85 9c ef ff ff 02 	movl   $0x2,-0x1064(%rbp)
    26ed:	00 00 00 
    26f0:	89 85 3c d8 ff ff    	mov    %eax,-0x27c4(%rbp)
    26f6:	e9 cb e2 ff ff       	jmpq   9c6 <main+0x566>
    26fb:	c7 04 25 00 00 00 00 	movl   $0x0,0x0
    2702:	00 00 00 00 
    2706:	eb 00                	jmp    2708 <main+0x22a8>
    2708:	48 83 3c 25 00 00 00 	cmpq   $0x0,0x0
    270f:	00 00 
    2711:	0f 84 06 03 00 00    	je     2a1d <main+0x25bd>
    2717:	31 f6                	xor    %esi,%esi
    2719:	b8 20 00 00 00       	mov    $0x20,%eax
    271e:	89 c2                	mov    %eax,%edx
    2720:	48 8d 8d 00 e0 ff ff 	lea    -0x2000(%rbp),%rcx
    2727:	48 89 cf             	mov    %rcx,%rdi
    272a:	e8 00 00 00 00       	callq  272f <main+0x22cf>
    272f:	c7 85 54 e0 ff ff 00 	movl   $0x0,-0x1fac(%rbp)
    2736:	00 00 00 
    2739:	48 8b 0c 25 00 00 00 	mov    0x0,%rcx
    2740:	00 
    2741:	48 89 8d 48 e0 ff ff 	mov    %rcx,-0x1fb8(%rbp)
    2748:	31 c0                	xor    %eax,%eax
    274a:	88 c1                	mov    %al,%cl
    274c:	83 bd 54 e0 ff ff 04 	cmpl   $0x4,-0x1fac(%rbp)
    2753:	88 8d 3b d8 ff ff    	mov    %cl,-0x27c5(%rbp)
    2759:	7d 16                	jge    2771 <main+0x2311>
    275b:	48 8b 85 48 e0 ff ff 	mov    -0x1fb8(%rbp),%rax
    2762:	0f be 08             	movsbl (%rax),%ecx
    2765:	83 f9 00             	cmp    $0x0,%ecx
    2768:	0f 95 c2             	setne  %dl
    276b:	88 95 3b d8 ff ff    	mov    %dl,-0x27c5(%rbp)
    2771:	8a 85 3b d8 ff ff    	mov    -0x27c5(%rbp),%al
    2777:	a8 01                	test   $0x1,%al
    2779:	75 05                	jne    2780 <main+0x2320>
    277b:	e9 a2 00 00 00       	jmpq   2822 <main+0x23c2>
    2780:	48 8b 85 48 e0 ff ff 	mov    -0x1fb8(%rbp),%rax
    2787:	48 63 8d 54 e0 ff ff 	movslq -0x1fac(%rbp),%rcx
    278e:	48 89 84 cd 00 e0 ff 	mov    %rax,-0x2000(%rbp,%rcx,8)
    2795:	ff 
    2796:	31 c0                	xor    %eax,%eax
    2798:	88 c1                	mov    %al,%cl
    279a:	48 8b 95 48 e0 ff ff 	mov    -0x1fb8(%rbp),%rdx
    27a1:	0f be 02             	movsbl (%rdx),%eax
    27a4:	83 f8 2c             	cmp    $0x2c,%eax
    27a7:	88 8d 3a d8 ff ff    	mov    %cl,-0x27c6(%rbp)
    27ad:	74 16                	je     27c5 <main+0x2365>
    27af:	48 8b 85 48 e0 ff ff 	mov    -0x1fb8(%rbp),%rax
    27b6:	0f be 08             	movsbl (%rax),%ecx
    27b9:	83 f9 00             	cmp    $0x0,%ecx
    27bc:	0f 95 c2             	setne  %dl
    27bf:	88 95 3a d8 ff ff    	mov    %dl,-0x27c6(%rbp)
    27c5:	8a 85 3a d8 ff ff    	mov    -0x27c6(%rbp),%al
    27cb:	a8 01                	test   $0x1,%al
    27cd:	75 02                	jne    27d1 <main+0x2371>
    27cf:	eb 14                	jmp    27e5 <main+0x2385>
    27d1:	48 8b 85 48 e0 ff ff 	mov    -0x1fb8(%rbp),%rax
    27d8:	48 83 c0 01          	add    $0x1,%rax
    27dc:	48 89 85 48 e0 ff ff 	mov    %rax,-0x1fb8(%rbp)
    27e3:	eb b1                	jmp    2796 <main+0x2336>
    27e5:	48 8b 85 48 e0 ff ff 	mov    -0x1fb8(%rbp),%rax
    27ec:	0f be 08             	movsbl (%rax),%ecx
    27ef:	83 f9 2c             	cmp    $0x2c,%ecx
    27f2:	75 18                	jne    280c <main+0x23ac>
    27f4:	48 8b 85 48 e0 ff ff 	mov    -0x1fb8(%rbp),%rax
    27fb:	48 89 c1             	mov    %rax,%rcx
    27fe:	48 83 c1 01          	add    $0x1,%rcx
    2802:	48 89 8d 48 e0 ff ff 	mov    %rcx,-0x1fb8(%rbp)
    2809:	c6 00 00             	movb   $0x0,(%rax)
    280c:	eb 00                	jmp    280e <main+0x23ae>
    280e:	8b 85 54 e0 ff ff    	mov    -0x1fac(%rbp),%eax
    2814:	83 c0 01             	add    $0x1,%eax
    2817:	89 85 54 e0 ff ff    	mov    %eax,-0x1fac(%rbp)
    281d:	e9 26 ff ff ff       	jmpq   2748 <main+0x22e8>
    2822:	83 bd 54 e0 ff ff 04 	cmpl   $0x4,-0x1fac(%rbp)
    2829:	74 26                	je     2851 <main+0x23f1>
    282b:	48 bf 00 00 00 00 00 	movabs $0x0,%rdi
    2832:	00 00 00 
    2835:	b0 00                	mov    $0x0,%al
    2837:	e8 00 00 00 00       	callq  283c <main+0x23dc>
    283c:	c7 85 9c ef ff ff 01 	movl   $0x1,-0x1064(%rbp)
    2843:	00 00 00 
    2846:	89 85 34 d8 ff ff    	mov    %eax,-0x27cc(%rbp)
    284c:	e9 0d 6b 00 00       	jmpq   935e <main+0x8efe>
    2851:	31 f6                	xor    %esi,%esi
    2853:	b8 20 00 00 00       	mov    $0x20,%eax
    2858:	89 c2                	mov    %eax,%edx
    285a:	48 8d 8d 60 ef ff ff 	lea    -0x10a0(%rbp),%rcx
    2861:	48 89 cf             	mov    %rcx,%rdi
    2864:	e8 00 00 00 00       	callq  2869 <main+0x2409>
    2869:	c7 85 54 e0 ff ff 00 	movl   $0x0,-0x1fac(%rbp)
    2870:	00 00 00 
    2873:	83 bd 54 e0 ff ff 04 	cmpl   $0x4,-0x1fac(%rbp)
    287a:	0f 8d 9b 01 00 00    	jge    2a1b <main+0x25bb>
    2880:	31 c0                	xor    %eax,%eax
    2882:	89 c1                	mov    %eax,%ecx
    2884:	48 ba 00 00 00 00 00 	movabs $0x0,%rdx
    288b:	00 00 00 
    288e:	48 63 b5 54 e0 ff ff 	movslq -0x1fac(%rbp),%rsi
    2895:	48 8b b4 f5 00 e0 ff 	mov    -0x2000(%rbp,%rsi,8),%rsi
    289c:	ff 
    289d:	48 89 b5 d0 f2 ff ff 	mov    %rsi,-0xd30(%rbp)
    28a4:	48 8b b5 d0 f2 ff ff 	mov    -0xd30(%rbp),%rsi
    28ab:	48 89 b5 e8 f2 ff ff 	mov    %rsi,-0xd18(%rbp)
    28b2:	48 89 95 e0 f2 ff ff 	mov    %rdx,-0xd20(%rbp)
    28b9:	48 3b 8d e8 f2 ff ff 	cmp    -0xd18(%rbp),%rcx
    28c0:	75 10                	jne    28d2 <main+0x2472>
    28c2:	48 c7 85 f0 f2 ff ff 	movq   $0x0,-0xd10(%rbp)
    28c9:	00 00 00 00 
    28cd:	e9 a6 00 00 00       	jmpq   2978 <main+0x2518>
    28d2:	eb 00                	jmp    28d4 <main+0x2474>
    28d4:	48 8b 85 e0 f2 ff ff 	mov    -0xd20(%rbp),%rax
    28db:	83 38 00             	cmpl   $0x0,(%rax)
    28de:	0f 84 89 00 00 00    	je     296d <main+0x250d>
    28e4:	48 8b 85 e0 f2 ff ff 	mov    -0xd20(%rbp),%rax
    28eb:	48 8b 40 08          	mov    0x8(%rax),%rax
    28ef:	48 8b b5 e8 f2 ff ff 	mov    -0xd18(%rbp),%rsi
    28f6:	48 89 85 28 d8 ff ff 	mov    %rax,-0x27d8(%rbp)
    28fd:	48 89 b5 20 d8 ff ff 	mov    %rsi,-0x27e0(%rbp)
    2904:	e8 00 00 00 00       	callq  2909 <main+0x24a9>
    2909:	48 8b bd 28 d8 ff ff 	mov    -0x27d8(%rbp),%rdi
    2910:	e8 00 00 00 00       	callq  2915 <main+0x24b5>
    2915:	48 8b bd 28 d8 ff ff 	mov    -0x27d8(%rbp),%rdi
    291c:	48 8b b5 20 d8 ff ff 	mov    -0x27e0(%rbp),%rsi
    2923:	e8 00 00 00 00       	callq  2928 <main+0x24c8>
    2928:	48 8b bd 28 d8 ff ff 	mov    -0x27d8(%rbp),%rdi
    292f:	89 85 1c d8 ff ff    	mov    %eax,-0x27e4(%rbp)
    2935:	e8 00 00 00 00       	callq  293a <main+0x24da>
    293a:	31 c0                	xor    %eax,%eax
    293c:	8b 8d 1c d8 ff ff    	mov    -0x27e4(%rbp),%ecx
    2942:	39 c8                	cmp    %ecx,%eax
    2944:	75 10                	jne    2956 <main+0x24f6>
    2946:	48 8b 85 e0 f2 ff ff 	mov    -0xd20(%rbp),%rax
    294d:	48 89 85 f0 f2 ff ff 	mov    %rax,-0xd10(%rbp)
    2954:	eb 22                	jmp    2978 <main+0x2518>
    2956:	48 8b 85 e0 f2 ff ff 	mov    -0xd20(%rbp),%rax
    295d:	48 83 c0 30          	add    $0x30,%rax
    2961:	48 89 85 e0 f2 ff ff 	mov    %rax,-0xd20(%rbp)
    2968:	e9 67 ff ff ff       	jmpq   28d4 <main+0x2474>
    296d:	48 c7 85 f0 f2 ff ff 	movq   $0x0,-0xd10(%rbp)
    2974:	00 00 00 00 
    2978:	48 8b 85 f0 f2 ff ff 	mov    -0xd10(%rbp),%rax
    297f:	48 89 85 c8 f2 ff ff 	mov    %rax,-0xd38(%rbp)
    2986:	48 83 bd c8 f2 ff ff 	cmpq   $0x0,-0xd38(%rbp)
    298d:	00 
    298e:	75 0c                	jne    299c <main+0x253c>
    2990:	c7 85 dc f2 ff ff 00 	movl   $0x0,-0xd24(%rbp)
    2997:	00 00 00 
    299a:	eb 0f                	jmp    29ab <main+0x254b>
    299c:	48 8b 85 c8 f2 ff ff 	mov    -0xd38(%rbp),%rax
    29a3:	8b 08                	mov    (%rax),%ecx
    29a5:	89 8d dc f2 ff ff    	mov    %ecx,-0xd24(%rbp)
    29ab:	8b 85 dc f2 ff ff    	mov    -0xd24(%rbp),%eax
    29b1:	48 63 8d 54 e0 ff ff 	movslq -0x1fac(%rbp),%rcx
    29b8:	89 84 cd 60 ef ff ff 	mov    %eax,-0x10a0(%rbp,%rcx,8)
    29bf:	48 63 8d 54 e0 ff ff 	movslq -0x1fac(%rbp),%rcx
    29c6:	83 bc cd 60 ef ff ff 	cmpl   $0x0,-0x10a0(%rbp,%rcx,8)
    29cd:	00 
    29ce:	75 35                	jne    2a05 <main+0x25a5>
    29d0:	48 bf 00 00 00 00 00 	movabs $0x0,%rdi
    29d7:	00 00 00 
    29da:	48 63 85 54 e0 ff ff 	movslq -0x1fac(%rbp),%rax
    29e1:	48 8b b4 c5 00 e0 ff 	mov    -0x2000(%rbp,%rax,8),%rsi
    29e8:	ff 
    29e9:	b0 00                	mov    $0x0,%al
    29eb:	e8 00 00 00 00       	callq  29f0 <main+0x2590>
    29f0:	c7 85 9c ef ff ff 02 	movl   $0x2,-0x1064(%rbp)
    29f7:	00 00 00 
    29fa:	89 85 18 d8 ff ff    	mov    %eax,-0x27e8(%rbp)
    2a00:	e9 c1 df ff ff       	jmpq   9c6 <main+0x566>
    2a05:	eb 00                	jmp    2a07 <main+0x25a7>
    2a07:	8b 85 54 e0 ff ff    	mov    -0x1fac(%rbp),%eax
    2a0d:	83 c0 01             	add    $0x1,%eax
    2a10:	89 85 54 e0 ff ff    	mov    %eax,-0x1fac(%rbp)
    2a16:	e9 58 fe ff ff       	jmpq   2873 <main+0x2413>
    2a1b:	eb 00                	jmp    2a1d <main+0x25bd>
    2a1d:	48 bf 00 00 00 00 00 	movabs $0x0,%rdi
    2a24:	00 00 00 
    2a27:	b0 00                	mov    $0x0,%al
    2a29:	e8 00 00 00 00       	callq  2a2e <main+0x25ce>
    2a2e:	48 8b 3c 25 00 00 00 	mov    0x0,%rdi
    2a35:	00 
    2a36:	89 85 14 d8 ff ff    	mov    %eax,-0x27ec(%rbp)
    2a3c:	e8 00 00 00 00       	callq  2a41 <main+0x25e1>
    2a41:	31 c9                	xor    %ecx,%ecx
    2a43:	ba 6c 00 00 00       	mov    $0x6c,%edx
    2a48:	be 20 03 00 00       	mov    $0x320,%esi
    2a4d:	89 f7                	mov    %esi,%edi
    2a4f:	4c 8d 85 60 eb ff ff 	lea    -0x14a0(%rbp),%r8
    2a56:	4c 89 85 f8 f2 ff ff 	mov    %r8,-0xd08(%rbp)
    2a5d:	4c 8b 85 f8 f2 ff ff 	mov    -0xd08(%rbp),%r8
    2a64:	41 c7 80 90 00 00 00 	movl   $0x0,0x90(%r8)
    2a6b:	00 00 00 00 
    2a6f:	4c 8b 85 f8 f2 ff ff 	mov    -0xd08(%rbp),%r8
    2a76:	49 81 c0 98 00 00 00 	add    $0x98,%r8
    2a7d:	48 89 bd 08 d8 ff ff 	mov    %rdi,-0x27f8(%rbp)
    2a84:	4c 89 c7             	mov    %r8,%rdi
    2a87:	89 ce                	mov    %ecx,%esi
    2a89:	4c 8b 85 08 d8 ff ff 	mov    -0x27f8(%rbp),%r8
    2a90:	48 89 95 00 d8 ff ff 	mov    %rdx,-0x2800(%rbp)
    2a97:	4c 89 c2             	mov    %r8,%rdx
    2a9a:	89 85 fc d7 ff ff    	mov    %eax,-0x2804(%rbp)
    2aa0:	89 8d f8 d7 ff ff    	mov    %ecx,-0x2808(%rbp)
    2aa6:	e8 00 00 00 00       	callq  2aab <main+0x264b>
    2aab:	48 8b 95 f8 f2 ff ff 	mov    -0xd08(%rbp),%rdx
    2ab2:	c7 02 00 00 00 00    	movl   $0x0,(%rdx)
    2ab8:	48 8b 95 f8 f2 ff ff 	mov    -0xd08(%rbp),%rdx
    2abf:	48 83 c2 10          	add    $0x10,%rdx
    2ac3:	48 89 95 00 f3 ff ff 	mov    %rdx,-0xd00(%rbp)
    2aca:	48 8b 95 00 f3 ff ff 	mov    -0xd00(%rbp),%rdx
    2ad1:	48 89 d7             	mov    %rdx,%rdi
    2ad4:	8b b5 f8 d7 ff ff    	mov    -0x2808(%rbp),%esi
    2ada:	48 8b 95 00 d8 ff ff 	mov    -0x2800(%rbp),%rdx
    2ae1:	e8 00 00 00 00       	callq  2ae6 <main+0x2686>
    2ae6:	48 8b 95 f8 f2 ff ff 	mov    -0xd08(%rbp),%rdx
    2aed:	48 89 95 30 f3 ff ff 	mov    %rdx,-0xcd0(%rbp)
    2af4:	48 ba 00 00 00 00 00 	movabs $0x0,%rdx
    2afb:	00 00 00 
    2afe:	48 89 95 28 f3 ff ff 	mov    %rdx,-0xcd8(%rbp)
    2b05:	48 c7 85 20 f3 ff ff 	movq   $0x0,-0xce0(%rbp)
    2b0c:	00 00 00 00 
    2b10:	48 c7 85 18 f3 ff ff 	movq   $0x20,-0xce8(%rbp)
    2b17:	20 00 00 00 
    2b1b:	c7 85 14 f3 ff ff 01 	movl   $0x1,-0xcec(%rbp)
    2b22:	00 00 00 
    2b25:	c7 85 0c f3 ff ff 00 	movl   $0x0,-0xcf4(%rbp)
    2b2c:	00 00 00 
    2b2f:	48 8b 95 30 f3 ff ff 	mov    -0xcd0(%rbp),%rdx
    2b36:	8b 82 90 00 00 00    	mov    0x90(%rdx),%eax
    2b3c:	89 85 10 f3 ff ff    	mov    %eax,-0xcf0(%rbp)
    2b42:	83 bd 10 f3 ff ff 14 	cmpl   $0x14,-0xcf0(%rbp)
    2b49:	7c 0f                	jl     2b5a <main+0x26fa>
    2b4b:	c7 85 0c f3 ff ff c2 	movl   $0xffffffc2,-0xcf4(%rbp)
    2b52:	ff ff ff 
    2b55:	e9 ae 00 00 00       	jmpq   2c08 <main+0x27a8>
    2b5a:	48 8b 85 28 f3 ff ff 	mov    -0xcd8(%rbp),%rax
    2b61:	48 8b 8d 30 f3 ff ff 	mov    -0xcd0(%rbp),%rcx
    2b68:	48 81 c1 98 00 00 00 	add    $0x98,%rcx
    2b6f:	48 63 95 10 f3 ff ff 	movslq -0xcf0(%rbp),%rdx
    2b76:	48 6b d2 28          	imul   $0x28,%rdx,%rdx
    2b7a:	48 01 d1             	add    %rdx,%rcx
    2b7d:	48 89 01             	mov    %rax,(%rcx)
    2b80:	48 8b 85 20 f3 ff ff 	mov    -0xce0(%rbp),%rax
    2b87:	48 8b 8d 30 f3 ff ff 	mov    -0xcd0(%rbp),%rcx
    2b8e:	48 81 c1 98 00 00 00 	add    $0x98,%rcx
    2b95:	48 63 95 10 f3 ff ff 	movslq -0xcf0(%rbp),%rdx
    2b9c:	48 6b d2 28          	imul   $0x28,%rdx,%rdx
    2ba0:	48 01 d1             	add    %rdx,%rcx
    2ba3:	48 89 41 08          	mov    %rax,0x8(%rcx)
    2ba7:	48 8b 85 18 f3 ff ff 	mov    -0xce8(%rbp),%rax
    2bae:	48 8b 8d 30 f3 ff ff 	mov    -0xcd0(%rbp),%rcx
    2bb5:	48 81 c1 98 00 00 00 	add    $0x98,%rcx
    2bbc:	48 63 95 10 f3 ff ff 	movslq -0xcf0(%rbp),%rdx
    2bc3:	48 6b d2 28          	imul   $0x28,%rdx,%rdx
    2bc7:	48 01 d1             	add    %rdx,%rcx
    2bca:	48 89 41 18          	mov    %rax,0x18(%rcx)
    2bce:	8b b5 14 f3 ff ff    	mov    -0xcec(%rbp),%esi
    2bd4:	48 8b 85 30 f3 ff ff 	mov    -0xcd0(%rbp),%rax
    2bdb:	48 05 98 00 00 00    	add    $0x98,%rax
    2be1:	48 63 8d 10 f3 ff ff 	movslq -0xcf0(%rbp),%rcx
    2be8:	48 6b c9 28          	imul   $0x28,%rcx,%rcx
    2bec:	48 01 c8             	add    %rcx,%rax
    2bef:	89 70 20             	mov    %esi,0x20(%rax)
    2bf2:	48 8b 85 30 f3 ff ff 	mov    -0xcd0(%rbp),%rax
    2bf9:	8b b0 90 00 00 00    	mov    0x90(%rax),%esi
    2bff:	83 c6 01             	add    $0x1,%esi
    2c02:	89 b0 90 00 00 00    	mov    %esi,0x90(%rax)
    2c08:	48 8d 85 60 f3 ff ff 	lea    -0xca0(%rbp),%rax
    2c0f:	48 8d 8d 60 eb ff ff 	lea    -0x14a0(%rbp),%rcx
    2c16:	48 8b 95 50 ef ff ff 	mov    -0x10b0(%rbp),%rdx
    2c1d:	48 8b bd 50 ef ff ff 	mov    -0x10b0(%rbp),%rdi
    2c24:	48 89 85 f0 d7 ff ff 	mov    %rax,-0x2810(%rbp)
    2c2b:	48 89 8d e8 d7 ff ff 	mov    %rcx,-0x2818(%rbp)
    2c32:	48 89 95 e0 d7 ff ff 	mov    %rdx,-0x2820(%rbp)
    2c39:	e8 00 00 00 00       	callq  2c3e <main+0x27de>
    2c3e:	48 8d 8d 00 ea ff ff 	lea    -0x1600(%rbp),%rcx
    2c45:	48 89 8d 58 f3 ff ff 	mov    %rcx,-0xca8(%rbp)
    2c4c:	48 b9 00 00 00 00 00 	movabs $0x0,%rcx
    2c53:	00 00 00 
    2c56:	48 89 8d 50 f3 ff ff 	mov    %rcx,-0xcb0(%rbp)
    2c5d:	48 8b 8d e8 d7 ff ff 	mov    -0x2818(%rbp),%rcx
    2c64:	48 89 8d 48 f3 ff ff 	mov    %rcx,-0xcb8(%rbp)
    2c6b:	48 8b 95 e0 d7 ff ff 	mov    -0x2820(%rbp),%rdx
    2c72:	48 89 95 40 f3 ff ff 	mov    %rdx,-0xcc0(%rbp)
    2c79:	48 89 85 38 f3 ff ff 	mov    %rax,-0xcc8(%rbp)
    2c80:	48 8b 85 58 f3 ff ff 	mov    -0xca8(%rbp),%rax
    2c87:	48 8b 95 50 f3 ff ff 	mov    -0xcb0(%rbp),%rdx
    2c8e:	48 8b bd 48 f3 ff ff 	mov    -0xcb8(%rbp),%rdi
    2c95:	48 8b b5 40 f3 ff ff 	mov    -0xcc0(%rbp),%rsi
    2c9c:	4c 8b 85 38 f3 ff ff 	mov    -0xcc8(%rbp),%r8
    2ca3:	48 89 85 c0 f3 ff ff 	mov    %rax,-0xc40(%rbp)
    2caa:	48 89 95 b8 f3 ff ff 	mov    %rdx,-0xc48(%rbp)
    2cb1:	48 89 bd b0 f3 ff ff 	mov    %rdi,-0xc50(%rbp)
    2cb8:	48 89 b5 a8 f3 ff ff 	mov    %rsi,-0xc58(%rbp)
    2cbf:	4c 89 85 a0 f3 ff ff 	mov    %r8,-0xc60(%rbp)
    2cc6:	48 c7 85 98 f3 ff ff 	movq   $0x20,-0xc68(%rbp)
    2ccd:	20 00 00 00 
    2cd1:	e8 00 00 00 00       	callq  2cd6 <main+0x2876>
    2cd6:	41 b9 20 00 00 00    	mov    $0x20,%r9d
    2cdc:	44 89 ce             	mov    %r9d,%esi
    2cdf:	48 8b bd f0 d7 ff ff 	mov    -0x2810(%rbp),%rdi
    2ce6:	e8 00 00 00 00       	callq  2ceb <main+0x288b>
    2ceb:	41 b9 20 00 00 00    	mov    $0x20,%r9d
    2cf1:	44 89 c8             	mov    %r9d,%eax
    2cf4:	31 f6                	xor    %esi,%esi
    2cf6:	48 8b bd f0 d7 ff ff 	mov    -0x2810(%rbp),%rdi
    2cfd:	48 89 c2             	mov    %rax,%rdx
    2d00:	48 89 85 d8 d7 ff ff 	mov    %rax,-0x2828(%rbp)
    2d07:	e8 00 00 00 00       	callq  2d0c <main+0x28ac>
    2d0c:	48 8b bd f0 d7 ff ff 	mov    -0x2810(%rbp),%rdi
    2d13:	48 8b b5 d8 d7 ff ff 	mov    -0x2828(%rbp),%rsi
    2d1a:	e8 00 00 00 00       	callq  2d1f <main+0x28bf>
    2d1f:	48 8d b5 60 f3 ff ff 	lea    -0xca0(%rbp),%rsi
    2d26:	45 31 c9             	xor    %r9d,%r9d
    2d29:	41 ba 20 01 00 00    	mov    $0x120,%r10d
    2d2f:	44 89 d2             	mov    %r10d,%edx
    2d32:	48 8b 85 c0 f3 ff ff 	mov    -0xc40(%rbp),%rax
    2d39:	48 83 c0 28          	add    $0x28,%rax
    2d3d:	48 89 85 d0 f3 ff ff 	mov    %rax,-0xc30(%rbp)
    2d44:	48 8b 85 d0 f3 ff ff 	mov    -0xc30(%rbp),%rax
    2d4b:	48 89 c7             	mov    %rax,%rdi
    2d4e:	48 89 b5 d0 d7 ff ff 	mov    %rsi,-0x2830(%rbp)
    2d55:	44 89 ce             	mov    %r9d,%esi
    2d58:	e8 00 00 00 00       	callq  2d5d <main+0x28fd>
    2d5d:	48 8b 85 b8 f3 ff ff 	mov    -0xc48(%rbp),%rax
    2d64:	48 8b 8d c0 f3 ff ff 	mov    -0xc40(%rbp),%rcx
    2d6b:	48 89 81 48 01 00 00 	mov    %rax,0x148(%rcx)
    2d72:	48 8b 85 b0 f3 ff ff 	mov    -0xc50(%rbp),%rax
    2d79:	48 8b 8d c0 f3 ff ff 	mov    -0xc40(%rbp),%rcx
    2d80:	48 89 81 50 01 00 00 	mov    %rax,0x150(%rcx)
    2d87:	48 8b 85 98 f3 ff ff 	mov    -0xc68(%rbp),%rax
    2d8e:	48 8b 8d c0 f3 ff ff 	mov    -0xc40(%rbp),%rcx
    2d95:	48 89 41 18          	mov    %rax,0x18(%rcx)
    2d99:	48 8b 85 c0 f3 ff ff 	mov    -0xc40(%rbp),%rax
    2da0:	c7 40 20 10 27 00 00 	movl   $0x2710,0x20(%rax)
    2da7:	48 8b 85 c0 f3 ff ff 	mov    -0xc40(%rbp),%rax
    2dae:	48 83 c0 28          	add    $0x28,%rax
    2db2:	48 89 c7             	mov    %rax,%rdi
    2db5:	48 8b b5 d0 d7 ff ff 	mov    -0x2830(%rbp),%rsi
    2dbc:	ba 00 01 00 00       	mov    $0x100,%edx
    2dc1:	e8 da ab 04 00       	callq  4d9a0 <mbedtls_aes_setkey_enc>
    2dc6:	89 85 94 f3 ff ff    	mov    %eax,-0xc6c(%rbp)
    2dcc:	83 f8 00             	cmp    $0x0,%eax
    2dcf:	74 0e                	je     2ddf <main+0x297f>
    2dd1:	8b 85 94 f3 ff ff    	mov    -0xc6c(%rbp),%eax
    2dd7:	89 85 cc f3 ff ff    	mov    %eax,-0xc34(%rbp)
    2ddd:	eb 3d                	jmp    2e1c <main+0x29bc>
    2ddf:	48 8b bd c0 f3 ff ff 	mov    -0xc40(%rbp),%rdi
    2de6:	48 8b b5 a8 f3 ff ff 	mov    -0xc58(%rbp),%rsi
    2ded:	48 8b 95 a0 f3 ff ff 	mov    -0xc60(%rbp),%rdx
    2df4:	e8 37 ca 02 00       	callq  2f830 <mbedtls_ctr_drbg_reseed>
    2df9:	89 85 94 f3 ff ff    	mov    %eax,-0xc6c(%rbp)
    2dff:	83 f8 00             	cmp    $0x0,%eax
    2e02:	74 0e                	je     2e12 <main+0x29b2>
    2e04:	8b 85 94 f3 ff ff    	mov    -0xc6c(%rbp),%eax
    2e0a:	89 85 cc f3 ff ff    	mov    %eax,-0xc34(%rbp)
    2e10:	eb 0a                	jmp    2e1c <main+0x29bc>
    2e12:	c7 85 cc f3 ff ff 00 	movl   $0x0,-0xc34(%rbp)
    2e19:	00 00 00 
    2e1c:	8b 85 cc f3 ff ff    	mov    -0xc34(%rbp),%eax
    2e22:	89 85 9c ef ff ff    	mov    %eax,-0x1064(%rbp)
    2e28:	83 f8 00             	cmp    $0x0,%eax
    2e2b:	74 26                	je     2e53 <main+0x29f3>
    2e2d:	48 bf 00 00 00 00 00 	movabs $0x0,%rdi
    2e34:	00 00 00 
    2e37:	31 c0                	xor    %eax,%eax
    2e39:	2b 85 9c ef ff ff    	sub    -0x1064(%rbp),%eax
    2e3f:	89 c6                	mov    %eax,%esi
    2e41:	b0 00                	mov    $0x0,%al
    2e43:	e8 00 00 00 00       	callq  2e48 <main+0x29e8>
    2e48:	89 85 cc d7 ff ff    	mov    %eax,-0x2834(%rbp)
    2e4e:	e9 0b 65 00 00       	jmpq   935e <main+0x8efe>
    2e53:	48 bf 00 00 00 00 00 	movabs $0x0,%rdi
    2e5a:	00 00 00 
    2e5d:	b0 00                	mov    $0x0,%al
    2e5f:	e8 00 00 00 00       	callq  2e64 <main+0x2a04>
    2e64:	48 bf 00 00 00 00 00 	movabs $0x0,%rdi
    2e6b:	00 00 00 
    2e6e:	89 85 c8 d7 ff ff    	mov    %eax,-0x2838(%rbp)
    2e74:	b0 00                	mov    $0x0,%al
    2e76:	e8 00 00 00 00       	callq  2e7b <main+0x2a1b>
    2e7b:	48 8b 3c 25 00 00 00 	mov    0x0,%rdi
    2e82:	00 
    2e83:	89 85 c4 d7 ff ff    	mov    %eax,-0x283c(%rbp)
    2e89:	e8 00 00 00 00       	callq  2e8e <main+0x2a2e>
    2e8e:	48 8b 3c 25 00 00 00 	mov    0x0,%rdi
    2e95:	00 
    2e96:	89 85 c0 d7 ff ff    	mov    %eax,-0x2840(%rbp)
    2e9c:	48 89 bd b8 d7 ff ff 	mov    %rdi,-0x2848(%rbp)
    2ea3:	e8 00 00 00 00       	callq  2ea8 <main+0x2a48>
    2ea8:	48 8b bd b8 d7 ff ff 	mov    -0x2848(%rbp),%rdi
    2eaf:	e8 00 00 00 00       	callq  2eb4 <main+0x2a54>
    2eb4:	48 8b bd b8 d7 ff ff 	mov    -0x2848(%rbp),%rdi
    2ebb:	e8 00 00 00 00       	callq  2ec0 <main+0x2a60>
    2ec0:	48 8b bd b8 d7 ff ff 	mov    -0x2848(%rbp),%rdi
    2ec7:	48 89 85 b0 d7 ff ff 	mov    %rax,-0x2850(%rbp)
    2ece:	e8 00 00 00 00       	callq  2ed3 <main+0x2a73>
    2ed3:	48 8b 85 b0 d7 ff ff 	mov    -0x2850(%rbp),%rax
    2eda:	48 83 f8 00          	cmp    $0x0,%rax
    2ede:	0f 84 d5 02 00 00    	je     31b9 <main+0x2d59>
    2ee4:	48 be 00 00 00 00 00 	movabs $0x0,%rsi
    2eeb:	00 00 00 
    2eee:	48 8b 04 25 00 00 00 	mov    0x0,%rax
    2ef5:	00 
    2ef6:	48 89 b5 a8 d7 ff ff 	mov    %rsi,-0x2858(%rbp)
    2efd:	48 89 85 a0 d7 ff ff 	mov    %rax,-0x2860(%rbp)
    2f04:	e8 00 00 00 00       	callq  2f09 <main+0x2aa9>
    2f09:	48 8b bd a0 d7 ff ff 	mov    -0x2860(%rbp),%rdi
    2f10:	e8 00 00 00 00       	callq  2f15 <main+0x2ab5>
    2f15:	48 8b bd a0 d7 ff ff 	mov    -0x2860(%rbp),%rdi
    2f1c:	48 8b b5 a8 d7 ff ff 	mov    -0x2858(%rbp),%rsi
    2f23:	e8 00 00 00 00       	callq  2f28 <main+0x2ac8>
    2f28:	48 8b bd a0 d7 ff ff 	mov    -0x2860(%rbp),%rdi
    2f2f:	89 85 9c d7 ff ff    	mov    %eax,-0x2864(%rbp)
    2f35:	e8 00 00 00 00       	callq  2f3a <main+0x2ada>
    2f3a:	8b 85 9c d7 ff ff    	mov    -0x2864(%rbp),%eax
    2f40:	83 f8 00             	cmp    $0x0,%eax
    2f43:	75 0f                	jne    2f54 <main+0x2af4>
    2f45:	c7 85 9c ef ff ff 00 	movl   $0x0,-0x1064(%rbp)
    2f4c:	00 00 00 
    2f4f:	e9 60 02 00 00       	jmpq   31b4 <main+0x2d54>
    2f54:	48 8b 04 25 00 00 00 	mov    0x0,%rax
    2f5b:	00 
    2f5c:	48 8d 8d a0 e5 ff ff 	lea    -0x1a60(%rbp),%rcx
    2f63:	48 89 8d a0 f6 ff ff 	mov    %rcx,-0x960(%rbp)
    2f6a:	48 89 85 98 f6 ff ff 	mov    %rax,-0x968(%rbp)
    2f71:	c7 85 94 f6 ff ff 00 	movl   $0x0,-0x96c(%rbp)
    2f78:	00 00 00 
    2f7b:	48 8b 85 98 f6 ff ff 	mov    -0x968(%rbp),%rax
    2f82:	48 89 85 90 d7 ff ff 	mov    %rax,-0x2870(%rbp)
    2f89:	e8 00 00 00 00       	callq  2f8e <main+0x2b2e>
    2f8e:	48 8b bd 90 d7 ff ff 	mov    -0x2870(%rbp),%rdi
    2f95:	e8 00 00 00 00       	callq  2f9a <main+0x2b3a>
    2f9a:	48 8b bd 90 d7 ff ff 	mov    -0x2870(%rbp),%rdi
    2fa1:	e8 00 00 00 00       	callq  2fa6 <main+0x2b46>
    2fa6:	48 8b bd 90 d7 ff ff 	mov    -0x2870(%rbp),%rdi
    2fad:	48 89 85 88 d7 ff ff 	mov    %rax,-0x2878(%rbp)
    2fb4:	e8 00 00 00 00       	callq  2fb9 <main+0x2b59>
    2fb9:	48 8b 85 88 d7 ff ff 	mov    -0x2878(%rbp),%rax
    2fc0:	48 89 85 d8 f3 ff ff 	mov    %rax,-0xc28(%rbp)
    2fc7:	48 83 bd d8 f3 ff ff 	cmpq   $0x0,-0xc28(%rbp)
    2fce:	00 
    2fcf:	75 0f                	jne    2fe0 <main+0x2b80>
    2fd1:	c7 85 ac f6 ff ff 00 	movl   $0xffffd700,-0x954(%rbp)
    2fd8:	d7 ff ff 
    2fdb:	e9 c8 01 00 00       	jmpq   31a8 <main+0x2d48>
    2fe0:	eb 00                	jmp    2fe2 <main+0x2b82>
    2fe2:	48 8b bd d8 f3 ff ff 	mov    -0xc28(%rbp),%rdi
    2fe9:	e8 00 00 00 00       	callq  2fee <main+0x2b8e>
    2fee:	48 89 85 f0 f5 ff ff 	mov    %rax,-0xa10(%rbp)
    2ff5:	48 83 f8 00          	cmp    $0x0,%rax
    2ff9:	0f 84 89 01 00 00    	je     3188 <main+0x2d28>
    2fff:	48 ba 00 00 00 00 00 	movabs $0x0,%rdx
    3006:	00 00 00 
    3009:	48 8d 85 e0 f3 ff ff 	lea    -0xc20(%rbp),%rax
    3010:	48 8b 8d 98 f6 ff ff 	mov    -0x968(%rbp),%rcx
    3017:	48 8b b5 f0 f5 ff ff 	mov    -0xa10(%rbp),%rsi
    301e:	48 83 c6 13          	add    $0x13,%rsi
    3022:	48 89 95 80 d7 ff ff 	mov    %rdx,-0x2880(%rbp)
    3029:	48 89 85 78 d7 ff ff 	mov    %rax,-0x2888(%rbp)
    3030:	48 89 8d 70 d7 ff ff 	mov    %rcx,-0x2890(%rbp)
    3037:	48 89 b5 68 d7 ff ff 	mov    %rsi,-0x2898(%rbp)
    303e:	e8 00 00 00 00       	callq  3043 <main+0x2be3>
    3043:	48 8b bd 70 d7 ff ff 	mov    -0x2890(%rbp),%rdi
    304a:	e8 00 00 00 00       	callq  304f <main+0x2bef>
    304f:	41 b8 00 02 00 00    	mov    $0x200,%r8d
    3055:	44 89 c6             	mov    %r8d,%esi
    3058:	48 8b bd 78 d7 ff ff 	mov    -0x2888(%rbp),%rdi
    305f:	48 8b 95 80 d7 ff ff 	mov    -0x2880(%rbp),%rdx
    3066:	48 8b 8d 70 d7 ff ff 	mov    -0x2890(%rbp),%rcx
    306d:	4c 8b 85 68 d7 ff ff 	mov    -0x2898(%rbp),%r8
    3074:	b0 00                	mov    $0x0,%al
    3076:	e8 00 00 00 00       	callq  307b <main+0x2c1b>
    307b:	48 8b bd 70 d7 ff ff 	mov    -0x2890(%rbp),%rdi
    3082:	89 85 64 d7 ff ff    	mov    %eax,-0x289c(%rbp)
    3088:	e8 00 00 00 00       	callq  308d <main+0x2c2d>
    308d:	48 8b bd 78 d7 ff ff 	mov    -0x2888(%rbp),%rdi
    3094:	e8 00 00 00 00       	callq  3099 <main+0x2c39>
    3099:	8b 85 64 d7 ff ff    	mov    -0x289c(%rbp),%eax
    309f:	89 85 8c f6 ff ff    	mov    %eax,-0x974(%rbp)
    30a5:	83 bd 8c f6 ff ff 00 	cmpl   $0x0,-0x974(%rbp)
    30ac:	7c 0f                	jl     30bd <main+0x2c5d>
    30ae:	48 63 85 8c f6 ff ff 	movslq -0x974(%rbp),%rax
    30b5:	48 3d 00 02 00 00    	cmp    $0x200,%rax
    30bb:	72 0f                	jb     30cc <main+0x2c6c>
    30bd:	c7 85 94 f6 ff ff 80 	movl   $0xffffd680,-0x96c(%rbp)
    30c4:	d6 ff ff 
    30c7:	e9 be 00 00 00       	jmpq   318a <main+0x2d2a>
    30cc:	48 8d 85 e0 f3 ff ff 	lea    -0xc20(%rbp),%rax
    30d3:	48 89 85 58 d7 ff ff 	mov    %rax,-0x28a8(%rbp)
    30da:	e8 00 00 00 00       	callq  30df <main+0x2c7f>
    30df:	48 8b bd 58 d7 ff ff 	mov    -0x28a8(%rbp),%rdi
    30e6:	e8 00 00 00 00       	callq  30eb <main+0x2c8b>
    30eb:	48 8b bd 58 d7 ff ff 	mov    -0x28a8(%rbp),%rdi
    30f2:	48 8d b5 f8 f5 ff ff 	lea    -0xa08(%rbp),%rsi
    30f9:	e8 00 00 00 00       	callq  30fe <main+0x2c9e>
    30fe:	48 8b bd 58 d7 ff ff 	mov    -0x28a8(%rbp),%rdi
    3105:	89 85 54 d7 ff ff    	mov    %eax,-0x28ac(%rbp)
    310b:	e8 00 00 00 00       	callq  3110 <main+0x2cb0>
    3110:	8b 85 54 d7 ff ff    	mov    -0x28ac(%rbp),%eax
    3116:	83 f8 ff             	cmp    $0xffffffff,%eax
    3119:	75 0c                	jne    3127 <main+0x2cc7>
    311b:	c7 85 94 f6 ff ff 00 	movl   $0xffffd700,-0x96c(%rbp)
    3122:	d7 ff ff 
    3125:	eb 63                	jmp    318a <main+0x2d2a>
    3127:	8b 85 10 f6 ff ff    	mov    -0x9f0(%rbp),%eax
    312d:	25 00 f0 00 00       	and    $0xf000,%eax
    3132:	3d 00 80 00 00       	cmp    $0x8000,%eax
    3137:	74 05                	je     313e <main+0x2cde>
    3139:	e9 a4 fe ff ff       	jmpq   2fe2 <main+0x2b82>
    313e:	48 8d b5 e0 f3 ff ff 	lea    -0xc20(%rbp),%rsi
    3145:	48 8b bd a0 f6 ff ff 	mov    -0x960(%rbp),%rdi
    314c:	e8 af b7 01 00       	callq  1e900 <mbedtls_x509_crt_parse_file>
    3151:	89 85 90 f6 ff ff    	mov    %eax,-0x970(%rbp)
    3157:	83 bd 90 f6 ff ff 00 	cmpl   $0x0,-0x970(%rbp)
    315e:	7d 11                	jge    3171 <main+0x2d11>
    3160:	8b 85 94 f6 ff ff    	mov    -0x96c(%rbp),%eax
    3166:	83 c0 01             	add    $0x1,%eax
    3169:	89 85 94 f6 ff ff    	mov    %eax,-0x96c(%rbp)
    316f:	eb 12                	jmp    3183 <main+0x2d23>
    3171:	8b 85 90 f6 ff ff    	mov    -0x970(%rbp),%eax
    3177:	03 85 94 f6 ff ff    	add    -0x96c(%rbp),%eax
    317d:	89 85 94 f6 ff ff    	mov    %eax,-0x96c(%rbp)
    3183:	e9 5a fe ff ff       	jmpq   2fe2 <main+0x2b82>
    3188:	eb 00                	jmp    318a <main+0x2d2a>
    318a:	48 8b bd d8 f3 ff ff 	mov    -0xc28(%rbp),%rdi
    3191:	e8 00 00 00 00       	callq  3196 <main+0x2d36>
    3196:	8b 8d 94 f6 ff ff    	mov    -0x96c(%rbp),%ecx
    319c:	89 8d ac f6 ff ff    	mov    %ecx,-0x954(%rbp)
    31a2:	89 85 50 d7 ff ff    	mov    %eax,-0x28b0(%rbp)
    31a8:	8b 85 ac f6 ff ff    	mov    -0x954(%rbp),%eax
    31ae:	89 85 9c ef ff ff    	mov    %eax,-0x1064(%rbp)
    31b4:	e9 47 01 00 00       	jmpq   3300 <main+0x2ea0>
    31b9:	48 8b 04 25 00 00 00 	mov    0x0,%rax
    31c0:	00 
    31c1:	48 89 85 48 d7 ff ff 	mov    %rax,-0x28b8(%rbp)
    31c8:	e8 00 00 00 00       	callq  31cd <main+0x2d6d>
    31cd:	48 8b bd 48 d7 ff ff 	mov    -0x28b8(%rbp),%rdi
    31d4:	e8 00 00 00 00       	callq  31d9 <main+0x2d79>
    31d9:	48 8b bd 48 d7 ff ff 	mov    -0x28b8(%rbp),%rdi
    31e0:	e8 00 00 00 00       	callq  31e5 <main+0x2d85>
    31e5:	48 8b bd 48 d7 ff ff 	mov    -0x28b8(%rbp),%rdi
    31ec:	48 89 85 40 d7 ff ff 	mov    %rax,-0x28c0(%rbp)
    31f3:	e8 00 00 00 00       	callq  31f8 <main+0x2d98>
    31f8:	48 8b 85 40 d7 ff ff 	mov    -0x28c0(%rbp),%rax
    31ff:	48 83 f8 00          	cmp    $0x0,%rax
    3203:	0f 84 89 00 00 00    	je     3292 <main+0x2e32>
    3209:	48 be 00 00 00 00 00 	movabs $0x0,%rsi
    3210:	00 00 00 
    3213:	48 8b 04 25 00 00 00 	mov    0x0,%rax
    321a:	00 
    321b:	48 89 b5 38 d7 ff ff 	mov    %rsi,-0x28c8(%rbp)
    3222:	48 89 85 30 d7 ff ff 	mov    %rax,-0x28d0(%rbp)
    3229:	e8 00 00 00 00       	callq  322e <main+0x2dce>
    322e:	48 8b bd 30 d7 ff ff 	mov    -0x28d0(%rbp),%rdi
    3235:	e8 00 00 00 00       	callq  323a <main+0x2dda>
    323a:	48 8b bd 30 d7 ff ff 	mov    -0x28d0(%rbp),%rdi
    3241:	48 8b b5 38 d7 ff ff 	mov    -0x28c8(%rbp),%rsi
    3248:	e8 00 00 00 00       	callq  324d <main+0x2ded>
    324d:	48 8b bd 30 d7 ff ff 	mov    -0x28d0(%rbp),%rdi
    3254:	89 85 2c d7 ff ff    	mov    %eax,-0x28d4(%rbp)
    325a:	e8 00 00 00 00       	callq  325f <main+0x2dff>
    325f:	8b 85 2c d7 ff ff    	mov    -0x28d4(%rbp),%eax
    3265:	83 f8 00             	cmp    $0x0,%eax
    3268:	75 0c                	jne    3276 <main+0x2e16>
    326a:	c7 85 9c ef ff ff 00 	movl   $0x0,-0x1064(%rbp)
    3271:	00 00 00 
    3274:	eb 1a                	jmp    3290 <main+0x2e30>
    3276:	48 8b 34 25 00 00 00 	mov    0x0,%rsi
    327d:	00 
    327e:	48 8d bd a0 e5 ff ff 	lea    -0x1a60(%rbp),%rdi
    3285:	e8 76 b6 01 00       	callq  1e900 <mbedtls_x509_crt_parse_file>
    328a:	89 85 9c ef ff ff    	mov    %eax,-0x1064(%rbp)
    3290:	eb 6c                	jmp    32fe <main+0x2e9e>
    3292:	c7 85 54 e0 ff ff 00 	movl   $0x0,-0x1fac(%rbp)
    3299:	00 00 00 
    329c:	48 63 85 54 e0 ff ff 	movslq -0x1fac(%rbp),%rax
    32a3:	48 83 3c c5 00 00 00 	cmpq   $0x0,0x0(,%rax,8)
    32aa:	00 00 
    32ac:	74 4e                	je     32fc <main+0x2e9c>
    32ae:	48 63 85 54 e0 ff ff 	movslq -0x1fac(%rbp),%rax
    32b5:	48 8b 34 c5 00 00 00 	mov    0x0(,%rax,8),%rsi
    32bc:	00 
    32bd:	48 63 85 54 e0 ff ff 	movslq -0x1fac(%rbp),%rax
    32c4:	48 8b 14 c5 00 00 00 	mov    0x0(,%rax,8),%rdx
    32cb:	00 
    32cc:	48 8d bd a0 e5 ff ff 	lea    -0x1a60(%rbp),%rdi
    32d3:	e8 28 b1 01 00       	callq  1e400 <mbedtls_x509_crt_parse>
    32d8:	89 85 9c ef ff ff    	mov    %eax,-0x1064(%rbp)
    32de:	83 bd 9c ef ff ff 00 	cmpl   $0x0,-0x1064(%rbp)
    32e5:	74 02                	je     32e9 <main+0x2e89>
    32e7:	eb 13                	jmp    32fc <main+0x2e9c>
    32e9:	eb 00                	jmp    32eb <main+0x2e8b>
    32eb:	8b 85 54 e0 ff ff    	mov    -0x1fac(%rbp),%eax
    32f1:	83 c0 01             	add    $0x1,%eax
    32f4:	89 85 54 e0 ff ff    	mov    %eax,-0x1fac(%rbp)
    32fa:	eb a0                	jmp    329c <main+0x2e3c>
    32fc:	eb 00                	jmp    32fe <main+0x2e9e>
    32fe:	eb 00                	jmp    3300 <main+0x2ea0>
    3300:	83 bd 9c ef ff ff 00 	cmpl   $0x0,-0x1064(%rbp)
    3307:	7d 26                	jge    332f <main+0x2ecf>
    3309:	48 bf 00 00 00 00 00 	movabs $0x0,%rdi
    3310:	00 00 00 
    3313:	31 c0                	xor    %eax,%eax
    3315:	2b 85 9c ef ff ff    	sub    -0x1064(%rbp),%eax
    331b:	89 c6                	mov    %eax,%esi
    331d:	b0 00                	mov    $0x0,%al
    331f:	e8 00 00 00 00       	callq  3324 <main+0x2ec4>
    3324:	89 85 28 d7 ff ff    	mov    %eax,-0x28d8(%rbp)
    332a:	e9 2f 60 00 00       	jmpq   935e <main+0x8efe>
    332f:	48 bf 00 00 00 00 00 	movabs $0x0,%rdi
    3336:	00 00 00 
    3339:	8b b5 9c ef ff ff    	mov    -0x1064(%rbp),%esi
    333f:	b0 00                	mov    $0x0,%al
    3341:	e8 00 00 00 00       	callq  3346 <main+0x2ee6>
    3346:	48 bf 00 00 00 00 00 	movabs $0x0,%rdi
    334d:	00 00 00 
    3350:	89 85 24 d7 ff ff    	mov    %eax,-0x28dc(%rbp)
    3356:	b0 00                	mov    $0x0,%al
    3358:	e8 00 00 00 00       	callq  335d <main+0x2efd>
    335d:	48 8b 3c 25 00 00 00 	mov    0x0,%rdi
    3364:	00 
    3365:	89 85 20 d7 ff ff    	mov    %eax,-0x28e0(%rbp)
    336b:	e8 00 00 00 00       	callq  3370 <main+0x2f10>
    3370:	48 8b 3c 25 00 00 00 	mov    0x0,%rdi
    3377:	00 
    3378:	89 85 1c d7 ff ff    	mov    %eax,-0x28e4(%rbp)
    337e:	48 89 bd 10 d7 ff ff 	mov    %rdi,-0x28f0(%rbp)
    3385:	e8 00 00 00 00       	callq  338a <main+0x2f2a>
    338a:	48 8b bd 10 d7 ff ff 	mov    -0x28f0(%rbp),%rdi
    3391:	e8 00 00 00 00       	callq  3396 <main+0x2f36>
    3396:	48 8b bd 10 d7 ff ff 	mov    -0x28f0(%rbp),%rdi
    339d:	e8 00 00 00 00       	callq  33a2 <main+0x2f42>
    33a2:	48 8b bd 10 d7 ff ff 	mov    -0x28f0(%rbp),%rdi
    33a9:	48 89 85 08 d7 ff ff 	mov    %rax,-0x28f8(%rbp)
    33b0:	e8 00 00 00 00       	callq  33b5 <main+0x2f55>
    33b5:	48 8b 85 08 d7 ff ff 	mov    -0x28f8(%rbp),%rax
    33bc:	48 83 f8 00          	cmp    $0x0,%rax
    33c0:	0f 84 b7 00 00 00    	je     347d <main+0x301d>
    33c6:	48 be 00 00 00 00 00 	movabs $0x0,%rsi
    33cd:	00 00 00 
    33d0:	48 8b 04 25 00 00 00 	mov    0x0,%rax
    33d7:	00 
    33d8:	48 89 b5 00 d7 ff ff 	mov    %rsi,-0x2900(%rbp)
    33df:	48 89 85 f8 d6 ff ff 	mov    %rax,-0x2908(%rbp)
    33e6:	e8 00 00 00 00       	callq  33eb <main+0x2f8b>
    33eb:	48 8b bd f8 d6 ff ff 	mov    -0x2908(%rbp),%rdi
    33f2:	e8 00 00 00 00       	callq  33f7 <main+0x2f97>
    33f7:	48 8b bd f8 d6 ff ff 	mov    -0x2908(%rbp),%rdi
    33fe:	48 8b b5 00 d7 ff ff 	mov    -0x2900(%rbp),%rsi
    3405:	e8 00 00 00 00       	callq  340a <main+0x2faa>
    340a:	48 8b bd f8 d6 ff ff 	mov    -0x2908(%rbp),%rdi
    3411:	89 85 f4 d6 ff ff    	mov    %eax,-0x290c(%rbp)
    3417:	e8 00 00 00 00       	callq  341c <main+0x2fbc>
    341c:	8b 85 f4 d6 ff ff    	mov    -0x290c(%rbp),%eax
    3422:	83 f8 00             	cmp    $0x0,%eax
    3425:	74 56                	je     347d <main+0x301d>
    3427:	8b 85 5c e0 ff ff    	mov    -0x1fa4(%rbp),%eax
    342d:	83 c0 01             	add    $0x1,%eax
    3430:	89 85 5c e0 ff ff    	mov    %eax,-0x1fa4(%rbp)
    3436:	48 8b 34 25 00 00 00 	mov    0x0,%rsi
    343d:	00 
    343e:	48 8d bd 50 e3 ff ff 	lea    -0x1cb0(%rbp),%rdi
    3445:	e8 b6 b4 01 00       	callq  1e900 <mbedtls_x509_crt_parse_file>
    344a:	89 85 9c ef ff ff    	mov    %eax,-0x1064(%rbp)
    3450:	83 f8 00             	cmp    $0x0,%eax
    3453:	74 26                	je     347b <main+0x301b>
    3455:	48 bf 00 00 00 00 00 	movabs $0x0,%rdi
    345c:	00 00 00 
    345f:	31 c0                	xor    %eax,%eax
    3461:	2b 85 9c ef ff ff    	sub    -0x1064(%rbp),%eax
    3467:	89 c6                	mov    %eax,%esi
    3469:	b0 00                	mov    $0x0,%al
    346b:	e8 00 00 00 00       	callq  3470 <main+0x3010>
    3470:	89 85 f0 d6 ff ff    	mov    %eax,-0x2910(%rbp)
    3476:	e9 e3 5e 00 00       	jmpq   935e <main+0x8efe>
    347b:	eb 00                	jmp    347d <main+0x301d>
    347d:	48 8b 04 25 00 00 00 	mov    0x0,%rax
    3484:	00 
    3485:	48 89 85 e8 d6 ff ff 	mov    %rax,-0x2918(%rbp)
    348c:	e8 00 00 00 00       	callq  3491 <main+0x3031>
    3491:	48 8b bd e8 d6 ff ff 	mov    -0x2918(%rbp),%rdi
    3498:	e8 00 00 00 00       	callq  349d <main+0x303d>
    349d:	48 8b bd e8 d6 ff ff 	mov    -0x2918(%rbp),%rdi
    34a4:	e8 00 00 00 00       	callq  34a9 <main+0x3049>
    34a9:	48 8b bd e8 d6 ff ff 	mov    -0x2918(%rbp),%rdi
    34b0:	48 89 85 e0 d6 ff ff 	mov    %rax,-0x2920(%rbp)
    34b7:	e8 00 00 00 00       	callq  34bc <main+0x305c>
    34bc:	48 8b 85 e0 d6 ff ff 	mov    -0x2920(%rbp),%rax
    34c3:	48 83 f8 00          	cmp    $0x0,%rax
    34c7:	0f 84 c1 00 00 00    	je     358e <main+0x312e>
    34cd:	48 be 00 00 00 00 00 	movabs $0x0,%rsi
    34d4:	00 00 00 
    34d7:	48 8b 04 25 00 00 00 	mov    0x0,%rax
    34de:	00 
    34df:	48 89 b5 d8 d6 ff ff 	mov    %rsi,-0x2928(%rbp)
    34e6:	48 89 85 d0 d6 ff ff 	mov    %rax,-0x2930(%rbp)
    34ed:	e8 00 00 00 00       	callq  34f2 <main+0x3092>
    34f2:	48 8b bd d0 d6 ff ff 	mov    -0x2930(%rbp),%rdi
    34f9:	e8 00 00 00 00       	callq  34fe <main+0x309e>
    34fe:	48 8b bd d0 d6 ff ff 	mov    -0x2930(%rbp),%rdi
    3505:	48 8b b5 d8 d6 ff ff 	mov    -0x2928(%rbp),%rsi
    350c:	e8 00 00 00 00       	callq  3511 <main+0x30b1>
    3511:	48 8b bd d0 d6 ff ff 	mov    -0x2930(%rbp),%rdi
    3518:	89 85 cc d6 ff ff    	mov    %eax,-0x2934(%rbp)
    351e:	e8 00 00 00 00       	callq  3523 <main+0x30c3>
    3523:	8b 85 cc d6 ff ff    	mov    -0x2934(%rbp),%eax
    3529:	83 f8 00             	cmp    $0x0,%eax
    352c:	74 60                	je     358e <main+0x312e>
    352e:	48 ba 00 00 00 00 00 	movabs $0x0,%rdx
    3535:	00 00 00 
    3538:	8b 85 5c e0 ff ff    	mov    -0x1fa4(%rbp),%eax
    353e:	83 c0 01             	add    $0x1,%eax
    3541:	89 85 5c e0 ff ff    	mov    %eax,-0x1fa4(%rbp)
    3547:	48 8b 34 25 00 00 00 	mov    0x0,%rsi
    354e:	00 
    354f:	48 8d bd f0 e2 ff ff 	lea    -0x1d10(%rbp),%rdi
    3556:	e8 f5 9d 03 00       	callq  3d350 <mbedtls_pk_parse_keyfile>
    355b:	89 85 9c ef ff ff    	mov    %eax,-0x1064(%rbp)
    3561:	83 f8 00             	cmp    $0x0,%eax
    3564:	74 26                	je     358c <main+0x312c>
    3566:	48 bf 00 00 00 00 00 	movabs $0x0,%rdi
    356d:	00 00 00 
    3570:	31 c0                	xor    %eax,%eax
    3572:	2b 85 9c ef ff ff    	sub    -0x1064(%rbp),%eax
    3578:	89 c6                	mov    %eax,%esi
    357a:	b0 00                	mov    $0x0,%al
    357c:	e8 00 00 00 00       	callq  3581 <main+0x3121>
    3581:	89 85 c8 d6 ff ff    	mov    %eax,-0x2938(%rbp)
    3587:	e9 d2 5d 00 00       	jmpq   935e <main+0x8efe>
    358c:	eb 00                	jmp    358e <main+0x312e>
    358e:	83 bd 5c e0 ff ff 01 	cmpl   $0x1,-0x1fa4(%rbp)
    3595:	75 1c                	jne    35b3 <main+0x3153>
    3597:	48 bf 00 00 00 00 00 	movabs $0x0,%rdi
    359e:	00 00 00 
    35a1:	b0 00                	mov    $0x0,%al
    35a3:	e8 00 00 00 00       	callq  35a8 <main+0x3148>
    35a8:	89 85 c4 d6 ff ff    	mov    %eax,-0x293c(%rbp)
    35ae:	e9 ab 5d 00 00       	jmpq   935e <main+0x8efe>
    35b3:	48 8b 04 25 00 00 00 	mov    0x0,%rax
    35ba:	00 
    35bb:	48 89 85 b8 d6 ff ff 	mov    %rax,-0x2948(%rbp)
    35c2:	e8 00 00 00 00       	callq  35c7 <main+0x3167>
    35c7:	48 8b bd b8 d6 ff ff 	mov    -0x2948(%rbp),%rdi
    35ce:	e8 00 00 00 00       	callq  35d3 <main+0x3173>
    35d3:	48 8b bd b8 d6 ff ff 	mov    -0x2948(%rbp),%rdi
    35da:	e8 00 00 00 00       	callq  35df <main+0x317f>
    35df:	48 8b bd b8 d6 ff ff 	mov    -0x2948(%rbp),%rdi
    35e6:	48 89 85 b0 d6 ff ff 	mov    %rax,-0x2950(%rbp)
    35ed:	e8 00 00 00 00       	callq  35f2 <main+0x3192>
    35f2:	48 8b 85 b0 d6 ff ff 	mov    -0x2950(%rbp),%rax
    35f9:	48 83 f8 00          	cmp    $0x0,%rax
    35fd:	0f 84 b7 00 00 00    	je     36ba <main+0x325a>
    3603:	48 be 00 00 00 00 00 	movabs $0x0,%rsi
    360a:	00 00 00 
    360d:	48 8b 04 25 00 00 00 	mov    0x0,%rax
    3614:	00 
    3615:	48 89 b5 a8 d6 ff ff 	mov    %rsi,-0x2958(%rbp)
    361c:	48 89 85 a0 d6 ff ff 	mov    %rax,-0x2960(%rbp)
    3623:	e8 00 00 00 00       	callq  3628 <main+0x31c8>
    3628:	48 8b bd a0 d6 ff ff 	mov    -0x2960(%rbp),%rdi
    362f:	e8 00 00 00 00       	callq  3634 <main+0x31d4>
    3634:	48 8b bd a0 d6 ff ff 	mov    -0x2960(%rbp),%rdi
    363b:	48 8b b5 a8 d6 ff ff 	mov    -0x2958(%rbp),%rsi
    3642:	e8 00 00 00 00       	callq  3647 <main+0x31e7>
    3647:	48 8b bd a0 d6 ff ff 	mov    -0x2960(%rbp),%rdi
    364e:	89 85 9c d6 ff ff    	mov    %eax,-0x2964(%rbp)
    3654:	e8 00 00 00 00       	callq  3659 <main+0x31f9>
    3659:	8b 85 9c d6 ff ff    	mov    -0x2964(%rbp),%eax
    365f:	83 f8 00             	cmp    $0x0,%eax
    3662:	74 56                	je     36ba <main+0x325a>
    3664:	8b 85 58 e0 ff ff    	mov    -0x1fa8(%rbp),%eax
    366a:	83 c0 01             	add    $0x1,%eax
    366d:	89 85 58 e0 ff ff    	mov    %eax,-0x1fa8(%rbp)
    3673:	48 8b 34 25 00 00 00 	mov    0x0,%rsi
    367a:	00 
    367b:	48 8d bd a0 e0 ff ff 	lea    -0x1f60(%rbp),%rdi
    3682:	e8 79 b2 01 00       	callq  1e900 <mbedtls_x509_crt_parse_file>
    3687:	89 85 9c ef ff ff    	mov    %eax,-0x1064(%rbp)
    368d:	83 f8 00             	cmp    $0x0,%eax
    3690:	74 26                	je     36b8 <main+0x3258>
    3692:	48 bf 00 00 00 00 00 	movabs $0x0,%rdi
    3699:	00 00 00 
    369c:	31 c0                	xor    %eax,%eax
    369e:	2b 85 9c ef ff ff    	sub    -0x1064(%rbp),%eax
    36a4:	89 c6                	mov    %eax,%esi
    36a6:	b0 00                	mov    $0x0,%al
    36a8:	e8 00 00 00 00       	callq  36ad <main+0x324d>
    36ad:	89 85 98 d6 ff ff    	mov    %eax,-0x2968(%rbp)
    36b3:	e9 a6 5c 00 00       	jmpq   935e <main+0x8efe>
    36b8:	eb 00                	jmp    36ba <main+0x325a>
    36ba:	48 8b 04 25 00 00 00 	mov    0x0,%rax
    36c1:	00 
    36c2:	48 89 85 90 d6 ff ff 	mov    %rax,-0x2970(%rbp)
    36c9:	e8 00 00 00 00       	callq  36ce <main+0x326e>
    36ce:	48 8b bd 90 d6 ff ff 	mov    -0x2970(%rbp),%rdi
    36d5:	e8 00 00 00 00       	callq  36da <main+0x327a>
    36da:	48 8b bd 90 d6 ff ff 	mov    -0x2970(%rbp),%rdi
    36e1:	e8 00 00 00 00       	callq  36e6 <main+0x3286>
    36e6:	48 8b bd 90 d6 ff ff 	mov    -0x2970(%rbp),%rdi
    36ed:	48 89 85 88 d6 ff ff 	mov    %rax,-0x2978(%rbp)
    36f4:	e8 00 00 00 00       	callq  36f9 <main+0x3299>
    36f9:	48 8b 85 88 d6 ff ff 	mov    -0x2978(%rbp),%rax
    3700:	48 83 f8 00          	cmp    $0x0,%rax
    3704:	0f 84 c1 00 00 00    	je     37cb <main+0x336b>
    370a:	48 be 00 00 00 00 00 	movabs $0x0,%rsi
    3711:	00 00 00 
    3714:	48 8b 04 25 00 00 00 	mov    0x0,%rax
    371b:	00 
    371c:	48 89 b5 80 d6 ff ff 	mov    %rsi,-0x2980(%rbp)
    3723:	48 89 85 78 d6 ff ff 	mov    %rax,-0x2988(%rbp)
    372a:	e8 00 00 00 00       	callq  372f <main+0x32cf>
    372f:	48 8b bd 78 d6 ff ff 	mov    -0x2988(%rbp),%rdi
    3736:	e8 00 00 00 00       	callq  373b <main+0x32db>
    373b:	48 8b bd 78 d6 ff ff 	mov    -0x2988(%rbp),%rdi
    3742:	48 8b b5 80 d6 ff ff 	mov    -0x2980(%rbp),%rsi
    3749:	e8 00 00 00 00       	callq  374e <main+0x32ee>
    374e:	48 8b bd 78 d6 ff ff 	mov    -0x2988(%rbp),%rdi
    3755:	89 85 74 d6 ff ff    	mov    %eax,-0x298c(%rbp)
    375b:	e8 00 00 00 00       	callq  3760 <main+0x3300>
    3760:	8b 85 74 d6 ff ff    	mov    -0x298c(%rbp),%eax
    3766:	83 f8 00             	cmp    $0x0,%eax
    3769:	74 60                	je     37cb <main+0x336b>
    376b:	48 ba 00 00 00 00 00 	movabs $0x0,%rdx
    3772:	00 00 00 
    3775:	8b 85 58 e0 ff ff    	mov    -0x1fa8(%rbp),%eax
    377b:	83 c0 01             	add    $0x1,%eax
    377e:	89 85 58 e0 ff ff    	mov    %eax,-0x1fa8(%rbp)
    3784:	48 8b 34 25 00 00 00 	mov    0x0,%rsi
    378b:	00 
    378c:	48 8d bd 60 e0 ff ff 	lea    -0x1fa0(%rbp),%rdi
    3793:	e8 b8 9b 03 00       	callq  3d350 <mbedtls_pk_parse_keyfile>
    3798:	89 85 9c ef ff ff    	mov    %eax,-0x1064(%rbp)
    379e:	83 f8 00             	cmp    $0x0,%eax
    37a1:	74 26                	je     37c9 <main+0x3369>
    37a3:	48 bf 00 00 00 00 00 	movabs $0x0,%rdi
    37aa:	00 00 00 
    37ad:	31 c0                	xor    %eax,%eax
    37af:	2b 85 9c ef ff ff    	sub    -0x1064(%rbp),%eax
    37b5:	89 c6                	mov    %eax,%esi
    37b7:	b0 00                	mov    $0x0,%al
    37b9:	e8 00 00 00 00       	callq  37be <main+0x335e>
    37be:	89 85 70 d6 ff ff    	mov    %eax,-0x2990(%rbp)
    37c4:	e9 95 5b 00 00       	jmpq   935e <main+0x8efe>
    37c9:	eb 00                	jmp    37cb <main+0x336b>
    37cb:	83 bd 58 e0 ff ff 01 	cmpl   $0x1,-0x1fa8(%rbp)
    37d2:	75 1c                	jne    37f0 <main+0x3390>
    37d4:	48 bf 00 00 00 00 00 	movabs $0x0,%rdi
    37db:	00 00 00 
    37de:	b0 00                	mov    $0x0,%al
    37e0:	e8 00 00 00 00       	callq  37e5 <main+0x3385>
    37e5:	89 85 6c d6 ff ff    	mov    %eax,-0x2994(%rbp)
    37eb:	e9 6e 5b 00 00       	jmpq   935e <main+0x8efe>
    37f0:	83 bd 5c e0 ff ff 00 	cmpl   $0x0,-0x1fa4(%rbp)
    37f7:	0f 85 5b 02 00 00    	jne    3a58 <main+0x35f8>
    37fd:	48 be 00 00 00 00 00 	movabs $0x0,%rsi
    3804:	00 00 00 
    3807:	48 8b 04 25 00 00 00 	mov    0x0,%rax
    380e:	00 
    380f:	48 89 b5 60 d6 ff ff 	mov    %rsi,-0x29a0(%rbp)
    3816:	48 89 85 58 d6 ff ff 	mov    %rax,-0x29a8(%rbp)
    381d:	e8 00 00 00 00       	callq  3822 <main+0x33c2>
    3822:	48 8b bd 58 d6 ff ff 	mov    -0x29a8(%rbp),%rdi
    3829:	e8 00 00 00 00       	callq  382e <main+0x33ce>
    382e:	48 8b bd 58 d6 ff ff 	mov    -0x29a8(%rbp),%rdi
    3835:	48 8b b5 60 d6 ff ff 	mov    -0x29a0(%rbp),%rsi
    383c:	e8 00 00 00 00       	callq  3841 <main+0x33e1>
    3841:	48 8b bd 58 d6 ff ff 	mov    -0x29a8(%rbp),%rdi
    3848:	89 85 54 d6 ff ff    	mov    %eax,-0x29ac(%rbp)
    384e:	e8 00 00 00 00       	callq  3853 <main+0x33f3>
    3853:	8b 85 54 d6 ff ff    	mov    -0x29ac(%rbp),%eax
    3859:	83 f8 00             	cmp    $0x0,%eax
    385c:	0f 84 f6 01 00 00    	je     3a58 <main+0x35f8>
    3862:	48 be 00 00 00 00 00 	movabs $0x0,%rsi
    3869:	00 00 00 
    386c:	48 8b 04 25 00 00 00 	mov    0x0,%rax
    3873:	00 
    3874:	48 89 b5 48 d6 ff ff 	mov    %rsi,-0x29b8(%rbp)
    387b:	48 89 85 40 d6 ff ff 	mov    %rax,-0x29c0(%rbp)
    3882:	e8 00 00 00 00       	callq  3887 <main+0x3427>
    3887:	48 8b bd 40 d6 ff ff 	mov    -0x29c0(%rbp),%rdi
    388e:	e8 00 00 00 00       	callq  3893 <main+0x3433>
    3893:	48 8b bd 40 d6 ff ff 	mov    -0x29c0(%rbp),%rdi
    389a:	48 8b b5 48 d6 ff ff 	mov    -0x29b8(%rbp),%rsi
    38a1:	e8 00 00 00 00       	callq  38a6 <main+0x3446>
    38a6:	48 8b bd 40 d6 ff ff 	mov    -0x29c0(%rbp),%rdi
    38ad:	89 85 3c d6 ff ff    	mov    %eax,-0x29c4(%rbp)
    38b3:	e8 00 00 00 00       	callq  38b8 <main+0x3458>
    38b8:	8b 85 3c d6 ff ff    	mov    -0x29c4(%rbp),%eax
    38be:	83 f8 00             	cmp    $0x0,%eax
    38c1:	0f 84 91 01 00 00    	je     3a58 <main+0x35f8>
    38c7:	83 bd 58 e0 ff ff 00 	cmpl   $0x0,-0x1fa8(%rbp)
    38ce:	0f 85 84 01 00 00    	jne    3a58 <main+0x35f8>
    38d4:	48 be 00 00 00 00 00 	movabs $0x0,%rsi
    38db:	00 00 00 
    38de:	48 8b 04 25 00 00 00 	mov    0x0,%rax
    38e5:	00 
    38e6:	48 89 b5 30 d6 ff ff 	mov    %rsi,-0x29d0(%rbp)
    38ed:	48 89 85 28 d6 ff ff 	mov    %rax,-0x29d8(%rbp)
    38f4:	e8 00 00 00 00       	callq  38f9 <main+0x3499>
    38f9:	48 8b bd 28 d6 ff ff 	mov    -0x29d8(%rbp),%rdi
    3900:	e8 00 00 00 00       	callq  3905 <main+0x34a5>
    3905:	48 8b bd 28 d6 ff ff 	mov    -0x29d8(%rbp),%rdi
    390c:	48 8b b5 30 d6 ff ff 	mov    -0x29d0(%rbp),%rsi
    3913:	e8 00 00 00 00       	callq  3918 <main+0x34b8>
    3918:	48 8b bd 28 d6 ff ff 	mov    -0x29d8(%rbp),%rdi
    391f:	89 85 24 d6 ff ff    	mov    %eax,-0x29dc(%rbp)
    3925:	e8 00 00 00 00       	callq  392a <main+0x34ca>
    392a:	8b 85 24 d6 ff ff    	mov    -0x29dc(%rbp),%eax
    3930:	83 f8 00             	cmp    $0x0,%eax
    3933:	0f 84 1f 01 00 00    	je     3a58 <main+0x35f8>
    3939:	48 be 00 00 00 00 00 	movabs $0x0,%rsi
    3940:	00 00 00 
    3943:	48 8b 04 25 00 00 00 	mov    0x0,%rax
    394a:	00 
    394b:	48 89 b5 18 d6 ff ff 	mov    %rsi,-0x29e8(%rbp)
    3952:	48 89 85 10 d6 ff ff 	mov    %rax,-0x29f0(%rbp)
    3959:	e8 00 00 00 00       	callq  395e <main+0x34fe>
    395e:	48 8b bd 10 d6 ff ff 	mov    -0x29f0(%rbp),%rdi
    3965:	e8 00 00 00 00       	callq  396a <main+0x350a>
    396a:	48 8b bd 10 d6 ff ff 	mov    -0x29f0(%rbp),%rdi
    3971:	48 8b b5 18 d6 ff ff 	mov    -0x29e8(%rbp),%rsi
    3978:	e8 00 00 00 00       	callq  397d <main+0x351d>
    397d:	48 8b bd 10 d6 ff ff 	mov    -0x29f0(%rbp),%rdi
    3984:	89 85 0c d6 ff ff    	mov    %eax,-0x29f4(%rbp)
    398a:	e8 00 00 00 00       	callq  398f <main+0x352f>
    398f:	8b 85 0c d6 ff ff    	mov    -0x29f4(%rbp),%eax
    3995:	83 f8 00             	cmp    $0x0,%eax
    3998:	0f 84 ba 00 00 00    	je     3a58 <main+0x35f8>
    399e:	48 be 00 00 00 00 00 	movabs $0x0,%rsi
    39a5:	00 00 00 
    39a8:	48 8b 14 25 00 00 00 	mov    0x0,%rdx
    39af:	00 
    39b0:	48 8d bd 50 e3 ff ff 	lea    -0x1cb0(%rbp),%rdi
    39b7:	e8 44 aa 01 00       	callq  1e400 <mbedtls_x509_crt_parse>
    39bc:	89 85 9c ef ff ff    	mov    %eax,-0x1064(%rbp)
    39c2:	83 f8 00             	cmp    $0x0,%eax
    39c5:	74 26                	je     39ed <main+0x358d>
    39c7:	48 bf 00 00 00 00 00 	movabs $0x0,%rdi
    39ce:	00 00 00 
    39d1:	31 c0                	xor    %eax,%eax
    39d3:	2b 85 9c ef ff ff    	sub    -0x1064(%rbp),%eax
    39d9:	89 c6                	mov    %eax,%esi
    39db:	b0 00                	mov    $0x0,%al
    39dd:	e8 00 00 00 00       	callq  39e2 <main+0x3582>
    39e2:	89 85 08 d6 ff ff    	mov    %eax,-0x29f8(%rbp)
    39e8:	e9 71 59 00 00       	jmpq   935e <main+0x8efe>
    39ed:	31 c0                	xor    %eax,%eax
    39ef:	89 c1                	mov    %eax,%ecx
    39f1:	48 be 00 00 00 00 00 	movabs $0x0,%rsi
    39f8:	00 00 00 
    39fb:	48 8b 14 25 00 00 00 	mov    0x0,%rdx
    3a02:	00 
    3a03:	48 8d bd f0 e2 ff ff 	lea    -0x1d10(%rbp),%rdi
    3a0a:	48 89 8d 00 d6 ff ff 	mov    %rcx,-0x2a00(%rbp)
    3a11:	4c 8b 85 00 d6 ff ff 	mov    -0x2a00(%rbp),%r8
    3a18:	e8 d3 9a 03 00       	callq  3d4f0 <mbedtls_pk_parse_key>
    3a1d:	89 85 9c ef ff ff    	mov    %eax,-0x1064(%rbp)
    3a23:	83 f8 00             	cmp    $0x0,%eax
    3a26:	74 26                	je     3a4e <main+0x35ee>
    3a28:	48 bf 00 00 00 00 00 	movabs $0x0,%rdi
    3a2f:	00 00 00 
    3a32:	31 c0                	xor    %eax,%eax
    3a34:	2b 85 9c ef ff ff    	sub    -0x1064(%rbp),%eax
    3a3a:	89 c6                	mov    %eax,%esi
    3a3c:	b0 00                	mov    $0x0,%al
    3a3e:	e8 00 00 00 00       	callq  3a43 <main+0x35e3>
    3a43:	89 85 fc d5 ff ff    	mov    %eax,-0x2a04(%rbp)
    3a49:	e9 10 59 00 00       	jmpq   935e <main+0x8efe>
    3a4e:	c7 85 5c e0 ff ff 02 	movl   $0x2,-0x1fa4(%rbp)
    3a55:	00 00 00 
    3a58:	48 bf 00 00 00 00 00 	movabs $0x0,%rdi
    3a5f:	00 00 00 
    3a62:	b0 00                	mov    $0x0,%al
    3a64:	e8 00 00 00 00       	callq  3a69 <main+0x3609>
    3a69:	48 bf 00 00 00 00 00 	movabs $0x0,%rdi
    3a70:	00 00 00 
    3a73:	48 b9 00 00 00 00 00 	movabs $0x0,%rcx
    3a7a:	00 00 00 
    3a7d:	8b 14 25 00 00 00 00 	mov    0x0,%edx
    3a84:	83 fa 00             	cmp    $0x0,%edx
    3a87:	48 0f 44 f9          	cmove  %rcx,%rdi
    3a8b:	48 83 3c 25 00 00 00 	cmpq   $0x0,0x0
    3a92:	00 00 
    3a94:	89 85 f8 d5 ff ff    	mov    %eax,-0x2a08(%rbp)
    3a9a:	48 89 bd f0 d5 ff ff 	mov    %rdi,-0x2a10(%rbp)
    3aa1:	74 11                	je     3ab4 <main+0x3654>
    3aa3:	48 8b 04 25 00 00 00 	mov    0x0,%rax
    3aaa:	00 
    3aab:	48 89 85 e8 d5 ff ff 	mov    %rax,-0x2a18(%rbp)
    3ab2:	eb 11                	jmp    3ac5 <main+0x3665>
    3ab4:	48 b8 00 00 00 00 00 	movabs $0x0,%rax
    3abb:	00 00 00 
    3abe:	48 89 85 e8 d5 ff ff 	mov    %rax,-0x2a18(%rbp)
    3ac5:	48 8b 85 e8 d5 ff ff 	mov    -0x2a18(%rbp),%rax
    3acc:	48 bf 00 00 00 00 00 	movabs $0x0,%rdi
    3ad3:	00 00 00 
    3ad6:	48 8b 0c 25 00 00 00 	mov    0x0,%rcx
    3add:	00 
    3ade:	48 8b b5 f0 d5 ff ff 	mov    -0x2a10(%rbp),%rsi
    3ae5:	48 89 c2             	mov    %rax,%rdx
    3ae8:	b0 00                	mov    $0x0,%al
    3aea:	e8 00 00 00 00       	callq  3aef <main+0x368f>
    3aef:	48 8b 3c 25 00 00 00 	mov    0x0,%rdi
    3af6:	00 
    3af7:	89 85 e4 d5 ff ff    	mov    %eax,-0x2a1c(%rbp)
    3afd:	e8 00 00 00 00       	callq  3b02 <main+0x36a2>
    3b02:	41 b8 01 00 00 00    	mov    $0x1,%r8d
    3b08:	44 89 c6             	mov    %r8d,%esi
    3b0b:	45 31 c0             	xor    %r8d,%r8d
    3b0e:	48 8b 0c 25 00 00 00 	mov    0x0,%rcx
    3b15:	00 
    3b16:	48 8b 14 25 00 00 00 	mov    0x0,%rdx
    3b1d:	00 
    3b1e:	44 8b 0c 25 00 00 00 	mov    0x0,%r9d
    3b25:	00 
    3b26:	41 83 f9 00          	cmp    $0x0,%r9d
    3b2a:	41 b9 01 00 00 00    	mov    $0x1,%r9d
    3b30:	45 0f 44 c8          	cmove  %r8d,%r9d
    3b34:	48 bf 00 00 00 00 00 	movabs $0x0,%rdi
    3b3b:	00 00 00 
    3b3e:	48 89 bd 10 f7 ff ff 	mov    %rdi,-0x8f0(%rbp)
    3b45:	48 89 8d 08 f7 ff ff 	mov    %rcx,-0x8f8(%rbp)
    3b4c:	48 89 95 00 f7 ff ff 	mov    %rdx,-0x900(%rbp)
    3b53:	44 89 8d fc f6 ff ff 	mov    %r9d,-0x904(%rbp)
    3b5a:	bf 0d 00 00 00       	mov    $0xd,%edi
    3b5f:	89 85 e0 d5 ff ff    	mov    %eax,-0x2a20(%rbp)
    3b65:	e8 00 00 00 00       	callq  3b6a <main+0x370a>
    3b6a:	31 f6                	xor    %esi,%esi
    3b6c:	bf 30 00 00 00       	mov    $0x30,%edi
    3b71:	89 fa                	mov    %edi,%edx
    3b73:	c7 85 f4 f6 ff ff 00 	movl   $0x0,-0x90c(%rbp)
    3b7a:	00 00 00 
    3b7d:	48 8d 8d c0 f6 ff ff 	lea    -0x940(%rbp),%rcx
    3b84:	48 89 cf             	mov    %rcx,%rdi
    3b87:	48 89 85 d8 d5 ff ff 	mov    %rax,-0x2a28(%rbp)
    3b8e:	e8 00 00 00 00       	callq  3b93 <main+0x3733>
    3b93:	c7 85 c4 f6 ff ff 00 	movl   $0x0,-0x93c(%rbp)
    3b9a:	00 00 00 
    3b9d:	8b b5 fc f6 ff ff    	mov    -0x904(%rbp),%esi
    3ba3:	83 fe 01             	cmp    $0x1,%esi
    3ba6:	be 02 00 00 00       	mov    $0x2,%esi
    3bab:	41 b8 01 00 00 00    	mov    $0x1,%r8d
    3bb1:	44 0f 44 c6          	cmove  %esi,%r8d
    3bb5:	44 89 85 c8 f6 ff ff 	mov    %r8d,-0x938(%rbp)
    3bbc:	8b b5 fc f6 ff ff    	mov    -0x904(%rbp),%esi
    3bc2:	83 fe 01             	cmp    $0x1,%esi
    3bc5:	be 11 00 00 00       	mov    $0x11,%esi
    3bca:	41 b8 06 00 00 00    	mov    $0x6,%r8d
    3bd0:	44 0f 44 c6          	cmove  %esi,%r8d
    3bd4:	44 89 85 cc f6 ff ff 	mov    %r8d,-0x934(%rbp)
    3bdb:	48 83 bd 08 f7 ff ff 	cmpq   $0x0,-0x8f8(%rbp)
    3be2:	00 
    3be3:	75 0a                	jne    3bef <main+0x378f>
    3be5:	c7 85 c0 f6 ff ff 01 	movl   $0x1,-0x940(%rbp)
    3bec:	00 00 00 
    3bef:	48 8b bd 08 f7 ff ff 	mov    -0x8f8(%rbp),%rdi
    3bf6:	48 8b b5 00 f7 ff ff 	mov    -0x900(%rbp),%rsi
    3bfd:	48 8d 95 c0 f6 ff ff 	lea    -0x940(%rbp),%rdx
    3c04:	48 8d 8d b8 f6 ff ff 	lea    -0x948(%rbp),%rcx
    3c0b:	e8 00 00 00 00       	callq  3c10 <main+0x37b0>
    3c10:	83 f8 00             	cmp    $0x0,%eax
    3c13:	74 0f                	je     3c24 <main+0x37c4>
    3c15:	c7 85 18 f7 ff ff ae 	movl   $0xffffffae,-0x8e8(%rbp)
    3c1c:	ff ff ff 
    3c1f:	e9 8d 01 00 00       	jmpq   3db1 <main+0x3951>
    3c24:	c7 85 f4 f6 ff ff ae 	movl   $0xffffffae,-0x90c(%rbp)
    3c2b:	ff ff ff 
    3c2e:	48 8b 85 b8 f6 ff ff 	mov    -0x948(%rbp),%rax
    3c35:	48 89 85 b0 f6 ff ff 	mov    %rax,-0x950(%rbp)
    3c3c:	48 83 bd b0 f6 ff ff 	cmpq   $0x0,-0x950(%rbp)
    3c43:	00 
    3c44:	0f 84 4f 01 00 00    	je     3d99 <main+0x3939>
    3c4a:	48 8b 85 b0 f6 ff ff 	mov    -0x950(%rbp),%rax
    3c51:	8b 78 04             	mov    0x4(%rax),%edi
    3c54:	48 8b 85 b0 f6 ff ff 	mov    -0x950(%rbp),%rax
    3c5b:	8b 70 08             	mov    0x8(%rax),%esi
    3c5e:	48 8b 85 b0 f6 ff ff 	mov    -0x950(%rbp),%rax
    3c65:	8b 50 0c             	mov    0xc(%rax),%edx
    3c68:	e8 00 00 00 00       	callq  3c6d <main+0x380d>
    3c6d:	48 8b 8d 10 f7 ff ff 	mov    -0x8f0(%rbp),%rcx
    3c74:	89 01                	mov    %eax,(%rcx)
    3c76:	48 8b 8d 10 f7 ff ff 	mov    -0x8f0(%rbp),%rcx
    3c7d:	83 39 00             	cmpl   $0x0,(%rcx)
    3c80:	7d 0f                	jge    3c91 <main+0x3831>
    3c82:	c7 85 f4 f6 ff ff be 	movl   $0xffffffbe,-0x90c(%rbp)
    3c89:	ff ff ff 
    3c8c:	e9 f1 00 00 00       	jmpq   3d82 <main+0x3922>
    3c91:	c7 85 f8 f6 ff ff 01 	movl   $0x1,-0x908(%rbp)
    3c98:	00 00 00 
    3c9b:	48 8b 85 10 f7 ff ff 	mov    -0x8f0(%rbp),%rax
    3ca2:	8b 38                	mov    (%rax),%edi
    3ca4:	48 8d 85 f8 f6 ff ff 	lea    -0x908(%rbp),%rax
    3cab:	be 01 00 00 00       	mov    $0x1,%esi
    3cb0:	ba 02 00 00 00       	mov    $0x2,%edx
    3cb5:	48 89 c1             	mov    %rax,%rcx
    3cb8:	41 b8 04 00 00 00    	mov    $0x4,%r8d
    3cbe:	e8 00 00 00 00       	callq  3cc3 <main+0x3863>
    3cc3:	83 f8 00             	cmp    $0x0,%eax
    3cc6:	74 23                	je     3ceb <main+0x388b>
    3cc8:	48 8b 85 10 f7 ff ff 	mov    -0x8f0(%rbp),%rax
    3ccf:	8b 38                	mov    (%rax),%edi
    3cd1:	e8 00 00 00 00       	callq  3cd6 <main+0x3876>
    3cd6:	c7 85 f4 f6 ff ff be 	movl   $0xffffffbe,-0x90c(%rbp)
    3cdd:	ff ff ff 
    3ce0:	89 85 d4 d5 ff ff    	mov    %eax,-0x2a2c(%rbp)
    3ce6:	e9 97 00 00 00       	jmpq   3d82 <main+0x3922>
    3ceb:	48 8b 85 10 f7 ff ff 	mov    -0x8f0(%rbp),%rax
    3cf2:	8b 38                	mov    (%rax),%edi
    3cf4:	48 8b 85 b0 f6 ff ff 	mov    -0x950(%rbp),%rax
    3cfb:	48 8b 70 18          	mov    0x18(%rax),%rsi
    3cff:	48 8b 85 b0 f6 ff ff 	mov    -0x950(%rbp),%rax
    3d06:	8b 50 10             	mov    0x10(%rax),%edx
    3d09:	e8 00 00 00 00       	callq  3d0e <main+0x38ae>
    3d0e:	83 f8 00             	cmp    $0x0,%eax
    3d11:	74 20                	je     3d33 <main+0x38d3>
    3d13:	48 8b 85 10 f7 ff ff 	mov    -0x8f0(%rbp),%rax
    3d1a:	8b 38                	mov    (%rax),%edi
    3d1c:	e8 00 00 00 00       	callq  3d21 <main+0x38c1>
    3d21:	c7 85 f4 f6 ff ff ba 	movl   $0xffffffba,-0x90c(%rbp)
    3d28:	ff ff ff 
    3d2b:	89 85 d0 d5 ff ff    	mov    %eax,-0x2a30(%rbp)
    3d31:	eb 4f                	jmp    3d82 <main+0x3922>
    3d33:	83 bd fc f6 ff ff 00 	cmpl   $0x0,-0x904(%rbp)
    3d3a:	75 3a                	jne    3d76 <main+0x3916>
    3d3c:	48 8b 85 10 f7 ff ff 	mov    -0x8f0(%rbp),%rax
    3d43:	8b 38                	mov    (%rax),%edi
    3d45:	be 0a 00 00 00       	mov    $0xa,%esi
    3d4a:	e8 00 00 00 00       	callq  3d4f <main+0x38ef>
    3d4f:	83 f8 00             	cmp    $0x0,%eax
    3d52:	74 20                	je     3d74 <main+0x3914>
    3d54:	48 8b 85 10 f7 ff ff 	mov    -0x8f0(%rbp),%rax
    3d5b:	8b 38                	mov    (%rax),%edi
    3d5d:	e8 00 00 00 00       	callq  3d62 <main+0x3902>
    3d62:	c7 85 f4 f6 ff ff b8 	movl   $0xffffffb8,-0x90c(%rbp)
    3d69:	ff ff ff 
    3d6c:	89 85 cc d5 ff ff    	mov    %eax,-0x2a34(%rbp)
    3d72:	eb 0e                	jmp    3d82 <main+0x3922>
    3d74:	eb 00                	jmp    3d76 <main+0x3916>
    3d76:	c7 85 f4 f6 ff ff 00 	movl   $0x0,-0x90c(%rbp)
    3d7d:	00 00 00 
    3d80:	eb 17                	jmp    3d99 <main+0x3939>
    3d82:	48 8b 85 b0 f6 ff ff 	mov    -0x950(%rbp),%rax
    3d89:	48 8b 40 28          	mov    0x28(%rax),%rax
    3d8d:	48 89 85 b0 f6 ff ff 	mov    %rax,-0x950(%rbp)
    3d94:	e9 a3 fe ff ff       	jmpq   3c3c <main+0x37dc>
    3d99:	48 8b bd b8 f6 ff ff 	mov    -0x948(%rbp),%rdi
    3da0:	e8 00 00 00 00       	callq  3da5 <main+0x3945>
    3da5:	8b 85 f4 f6 ff ff    	mov    -0x90c(%rbp),%eax
    3dab:	89 85 18 f7 ff ff    	mov    %eax,-0x8e8(%rbp)
    3db1:	8b 85 18 f7 ff ff    	mov    -0x8e8(%rbp),%eax
    3db7:	89 85 9c ef ff ff    	mov    %eax,-0x1064(%rbp)
    3dbd:	83 f8 00             	cmp    $0x0,%eax
    3dc0:	74 26                	je     3de8 <main+0x3988>
    3dc2:	48 bf 00 00 00 00 00 	movabs $0x0,%rdi
    3dc9:	00 00 00 
    3dcc:	31 c0                	xor    %eax,%eax
    3dce:	2b 85 9c ef ff ff    	sub    -0x1064(%rbp),%eax
    3dd4:	89 c6                	mov    %eax,%esi
    3dd6:	b0 00                	mov    $0x0,%al
    3dd8:	e8 00 00 00 00       	callq  3ddd <main+0x397d>
    3ddd:	89 85 c8 d5 ff ff    	mov    %eax,-0x2a38(%rbp)
    3de3:	e9 76 55 00 00       	jmpq   935e <main+0x8efe>
    3de8:	48 bf 00 00 00 00 00 	movabs $0x0,%rdi
    3def:	00 00 00 
    3df2:	b0 00                	mov    $0x0,%al
    3df4:	e8 00 00 00 00       	callq  3df9 <main+0x3999>
    3df9:	48 bf 00 00 00 00 00 	movabs $0x0,%rdi
    3e00:	00 00 00 
    3e03:	89 85 c4 d5 ff ff    	mov    %eax,-0x2a3c(%rbp)
    3e09:	b0 00                	mov    $0x0,%al
    3e0b:	e8 00 00 00 00       	callq  3e10 <main+0x39b0>
    3e10:	48 8b 3c 25 00 00 00 	mov    0x0,%rdi
    3e17:	00 
    3e18:	89 85 c0 d5 ff ff    	mov    %eax,-0x2a40(%rbp)
    3e1e:	e8 00 00 00 00       	callq  3e23 <main+0x39c3>
    3e23:	8b 0c 25 00 00 00 00 	mov    0x0,%ecx
    3e2a:	48 8d bd 00 e8 ff ff 	lea    -0x1800(%rbp),%rdi
    3e31:	48 89 bd 28 f7 ff ff 	mov    %rdi,-0x8d8(%rbp)
    3e38:	c7 85 24 f7 ff ff 01 	movl   $0x1,-0x8dc(%rbp)
    3e3f:	00 00 00 
    3e42:	89 8d 20 f7 ff ff    	mov    %ecx,-0x8e0(%rbp)
    3e48:	c7 85 1c f7 ff ff 00 	movl   $0x0,-0x8e4(%rbp)
    3e4f:	00 00 00 
    3e52:	48 8b bd 28 f7 ff ff 	mov    -0x8d8(%rbp),%rdi
    3e59:	8b 8d 24 f7 ff ff    	mov    -0x8dc(%rbp),%ecx
    3e5f:	48 89 bd 38 f7 ff ff 	mov    %rdi,-0x8c8(%rbp)
    3e66:	89 8d 34 f7 ff ff    	mov    %ecx,-0x8cc(%rbp)
    3e6c:	8b 8d 34 f7 ff ff    	mov    -0x8cc(%rbp),%ecx
    3e72:	48 8b bd 38 f7 ff ff 	mov    -0x8c8(%rbp),%rdi
    3e79:	88 ca                	mov    %cl,%dl
    3e7b:	40 8a b7 98 00 00 00 	mov    0x98(%rdi),%sil
    3e82:	80 e2 01             	and    $0x1,%dl
    3e85:	40 80 e6 fe          	and    $0xfe,%sil
    3e89:	40 08 d6             	or     %dl,%sil
    3e8c:	40 88 b7 98 00 00 00 	mov    %sil,0x98(%rdi)
    3e93:	48 8b bd 28 f7 ff ff 	mov    -0x8d8(%rbp),%rdi
    3e9a:	8b 8d 20 f7 ff ff    	mov    -0x8e0(%rbp),%ecx
    3ea0:	48 89 bd 70 f7 ff ff 	mov    %rdi,-0x890(%rbp)
    3ea7:	89 8d 6c f7 ff ff    	mov    %ecx,-0x894(%rbp)
    3ead:	8b 8d 6c f7 ff ff    	mov    -0x894(%rbp),%ecx
    3eb3:	48 8b bd 70 f7 ff ff 	mov    -0x890(%rbp),%rdi
    3eba:	88 ca                	mov    %cl,%dl
    3ebc:	40 8a b7 98 00 00 00 	mov    0x98(%rdi),%sil
    3ec3:	80 e2 01             	and    $0x1,%dl
    3ec6:	c0 e2 01             	shl    $0x1,%dl
    3ec9:	40 80 e6 fd          	and    $0xfd,%sil
    3ecd:	40 08 d6             	or     %dl,%sil
    3ed0:	40 88 b7 98 00 00 00 	mov    %sil,0x98(%rdi)
    3ed7:	83 bd 24 f7 ff ff 00 	cmpl   $0x0,-0x8dc(%rbp)
    3ede:	89 85 bc d5 ff ff    	mov    %eax,-0x2a44(%rbp)
    3ee4:	75 19                	jne    3eff <main+0x3a9f>
    3ee6:	48 8b 85 28 f7 ff ff 	mov    -0x8d8(%rbp),%rax
    3eed:	8a 88 98 00 00 00    	mov    0x98(%rax),%cl
    3ef3:	80 e1 f3             	and    $0xf3,%cl
    3ef6:	80 c9 08             	or     $0x8,%cl
    3ef9:	88 88 98 00 00 00    	mov    %cl,0x98(%rax)
    3eff:	48 8b 85 28 f7 ff ff 	mov    -0x8d8(%rbp),%rax
    3f06:	8a 88 98 00 00 00    	mov    0x98(%rax),%cl
    3f0c:	80 e1 bf             	and    $0xbf,%cl
    3f0f:	80 c9 40             	or     $0x40,%cl
    3f12:	88 88 98 00 00 00    	mov    %cl,0x98(%rax)
    3f18:	83 bd 1c f7 ff ff 02 	cmpl   $0x2,-0x8e4(%rbp)
    3f1f:	0f 85 9f 00 00 00    	jne    3fc4 <main+0x3b64>
    3f25:	48 b8 00 00 00 00 00 	movabs $0x0,%rax
    3f2c:	00 00 00 
    3f2f:	48 b9 00 00 00 00 00 	movabs $0x0,%rcx
    3f36:	00 00 00 
    3f39:	48 8b 95 28 f7 ff ff 	mov    -0x8d8(%rbp),%rdx
    3f40:	c6 82 96 00 00 00 03 	movb   $0x3,0x96(%rdx)
    3f47:	48 8b 95 28 f7 ff ff 	mov    -0x8d8(%rbp),%rdx
    3f4e:	c6 82 97 00 00 00 03 	movb   $0x3,0x97(%rdx)
    3f55:	48 8b 95 28 f7 ff ff 	mov    -0x8d8(%rbp),%rdx
    3f5c:	c6 82 94 00 00 00 03 	movb   $0x3,0x94(%rdx)
    3f63:	48 8b 95 28 f7 ff ff 	mov    -0x8d8(%rbp),%rdx
    3f6a:	c6 82 95 00 00 00 02 	movb   $0x2,0x95(%rdx)
    3f71:	48 8b 95 28 f7 ff ff 	mov    -0x8d8(%rbp),%rdx
    3f78:	48 89 4a 18          	mov    %rcx,0x18(%rdx)
    3f7c:	48 8b 95 28 f7 ff ff 	mov    -0x8d8(%rbp),%rdx
    3f83:	48 89 4a 10          	mov    %rcx,0x10(%rdx)
    3f87:	48 8b 95 28 f7 ff ff 	mov    -0x8d8(%rbp),%rdx
    3f8e:	48 89 4a 08          	mov    %rcx,0x8(%rdx)
    3f92:	48 8b 95 28 f7 ff ff 	mov    -0x8d8(%rbp),%rdx
    3f99:	48 89 0a             	mov    %rcx,(%rdx)
    3f9c:	48 8b 8d 28 f7 ff ff 	mov    -0x8d8(%rbp),%rcx
    3fa3:	48 ba 00 00 00 00 00 	movabs $0x0,%rdx
    3faa:	00 00 00 
    3fad:	48 89 51 68          	mov    %rdx,0x68(%rcx)
    3fb1:	48 8b 8d 28 f7 ff ff 	mov    -0x8d8(%rbp),%rcx
    3fb8:	48 89 81 88 00 00 00 	mov    %rax,0x88(%rcx)
    3fbf:	e9 d8 01 00 00       	jmpq   419c <main+0x3d3c>
    3fc4:	48 8b 85 28 f7 ff ff 	mov    -0x8d8(%rbp),%rax
    3fcb:	c6 80 96 00 00 00 03 	movb   $0x3,0x96(%rax)
    3fd2:	48 8b 85 28 f7 ff ff 	mov    -0x8d8(%rbp),%rax
    3fd9:	c6 80 97 00 00 00 02 	movb   $0x2,0x97(%rax)
    3fe0:	48 8b 85 28 f7 ff ff 	mov    -0x8d8(%rbp),%rax
    3fe7:	c6 80 94 00 00 00 03 	movb   $0x3,0x94(%rax)
    3fee:	48 8b 85 28 f7 ff ff 	mov    -0x8d8(%rbp),%rax
    3ff5:	c6 80 95 00 00 00 02 	movb   $0x2,0x95(%rax)
    3ffc:	83 3c 25 00 00 00 00 	cmpl   $0x0,0x0
    4003:	00 
    4004:	0f 85 30 01 00 00    	jne    413a <main+0x3cda>
    400a:	48 b8 00 00 00 00 00 	movabs $0x0,%rax
    4011:	00 00 00 
    4014:	48 b9 00 00 00 00 00 	movabs $0x0,%rcx
    401b:	00 00 00 
    401e:	48 89 8d 48 f7 ff ff 	mov    %rcx,-0x8b8(%rbp)
    4025:	48 89 85 40 f7 ff ff 	mov    %rax,-0x8c0(%rbp)
    402c:	31 c0                	xor    %eax,%eax
    402e:	88 c1                	mov    %al,%cl
    4030:	48 8b 95 48 f7 ff ff 	mov    -0x8b8(%rbp),%rdx
    4037:	83 3a 00             	cmpl   $0x0,(%rdx)
    403a:	88 8d bb d5 ff ff    	mov    %cl,-0x2a45(%rbp)
    4040:	74 21                	je     4063 <main+0x3c03>
    4042:	48 8b 85 40 f7 ff ff 	mov    -0x8c0(%rbp),%rax
    4049:	48 b9 00 00 00 00 00 	movabs $0x0,%rcx
    4050:	00 00 00 
    4053:	48 83 c1 14          	add    $0x14,%rcx
    4057:	48 39 c8             	cmp    %rcx,%rax
    405a:	0f 92 c2             	setb   %dl
    405d:	88 95 bb d5 ff ff    	mov    %dl,-0x2a45(%rbp)
    4063:	8a 85 bb d5 ff ff    	mov    -0x2a45(%rbp),%al
    4069:	a8 01                	test   $0x1,%al
    406b:	75 05                	jne    4072 <main+0x3c12>
    406d:	e9 b0 00 00 00       	jmpq   4122 <main+0x3cc2>
    4072:	48 b8 00 00 00 00 00 	movabs $0x0,%rax
    4079:	00 00 00 
    407c:	48 8b 8d 48 f7 ff ff 	mov    -0x8b8(%rbp),%rcx
    4083:	8b 11                	mov    (%rcx),%edx
    4085:	89 95 5c f7 ff ff    	mov    %edx,-0x8a4(%rbp)
    408b:	48 89 85 50 f7 ff ff 	mov    %rax,-0x8b0(%rbp)
    4092:	48 8b 85 50 f7 ff ff 	mov    -0x8b0(%rbp),%rax
    4099:	83 38 00             	cmpl   $0x0,(%rax)
    409c:	74 35                	je     40d3 <main+0x3c73>
    409e:	48 8b 85 50 f7 ff ff 	mov    -0x8b0(%rbp),%rax
    40a5:	8b 08                	mov    (%rax),%ecx
    40a7:	3b 8d 5c f7 ff ff    	cmp    -0x8a4(%rbp),%ecx
    40ad:	75 10                	jne    40bf <main+0x3c5f>
    40af:	48 8b 85 50 f7 ff ff 	mov    -0x8b0(%rbp),%rax
    40b6:	48 89 85 60 f7 ff ff 	mov    %rax,-0x8a0(%rbp)
    40bd:	eb 1f                	jmp    40de <main+0x3c7e>
    40bf:	48 8b 85 50 f7 ff ff 	mov    -0x8b0(%rbp),%rax
    40c6:	48 83 c0 30          	add    $0x30,%rax
    40ca:	48 89 85 50 f7 ff ff 	mov    %rax,-0x8b0(%rbp)
    40d1:	eb bf                	jmp    4092 <main+0x3c32>
    40d3:	48 c7 85 60 f7 ff ff 	movq   $0x0,-0x8a0(%rbp)
    40da:	00 00 00 00 
    40de:	48 8b 85 60 f7 ff ff 	mov    -0x8a0(%rbp),%rax
    40e5:	48 83 f8 00          	cmp    $0x0,%rax
    40e9:	74 20                	je     410b <main+0x3cab>
    40eb:	48 8b 85 48 f7 ff ff 	mov    -0x8b8(%rbp),%rax
    40f2:	8b 08                	mov    (%rax),%ecx
    40f4:	48 8b 85 40 f7 ff ff 	mov    -0x8c0(%rbp),%rax
    40fb:	48 89 c2             	mov    %rax,%rdx
    40fe:	48 83 c2 04          	add    $0x4,%rdx
    4102:	48 89 95 40 f7 ff ff 	mov    %rdx,-0x8c0(%rbp)
    4109:	89 08                	mov    %ecx,(%rax)
    410b:	48 8b 85 48 f7 ff ff 	mov    -0x8b8(%rbp),%rax
    4112:	48 83 c0 04          	add    $0x4,%rax
    4116:	48 89 85 48 f7 ff ff 	mov    %rax,-0x8b8(%rbp)
    411d:	e9 0a ff ff ff       	jmpq   402c <main+0x3bcc>
    4122:	48 8b 85 40 f7 ff ff 	mov    -0x8c0(%rbp),%rax
    4129:	c7 00 00 00 00 00    	movl   $0x0,(%rax)
    412f:	c7 04 25 00 00 00 00 	movl   $0x1,0x0
    4136:	01 00 00 00 
    413a:	48 b8 00 00 00 00 00 	movabs $0x0,%rax
    4141:	00 00 00 
    4144:	48 b9 00 00 00 00 00 	movabs $0x0,%rcx
    414b:	00 00 00 
    414e:	48 8b 95 28 f7 ff ff 	mov    -0x8d8(%rbp),%rdx
    4155:	48 89 4a 18          	mov    %rcx,0x18(%rdx)
    4159:	48 8b 95 28 f7 ff ff 	mov    -0x8d8(%rbp),%rdx
    4160:	48 89 4a 10          	mov    %rcx,0x10(%rdx)
    4164:	48 8b 95 28 f7 ff ff 	mov    -0x8d8(%rbp),%rdx
    416b:	48 89 4a 08          	mov    %rcx,0x8(%rdx)
    416f:	48 8b 95 28 f7 ff ff 	mov    -0x8d8(%rbp),%rdx
    4176:	48 89 0a             	mov    %rcx,(%rdx)
    4179:	48 8b 8d 28 f7 ff ff 	mov    -0x8d8(%rbp),%rcx
    4180:	48 ba 00 00 00 00 00 	movabs $0x0,%rdx
    4187:	00 00 00 
    418a:	48 89 51 68          	mov    %rdx,0x68(%rcx)
    418e:	48 8b 8d 28 f7 ff ff 	mov    -0x8d8(%rbp),%rcx
    4195:	48 89 81 88 00 00 00 	mov    %rax,0x88(%rcx)
    419c:	c7 85 9c ef ff ff 00 	movl   $0x0,-0x1064(%rbp)
    41a3:	00 00 00 
    41a6:	eb 26                	jmp    41ce <main+0x3d6e>
    41a8:	48 bf 00 00 00 00 00 	movabs $0x0,%rdi
    41af:	00 00 00 
    41b2:	31 c0                	xor    %eax,%eax
    41b4:	2b 85 9c ef ff ff    	sub    -0x1064(%rbp),%eax
    41ba:	89 c6                	mov    %eax,%esi
    41bc:	b0 00                	mov    $0x0,%al
    41be:	e8 00 00 00 00       	callq  41c3 <main+0x3d63>
    41c3:	89 85 b4 d5 ff ff    	mov    %eax,-0x2a4c(%rbp)
    41c9:	e9 90 51 00 00       	jmpq   935e <main+0x8efe>
    41ce:	83 3c 25 00 00 00 00 	cmpl   $0x0,0x0
    41d5:	00 
    41d6:	7e 6a                	jle    4242 <main+0x3de2>
    41d8:	48 b8 00 00 00 00 00 	movabs $0x0,%rax
    41df:	00 00 00 
    41e2:	8b 8d 28 ef ff ff    	mov    -0x10d8(%rbp),%ecx
    41e8:	83 c9 08             	or     $0x8,%ecx
    41eb:	89 8d 28 ef ff ff    	mov    %ecx,-0x10d8(%rbp)
    41f1:	48 8d 95 00 e8 ff ff 	lea    -0x1800(%rbp),%rdx
    41f8:	48 89 95 80 f7 ff ff 	mov    %rdx,-0x880(%rbp)
    41ff:	48 8d b5 28 ef ff ff 	lea    -0x10d8(%rbp),%rsi
    4206:	48 89 b5 78 f7 ff ff 	mov    %rsi,-0x888(%rbp)
    420d:	48 8b b5 78 f7 ff ff 	mov    -0x888(%rbp),%rsi
    4214:	48 8b bd 80 f7 ff ff 	mov    -0x880(%rbp),%rdi
    421b:	48 89 77 68          	mov    %rsi,0x68(%rdi)
    421f:	48 89 95 90 f7 ff ff 	mov    %rdx,-0x870(%rbp)
    4226:	48 89 85 88 f7 ff ff 	mov    %rax,-0x878(%rbp)
    422d:	48 8b 85 88 f7 ff ff 	mov    -0x878(%rbp),%rax
    4234:	48 8b 95 90 f7 ff ff 	mov    -0x870(%rbp),%rdx
    423b:	48 89 82 88 00 00 00 	mov    %rax,0x88(%rdx)
    4242:	83 3c 25 00 00 00 00 	cmpl   $0xffffffff,0x0
    4249:	ff 
    424a:	74 45                	je     4291 <main+0x3e31>
    424c:	8b 04 25 00 00 00 00 	mov    0x0,%eax
    4253:	48 8d 8d 00 e8 ff ff 	lea    -0x1800(%rbp),%rcx
    425a:	48 89 8d a0 f7 ff ff 	mov    %rcx,-0x860(%rbp)
    4261:	89 85 9c f7 ff ff    	mov    %eax,-0x864(%rbp)
    4267:	8b 85 9c f7 ff ff    	mov    -0x864(%rbp),%eax
    426d:	48 8b 8d a0 f7 ff ff 	mov    -0x860(%rbp),%rcx
    4274:	88 c2                	mov    %al,%dl
    4276:	40 8a b1 98 00 00 00 	mov    0x98(%rcx),%sil
    427d:	80 e2 03             	and    $0x3,%dl
    4280:	c0 e2 02             	shl    $0x2,%dl
    4283:	40 80 e6 f3          	and    $0xf3,%sil
    4287:	40 08 d6             	or     %dl,%sil
    428a:	40 88 b1 98 00 00 00 	mov    %sil,0x98(%rcx)
    4291:	83 3c 25 00 00 00 00 	cmpl   $0x1,0x0
    4298:	01 
    4299:	74 45                	je     42e0 <main+0x3e80>
    429b:	8b 04 25 00 00 00 00 	mov    0x0,%eax
    42a2:	88 c1                	mov    %al,%cl
    42a4:	48 8d 95 00 e8 ff ff 	lea    -0x1800(%rbp),%rdx
    42ab:	48 89 95 b0 f7 ff ff 	mov    %rdx,-0x850(%rbp)
    42b2:	88 8d af f7 ff ff    	mov    %cl,-0x851(%rbp)
    42b8:	8a 8d af f7 ff ff    	mov    -0x851(%rbp),%cl
    42be:	48 8b 95 b0 f7 ff ff 	mov    -0x850(%rbp),%rdx
    42c5:	40 8a b2 98 00 00 00 	mov    0x98(%rdx),%sil
    42cc:	80 e1 01             	and    $0x1,%cl
    42cf:	c0 e1 06             	shl    $0x6,%cl
    42d2:	40 80 e6 bf          	and    $0xbf,%sil
    42d6:	40 08 ce             	or     %cl,%sil
    42d9:	40 88 b2 98 00 00 00 	mov    %sil,0x98(%rdx)
    42e0:	48 8d 85 00 ea ff ff 	lea    -0x1600(%rbp),%rax
    42e7:	48 8d 8d 00 e8 ff ff 	lea    -0x1800(%rbp),%rcx
    42ee:	48 89 8d c8 f7 ff ff 	mov    %rcx,-0x838(%rbp)
    42f5:	48 ba 00 00 00 00 00 	movabs $0x0,%rdx
    42fc:	00 00 00 
    42ff:	48 89 95 c0 f7 ff ff 	mov    %rdx,-0x840(%rbp)
    4306:	48 89 85 b8 f7 ff ff 	mov    %rax,-0x848(%rbp)
    430d:	48 8b 85 c0 f7 ff ff 	mov    -0x840(%rbp),%rax
    4314:	48 8b 95 c8 f7 ff ff 	mov    -0x838(%rbp),%rdx
    431b:	48 89 42 30          	mov    %rax,0x30(%rdx)
    431f:	48 8b 85 b8 f7 ff ff 	mov    -0x848(%rbp),%rax
    4326:	48 8b 95 c8 f7 ff ff 	mov    -0x838(%rbp),%rdx
    432d:	48 89 42 38          	mov    %rax,0x38(%rdx)
    4331:	48 8b 04 25 00 00 00 	mov    0x0,%rax
    4338:	00 
    4339:	48 89 8d e0 f7 ff ff 	mov    %rcx,-0x820(%rbp)
    4340:	48 b9 00 00 00 00 00 	movabs $0x0,%rcx
    4347:	00 00 00 
    434a:	48 89 8d d8 f7 ff ff 	mov    %rcx,-0x828(%rbp)
    4351:	48 89 85 d0 f7 ff ff 	mov    %rax,-0x830(%rbp)
    4358:	48 8b 85 d8 f7 ff ff 	mov    -0x828(%rbp),%rax
    435f:	48 8b 8d e0 f7 ff ff 	mov    -0x820(%rbp),%rcx
    4366:	48 89 41 20          	mov    %rax,0x20(%rcx)
    436a:	48 8b 85 d0 f7 ff ff 	mov    -0x830(%rbp),%rax
    4371:	48 8b 8d e0 f7 ff ff 	mov    -0x820(%rbp),%rcx
    4378:	48 89 41 28          	mov    %rax,0x28(%rcx)
    437c:	83 3c 25 00 00 00 00 	cmpl   $0x0,0x0
    4383:	00 
    4384:	74 6c                	je     43f2 <main+0x3f92>
    4386:	48 8d 85 00 e8 ff ff 	lea    -0x1800(%rbp),%rax
    438d:	48 89 85 f0 f7 ff ff 	mov    %rax,-0x810(%rbp)
    4394:	48 b8 00 00 00 00 00 	movabs $0x0,%rax
    439b:	00 00 00 
    439e:	48 05 90 00 00 00    	add    $0x90,%rax
    43a4:	48 89 85 e8 f7 ff ff 	mov    %rax,-0x818(%rbp)
    43ab:	48 8b 85 e8 f7 ff ff 	mov    -0x818(%rbp),%rax
    43b2:	48 8b 8d f0 f7 ff ff 	mov    -0x810(%rbp),%rcx
    43b9:	48 89 01             	mov    %rax,(%rcx)
    43bc:	48 8b 85 e8 f7 ff ff 	mov    -0x818(%rbp),%rax
    43c3:	48 8b 8d f0 f7 ff ff 	mov    -0x810(%rbp),%rcx
    43ca:	48 89 41 08          	mov    %rax,0x8(%rcx)
    43ce:	48 8b 85 e8 f7 ff ff 	mov    -0x818(%rbp),%rax
    43d5:	48 8b 8d f0 f7 ff ff 	mov    -0x810(%rbp),%rcx
    43dc:	48 89 41 10          	mov    %rax,0x10(%rcx)
    43e0:	48 8b 85 e8 f7 ff ff 	mov    -0x818(%rbp),%rax
    43e7:	48 8b 8d f0 f7 ff ff 	mov    -0x810(%rbp),%rcx
    43ee:	48 89 41 18          	mov    %rax,0x18(%rcx)
    43f2:	48 83 3c 25 00 00 00 	cmpq   $0x0,0x0
    43f9:	00 00 
    43fb:	0f 84 ac 01 00 00    	je     45ad <main+0x414d>
    4401:	48 8d 85 60 ef ff ff 	lea    -0x10a0(%rbp),%rax
    4408:	48 8d 8d 00 e8 ff ff 	lea    -0x1800(%rbp),%rcx
    440f:	48 89 8d 08 f8 ff ff 	mov    %rcx,-0x7f8(%rbp)
    4416:	48 89 85 00 f8 ff ff 	mov    %rax,-0x800(%rbp)
    441d:	c7 85 fc f7 ff ff 03 	movl   $0x3,-0x804(%rbp)
    4424:	00 00 00 
    4427:	c7 85 f8 f7 ff ff 00 	movl   $0x0,-0x808(%rbp)
    442e:	00 00 00 
    4431:	83 bd fc f7 ff ff 03 	cmpl   $0x3,-0x804(%rbp)
    4438:	74 02                	je     443c <main+0x3fdc>
    443a:	eb 2d                	jmp    4469 <main+0x4009>
    443c:	83 bd f8 f7 ff ff 00 	cmpl   $0x0,-0x808(%rbp)
    4443:	7c 09                	jl     444e <main+0x3fee>
    4445:	83 bd f8 f7 ff ff 03 	cmpl   $0x3,-0x808(%rbp)
    444c:	7e 02                	jle    4450 <main+0x3ff0>
    444e:	eb 19                	jmp    4469 <main+0x4009>
    4450:	48 8b 85 00 f8 ff ff 	mov    -0x800(%rbp),%rax
    4457:	48 8b 8d 08 f8 ff ff 	mov    -0x7f8(%rbp),%rcx
    445e:	48 63 95 f8 f7 ff ff 	movslq -0x808(%rbp),%rdx
    4465:	48 89 04 d1          	mov    %rax,(%rcx,%rdx,8)
    4469:	48 8d 85 60 ef ff ff 	lea    -0x10a0(%rbp),%rax
    4470:	48 83 c0 08          	add    $0x8,%rax
    4474:	48 8d 8d 00 e8 ff ff 	lea    -0x1800(%rbp),%rcx
    447b:	48 89 8d 20 f8 ff ff 	mov    %rcx,-0x7e0(%rbp)
    4482:	48 89 85 18 f8 ff ff 	mov    %rax,-0x7e8(%rbp)
    4489:	c7 85 14 f8 ff ff 03 	movl   $0x3,-0x7ec(%rbp)
    4490:	00 00 00 
    4493:	c7 85 10 f8 ff ff 01 	movl   $0x1,-0x7f0(%rbp)
    449a:	00 00 00 
    449d:	83 bd 14 f8 ff ff 03 	cmpl   $0x3,-0x7ec(%rbp)
    44a4:	74 02                	je     44a8 <main+0x4048>
    44a6:	eb 2d                	jmp    44d5 <main+0x4075>
    44a8:	83 bd 10 f8 ff ff 00 	cmpl   $0x0,-0x7f0(%rbp)
    44af:	7c 09                	jl     44ba <main+0x405a>
    44b1:	83 bd 10 f8 ff ff 03 	cmpl   $0x3,-0x7f0(%rbp)
    44b8:	7e 02                	jle    44bc <main+0x405c>
    44ba:	eb 19                	jmp    44d5 <main+0x4075>
    44bc:	48 8b 85 18 f8 ff ff 	mov    -0x7e8(%rbp),%rax
    44c3:	48 8b 8d 20 f8 ff ff 	mov    -0x7e0(%rbp),%rcx
    44ca:	48 63 95 10 f8 ff ff 	movslq -0x7f0(%rbp),%rdx
    44d1:	48 89 04 d1          	mov    %rax,(%rcx,%rdx,8)
    44d5:	48 8d 85 60 ef ff ff 	lea    -0x10a0(%rbp),%rax
    44dc:	48 83 c0 10          	add    $0x10,%rax
    44e0:	48 8d 8d 00 e8 ff ff 	lea    -0x1800(%rbp),%rcx
    44e7:	48 89 8d 38 f8 ff ff 	mov    %rcx,-0x7c8(%rbp)
    44ee:	48 89 85 30 f8 ff ff 	mov    %rax,-0x7d0(%rbp)
    44f5:	c7 85 2c f8 ff ff 03 	movl   $0x3,-0x7d4(%rbp)
    44fc:	00 00 00 
    44ff:	c7 85 28 f8 ff ff 02 	movl   $0x2,-0x7d8(%rbp)
    4506:	00 00 00 
    4509:	83 bd 2c f8 ff ff 03 	cmpl   $0x3,-0x7d4(%rbp)
    4510:	74 02                	je     4514 <main+0x40b4>
    4512:	eb 2d                	jmp    4541 <main+0x40e1>
    4514:	83 bd 28 f8 ff ff 00 	cmpl   $0x0,-0x7d8(%rbp)
    451b:	7c 09                	jl     4526 <main+0x40c6>
    451d:	83 bd 28 f8 ff ff 03 	cmpl   $0x3,-0x7d8(%rbp)
    4524:	7e 02                	jle    4528 <main+0x40c8>
    4526:	eb 19                	jmp    4541 <main+0x40e1>
    4528:	48 8b 85 30 f8 ff ff 	mov    -0x7d0(%rbp),%rax
    452f:	48 8b 8d 38 f8 ff ff 	mov    -0x7c8(%rbp),%rcx
    4536:	48 63 95 28 f8 ff ff 	movslq -0x7d8(%rbp),%rdx
    453d:	48 89 04 d1          	mov    %rax,(%rcx,%rdx,8)
    4541:	48 8d 85 60 ef ff ff 	lea    -0x10a0(%rbp),%rax
    4548:	48 83 c0 18          	add    $0x18,%rax
    454c:	48 8d 8d 00 e8 ff ff 	lea    -0x1800(%rbp),%rcx
    4553:	48 89 8d 50 f8 ff ff 	mov    %rcx,-0x7b0(%rbp)
    455a:	48 89 85 48 f8 ff ff 	mov    %rax,-0x7b8(%rbp)
    4561:	c7 85 44 f8 ff ff 03 	movl   $0x3,-0x7bc(%rbp)
    4568:	00 00 00 
    456b:	c7 85 40 f8 ff ff 03 	movl   $0x3,-0x7c0(%rbp)
    4572:	00 00 00 
    4575:	83 bd 44 f8 ff ff 03 	cmpl   $0x3,-0x7bc(%rbp)
    457c:	74 02                	je     4580 <main+0x4120>
    457e:	eb 2d                	jmp    45ad <main+0x414d>
    4580:	83 bd 40 f8 ff ff 00 	cmpl   $0x0,-0x7c0(%rbp)
    4587:	7c 09                	jl     4592 <main+0x4132>
    4589:	83 bd 40 f8 ff ff 03 	cmpl   $0x3,-0x7c0(%rbp)
    4590:	7e 02                	jle    4594 <main+0x4134>
    4592:	eb 19                	jmp    45ad <main+0x414d>
    4594:	48 8b 85 48 f8 ff ff 	mov    -0x7b8(%rbp),%rax
    459b:	48 8b 8d 50 f8 ff ff 	mov    -0x7b0(%rbp),%rcx
    45a2:	48 63 95 40 f8 ff ff 	movslq -0x7c0(%rbp),%rdx
    45a9:	48 89 04 d1          	mov    %rax,(%rcx,%rdx,8)
    45ad:	83 3c 25 00 00 00 00 	cmpl   $0xfffffffe,0x0
    45b4:	fe 
    45b5:	74 45                	je     45fc <main+0x419c>
    45b7:	8b 04 25 00 00 00 00 	mov    0x0,%eax
    45be:	48 8d 8d 00 e8 ff ff 	lea    -0x1800(%rbp),%rcx
    45c5:	48 89 8d 60 f8 ff ff 	mov    %rcx,-0x7a0(%rbp)
    45cc:	89 85 5c f8 ff ff    	mov    %eax,-0x7a4(%rbp)
    45d2:	8b 85 5c f8 ff ff    	mov    -0x7a4(%rbp),%eax
    45d8:	48 8b 8d 60 f8 ff ff 	mov    -0x7a0(%rbp),%rcx
    45df:	88 c2                	mov    %al,%dl
    45e1:	40 8a b1 98 00 00 00 	mov    0x98(%rcx),%sil
    45e8:	80 e2 03             	and    $0x3,%dl
    45eb:	c0 e2 04             	shl    $0x4,%dl
    45ee:	40 80 e6 cf          	and    $0xcf,%sil
    45f2:	40 08 d6             	or     %dl,%sil
    45f5:	40 88 b1 98 00 00 00 	mov    %sil,0x98(%rcx)
    45fc:	48 be 00 00 00 00 00 	movabs $0x0,%rsi
    4603:	00 00 00 
    4606:	48 8b 04 25 00 00 00 	mov    0x0,%rax
    460d:	00 
    460e:	48 89 b5 a8 d5 ff ff 	mov    %rsi,-0x2a58(%rbp)
    4615:	48 89 85 a0 d5 ff ff 	mov    %rax,-0x2a60(%rbp)
    461c:	e8 00 00 00 00       	callq  4621 <main+0x41c1>
    4621:	48 8b bd a0 d5 ff ff 	mov    -0x2a60(%rbp),%rdi
    4628:	e8 00 00 00 00       	callq  462d <main+0x41cd>
    462d:	48 8b bd a0 d5 ff ff 	mov    -0x2a60(%rbp),%rdi
    4634:	48 8b b5 a8 d5 ff ff 	mov    -0x2a58(%rbp),%rsi
    463b:	e8 00 00 00 00       	callq  4640 <main+0x41e0>
    4640:	48 8b bd a0 d5 ff ff 	mov    -0x2a60(%rbp),%rdi
    4647:	89 85 9c d5 ff ff    	mov    %eax,-0x2a64(%rbp)
    464d:	e8 00 00 00 00       	callq  4652 <main+0x41f2>
    4652:	8b 85 9c d5 ff ff    	mov    -0x2a64(%rbp),%eax
    4658:	83 f8 00             	cmp    $0x0,%eax
    465b:	0f 84 af 00 00 00    	je     4710 <main+0x42b0>
    4661:	48 be 00 00 00 00 00 	movabs $0x0,%rsi
    4668:	00 00 00 
    466b:	48 8b 04 25 00 00 00 	mov    0x0,%rax
    4672:	00 
    4673:	48 89 b5 90 d5 ff ff 	mov    %rsi,-0x2a70(%rbp)
    467a:	48 89 85 88 d5 ff ff 	mov    %rax,-0x2a78(%rbp)
    4681:	e8 00 00 00 00       	callq  4686 <main+0x4226>
    4686:	48 8b bd 88 d5 ff ff 	mov    -0x2a78(%rbp),%rdi
    468d:	e8 00 00 00 00       	callq  4692 <main+0x4232>
    4692:	48 8b bd 88 d5 ff ff 	mov    -0x2a78(%rbp),%rdi
    4699:	48 8b b5 90 d5 ff ff 	mov    -0x2a70(%rbp),%rsi
    46a0:	e8 00 00 00 00       	callq  46a5 <main+0x4245>
    46a5:	48 8b bd 88 d5 ff ff 	mov    -0x2a78(%rbp),%rdi
    46ac:	89 85 84 d5 ff ff    	mov    %eax,-0x2a7c(%rbp)
    46b2:	e8 00 00 00 00       	callq  46b7 <main+0x4257>
    46b7:	8b 85 84 d5 ff ff    	mov    -0x2a7c(%rbp),%eax
    46bd:	83 f8 00             	cmp    $0x0,%eax
    46c0:	74 4e                	je     4710 <main+0x42b0>
    46c2:	48 8d 85 00 e8 ff ff 	lea    -0x1800(%rbp),%rax
    46c9:	48 89 85 78 f8 ff ff 	mov    %rax,-0x788(%rbp)
    46d0:	48 8d 85 a0 e5 ff ff 	lea    -0x1a60(%rbp),%rax
    46d7:	48 89 85 70 f8 ff ff 	mov    %rax,-0x790(%rbp)
    46de:	48 c7 85 68 f8 ff ff 	movq   $0x0,-0x798(%rbp)
    46e5:	00 00 00 00 
    46e9:	48 8b 85 70 f8 ff ff 	mov    -0x790(%rbp),%rax
    46f0:	48 8b 8d 78 f8 ff ff 	mov    -0x788(%rbp),%rcx
    46f7:	48 89 41 78          	mov    %rax,0x78(%rcx)
    46fb:	48 8b 85 68 f8 ff ff 	mov    -0x798(%rbp),%rax
    4702:	48 8b 8d 78 f8 ff ff 	mov    -0x788(%rbp),%rcx
    4709:	48 89 81 80 00 00 00 	mov    %rax,0x80(%rcx)
    4710:	83 bd 5c e0 ff ff 00 	cmpl   $0x0,-0x1fa4(%rbp)
    4717:	74 57                	je     4770 <main+0x4310>
    4719:	48 8d 85 f0 e2 ff ff 	lea    -0x1d10(%rbp),%rax
    4720:	48 89 85 f8 df ff ff 	mov    %rax,-0x2008(%rbp)
    4727:	48 8b 95 f8 df ff ff 	mov    -0x2008(%rbp),%rdx
    472e:	48 8d bd 00 e8 ff ff 	lea    -0x1800(%rbp),%rdi
    4735:	48 8d b5 50 e3 ff ff 	lea    -0x1cb0(%rbp),%rsi
    473c:	e8 5f e5 00 00       	callq  12ca0 <mbedtls_ssl_conf_own_cert>
    4741:	89 85 9c ef ff ff    	mov    %eax,-0x1064(%rbp)
    4747:	83 f8 00             	cmp    $0x0,%eax
    474a:	74 22                	je     476e <main+0x430e>
    474c:	48 bf 00 00 00 00 00 	movabs $0x0,%rdi
    4753:	00 00 00 
    4756:	8b b5 9c ef ff ff    	mov    -0x1064(%rbp),%esi
    475c:	b0 00                	mov    $0x0,%al
    475e:	e8 00 00 00 00       	callq  4763 <main+0x4303>
    4763:	89 85 80 d5 ff ff    	mov    %eax,-0x2a80(%rbp)
    4769:	e9 f0 4b 00 00       	jmpq   935e <main+0x8efe>
    476e:	eb 00                	jmp    4770 <main+0x4310>
    4770:	83 bd 58 e0 ff ff 00 	cmpl   $0x0,-0x1fa8(%rbp)
    4777:	74 57                	je     47d0 <main+0x4370>
    4779:	48 8d 85 60 e0 ff ff 	lea    -0x1fa0(%rbp),%rax
    4780:	48 89 85 f0 df ff ff 	mov    %rax,-0x2010(%rbp)
    4787:	48 8b 95 f0 df ff ff 	mov    -0x2010(%rbp),%rdx
    478e:	48 8d bd 00 e8 ff ff 	lea    -0x1800(%rbp),%rdi
    4795:	48 8d b5 a0 e0 ff ff 	lea    -0x1f60(%rbp),%rsi
    479c:	e8 ff e4 00 00       	callq  12ca0 <mbedtls_ssl_conf_own_cert>
    47a1:	89 85 9c ef ff ff    	mov    %eax,-0x1064(%rbp)
    47a7:	83 f8 00             	cmp    $0x0,%eax
    47aa:	74 22                	je     47ce <main+0x436e>
    47ac:	48 bf 00 00 00 00 00 	movabs $0x0,%rdi
    47b3:	00 00 00 
    47b6:	8b b5 9c ef ff ff    	mov    -0x1064(%rbp),%esi
    47bc:	b0 00                	mov    $0x0,%al
    47be:	e8 00 00 00 00       	callq  47c3 <main+0x4363>
    47c3:	89 85 7c d5 ff ff    	mov    %eax,-0x2a84(%rbp)
    47c9:	e9 90 4b 00 00       	jmpq   935e <main+0x8efe>
    47ce:	eb 00                	jmp    47d0 <main+0x4370>
    47d0:	83 3c 25 00 00 00 00 	cmpl   $0xffffffff,0x0
    47d7:	ff 
    47d8:	74 4f                	je     4829 <main+0x43c9>
    47da:	8b 04 25 00 00 00 00 	mov    0x0,%eax
    47e1:	48 8d 8d 00 e8 ff ff 	lea    -0x1800(%rbp),%rcx
    47e8:	48 89 8d 88 f8 ff ff 	mov    %rcx,-0x778(%rbp)
    47ef:	c7 85 84 f8 ff ff 03 	movl   $0x3,-0x77c(%rbp)
    47f6:	00 00 00 
    47f9:	89 85 80 f8 ff ff    	mov    %eax,-0x780(%rbp)
    47ff:	8b 85 84 f8 ff ff    	mov    -0x77c(%rbp),%eax
    4805:	88 c2                	mov    %al,%dl
    4807:	48 8b 8d 88 f8 ff ff 	mov    -0x778(%rbp),%rcx
    480e:	88 91 96 00 00 00    	mov    %dl,0x96(%rcx)
    4814:	8b 85 80 f8 ff ff    	mov    -0x780(%rbp),%eax
    481a:	88 c2                	mov    %al,%dl
    481c:	48 8b 8d 88 f8 ff ff 	mov    -0x778(%rbp),%rcx
    4823:	88 91 97 00 00 00    	mov    %dl,0x97(%rcx)
    4829:	83 3c 25 00 00 00 00 	cmpl   $0xffffffff,0x0
    4830:	ff 
    4831:	74 4f                	je     4882 <main+0x4422>
    4833:	8b 04 25 00 00 00 00 	mov    0x0,%eax
    483a:	48 8d 8d 00 e8 ff ff 	lea    -0x1800(%rbp),%rcx
    4841:	48 89 8d 98 f8 ff ff 	mov    %rcx,-0x768(%rbp)
    4848:	c7 85 94 f8 ff ff 03 	movl   $0x3,-0x76c(%rbp)
    484f:	00 00 00 
    4852:	89 85 90 f8 ff ff    	mov    %eax,-0x770(%rbp)
    4858:	8b 85 94 f8 ff ff    	mov    -0x76c(%rbp),%eax
    485e:	88 c2                	mov    %al,%dl
    4860:	48 8b 8d 98 f8 ff ff 	mov    -0x768(%rbp),%rcx
    4867:	88 91 94 00 00 00    	mov    %dl,0x94(%rcx)
    486d:	8b 85 90 f8 ff ff    	mov    -0x770(%rbp),%eax
    4873:	88 c2                	mov    %al,%dl
    4875:	48 8b 8d 98 f8 ff ff 	mov    -0x768(%rbp),%rcx
    487c:	88 91 95 00 00 00    	mov    %dl,0x95(%rcx)
    4882:	b8 01 00 00 00       	mov    $0x1,%eax
    4887:	89 c7                	mov    %eax,%edi
    4889:	b8 3d 41 00 00       	mov    $0x413d,%eax
    488e:	89 c6                	mov    %eax,%esi
    4890:	48 8d 8d a0 e8 ff ff 	lea    -0x1760(%rbp),%rcx
    4897:	48 89 8d b0 f8 ff ff 	mov    %rcx,-0x750(%rbp)
    489e:	48 8d 8d 00 e8 ff ff 	lea    -0x1800(%rbp),%rcx
    48a5:	48 89 8d a8 f8 ff ff 	mov    %rcx,-0x758(%rbp)
    48ac:	48 8b 8d a8 f8 ff ff 	mov    -0x758(%rbp),%rcx
    48b3:	48 8b 95 b0 f8 ff ff 	mov    -0x750(%rbp),%rdx
    48ba:	48 89 0a             	mov    %rcx,(%rdx)
    48bd:	48 8b 8d b0 f8 ff ff 	mov    -0x750(%rbp),%rcx
    48c4:	48 c7 81 f8 00 00 00 	movq   $0x0,0xf8(%rcx)
    48cb:	00 00 00 00 
    48cf:	e8 00 00 00 00       	callq  48d4 <main+0x4474>
    48d4:	48 8b 8d b0 f8 ff ff 	mov    -0x750(%rbp),%rcx
    48db:	48 89 81 98 00 00 00 	mov    %rax,0x98(%rcx)
    48e2:	48 8b 85 b0 f8 ff ff 	mov    -0x750(%rbp),%rax
    48e9:	48 83 b8 98 00 00 00 	cmpq   $0x0,0x98(%rax)
    48f0:	00 
    48f1:	75 0c                	jne    48ff <main+0x449f>
    48f3:	c7 85 a4 f8 ff ff 00 	movl   $0xffff8100,-0x75c(%rbp)
    48fa:	81 ff ff 
    48fd:	eb 72                	jmp    4971 <main+0x4511>
    48ff:	b8 01 00 00 00       	mov    $0x1,%eax
    4904:	89 c7                	mov    %eax,%edi
    4906:	b8 3d 41 00 00       	mov    $0x413d,%eax
    490b:	89 c6                	mov    %eax,%esi
    490d:	e8 00 00 00 00       	callq  4912 <main+0x44b2>
    4912:	48 8b b5 b0 f8 ff ff 	mov    -0x750(%rbp),%rsi
    4919:	48 89 86 f8 00 00 00 	mov    %rax,0xf8(%rsi)
    4920:	48 8b 85 b0 f8 ff ff 	mov    -0x750(%rbp),%rax
    4927:	48 83 b8 f8 00 00 00 	cmpq   $0x0,0xf8(%rax)
    492e:	00 
    492f:	75 0c                	jne    493d <main+0x44dd>
    4931:	c7 85 a4 f8 ff ff 00 	movl   $0xffff8100,-0x75c(%rbp)
    4938:	81 ff ff 
    493b:	eb 34                	jmp    4971 <main+0x4511>
    493d:	48 8b bd b0 f8 ff ff 	mov    -0x750(%rbp),%rdi
    4944:	e8 b7 d8 00 00       	callq  12200 <ssl_reset_in_out_pointers>
    4949:	48 8b bd b0 f8 ff ff 	mov    -0x750(%rbp),%rdi
    4950:	e8 6b da 00 00       	callq  123c0 <ssl_handshake_init>
    4955:	89 85 a4 f8 ff ff    	mov    %eax,-0x75c(%rbp)
    495b:	83 f8 00             	cmp    $0x0,%eax
    495e:	74 02                	je     4962 <main+0x4502>
    4960:	eb 0f                	jmp    4971 <main+0x4511>
    4962:	c7 85 bc f8 ff ff 00 	movl   $0x0,-0x744(%rbp)
    4969:	00 00 00 
    496c:	e9 18 01 00 00       	jmpq   4a89 <main+0x4629>
    4971:	48 8b 85 b0 f8 ff ff 	mov    -0x750(%rbp),%rax
    4978:	48 8b b8 98 00 00 00 	mov    0x98(%rax),%rdi
    497f:	e8 00 00 00 00       	callq  4984 <main+0x4524>
    4984:	48 8b 85 b0 f8 ff ff 	mov    -0x750(%rbp),%rax
    498b:	48 8b b8 f8 00 00 00 	mov    0xf8(%rax),%rdi
    4992:	e8 00 00 00 00       	callq  4997 <main+0x4537>
    4997:	48 8b 85 b0 f8 ff ff 	mov    -0x750(%rbp),%rax
    499e:	48 c7 00 00 00 00 00 	movq   $0x0,(%rax)
    49a5:	48 8b 85 b0 f8 ff ff 	mov    -0x750(%rbp),%rax
    49ac:	48 c7 80 98 00 00 00 	movq   $0x0,0x98(%rax)
    49b3:	00 00 00 00 
    49b7:	48 8b 85 b0 f8 ff ff 	mov    -0x750(%rbp),%rax
    49be:	48 c7 80 f8 00 00 00 	movq   $0x0,0xf8(%rax)
    49c5:	00 00 00 00 
    49c9:	48 8b 85 b0 f8 ff ff 	mov    -0x750(%rbp),%rax
    49d0:	48 c7 80 a8 00 00 00 	movq   $0x0,0xa8(%rax)
    49d7:	00 00 00 00 
    49db:	48 8b 85 b0 f8 ff ff 	mov    -0x750(%rbp),%rax
    49e2:	48 c7 80 a0 00 00 00 	movq   $0x0,0xa0(%rax)
    49e9:	00 00 00 00 
    49ed:	48 8b 85 b0 f8 ff ff 	mov    -0x750(%rbp),%rax
    49f4:	48 c7 80 b0 00 00 00 	movq   $0x0,0xb0(%rax)
    49fb:	00 00 00 00 
    49ff:	48 8b 85 b0 f8 ff ff 	mov    -0x750(%rbp),%rax
    4a06:	48 c7 80 b8 00 00 00 	movq   $0x0,0xb8(%rax)
    4a0d:	00 00 00 00 
    4a11:	48 8b 85 b0 f8 ff ff 	mov    -0x750(%rbp),%rax
    4a18:	48 c7 80 c0 00 00 00 	movq   $0x0,0xc0(%rax)
    4a1f:	00 00 00 00 
    4a23:	48 8b 85 b0 f8 ff ff 	mov    -0x750(%rbp),%rax
    4a2a:	48 c7 80 08 01 00 00 	movq   $0x0,0x108(%rax)
    4a31:	00 00 00 00 
    4a35:	48 8b 85 b0 f8 ff ff 	mov    -0x750(%rbp),%rax
    4a3c:	48 c7 80 00 01 00 00 	movq   $0x0,0x100(%rax)
    4a43:	00 00 00 00 
    4a47:	48 8b 85 b0 f8 ff ff 	mov    -0x750(%rbp),%rax
    4a4e:	48 c7 80 10 01 00 00 	movq   $0x0,0x110(%rax)
    4a55:	00 00 00 00 
    4a59:	48 8b 85 b0 f8 ff ff 	mov    -0x750(%rbp),%rax
    4a60:	48 c7 80 18 01 00 00 	movq   $0x0,0x118(%rax)
    4a67:	00 00 00 00 
    4a6b:	48 8b 85 b0 f8 ff ff 	mov    -0x750(%rbp),%rax
    4a72:	48 c7 80 20 01 00 00 	movq   $0x0,0x120(%rax)
    4a79:	00 00 00 00 
    4a7d:	8b 8d a4 f8 ff ff    	mov    -0x75c(%rbp),%ecx
    4a83:	89 8d bc f8 ff ff    	mov    %ecx,-0x744(%rbp)
    4a89:	8b 85 bc f8 ff ff    	mov    -0x744(%rbp),%eax
    4a8f:	89 85 9c ef ff ff    	mov    %eax,-0x1064(%rbp)
    4a95:	83 f8 00             	cmp    $0x0,%eax
    4a98:	74 26                	je     4ac0 <main+0x4660>
    4a9a:	48 bf 00 00 00 00 00 	movabs $0x0,%rdi
    4aa1:	00 00 00 
    4aa4:	31 c0                	xor    %eax,%eax
    4aa6:	2b 85 9c ef ff ff    	sub    -0x1064(%rbp),%eax
    4aac:	89 c6                	mov    %eax,%esi
    4aae:	b0 00                	mov    $0x0,%al
    4ab0:	e8 00 00 00 00       	callq  4ab5 <main+0x4655>
    4ab5:	89 85 78 d5 ff ff    	mov    %eax,-0x2a88(%rbp)
    4abb:	e9 9e 48 00 00       	jmpq   935e <main+0x8efe>
    4ac0:	83 3c 25 00 00 00 00 	cmpl   $0x2,0x0
    4ac7:	02 
    4ac8:	0f 85 99 00 00 00    	jne    4b67 <main+0x4707>
    4ace:	48 b8 00 00 00 00 00 	movabs $0x0,%rax
    4ad5:	00 00 00 
    4ad8:	48 8d 8d a0 e8 ff ff 	lea    -0x1760(%rbp),%rcx
    4adf:	48 89 8d e0 f8 ff ff 	mov    %rcx,-0x720(%rbp)
    4ae6:	48 89 85 d8 f8 ff ff 	mov    %rax,-0x728(%rbp)
    4aed:	48 b8 00 00 00 00 00 	movabs $0x0,%rax
    4af4:	00 00 00 
    4af7:	48 89 85 d0 f8 ff ff 	mov    %rax,-0x730(%rbp)
    4afe:	48 b8 00 00 00 00 00 	movabs $0x0,%rax
    4b05:	00 00 00 
    4b08:	48 89 85 c8 f8 ff ff 	mov    %rax,-0x738(%rbp)
    4b0f:	48 c7 85 c0 f8 ff ff 	movq   $0x0,-0x740(%rbp)
    4b16:	00 00 00 00 
    4b1a:	48 8b 85 d8 f8 ff ff 	mov    -0x728(%rbp),%rax
    4b21:	48 8b 8d e0 f8 ff ff 	mov    -0x720(%rbp),%rcx
    4b28:	48 89 41 30          	mov    %rax,0x30(%rcx)
    4b2c:	48 8b 85 d0 f8 ff ff 	mov    -0x730(%rbp),%rax
    4b33:	48 8b 8d e0 f8 ff ff 	mov    -0x720(%rbp),%rcx
    4b3a:	48 89 41 18          	mov    %rax,0x18(%rcx)
    4b3e:	48 8b 85 c8 f8 ff ff 	mov    -0x738(%rbp),%rax
    4b45:	48 8b 8d e0 f8 ff ff 	mov    -0x720(%rbp),%rcx
    4b4c:	48 89 41 20          	mov    %rax,0x20(%rcx)
    4b50:	48 8b 85 c0 f8 ff ff 	mov    -0x740(%rbp),%rax
    4b57:	48 8b 8d e0 f8 ff ff 	mov    -0x720(%rbp),%rcx
    4b5e:	48 89 41 28          	mov    %rax,0x28(%rcx)
    4b62:	e9 ac 00 00 00       	jmpq   4c13 <main+0x47b3>
    4b67:	48 b8 00 00 00 00 00 	movabs $0x0,%rax
    4b6e:	00 00 00 
    4b71:	31 c9                	xor    %ecx,%ecx
    4b73:	89 ca                	mov    %ecx,%edx
    4b75:	8b 0c 25 00 00 00 00 	mov    0x0,%ecx
    4b7c:	83 f9 00             	cmp    $0x0,%ecx
    4b7f:	48 be 00 00 00 00 00 	movabs $0x0,%rsi
    4b86:	00 00 00 
    4b89:	48 0f 44 d6          	cmove  %rsi,%rdx
    4b8d:	48 8d b5 a0 e8 ff ff 	lea    -0x1760(%rbp),%rsi
    4b94:	48 89 b5 08 f9 ff ff 	mov    %rsi,-0x6f8(%rbp)
    4b9b:	48 89 85 00 f9 ff ff 	mov    %rax,-0x700(%rbp)
    4ba2:	48 b8 00 00 00 00 00 	movabs $0x0,%rax
    4ba9:	00 00 00 
    4bac:	48 89 85 f8 f8 ff ff 	mov    %rax,-0x708(%rbp)
    4bb3:	48 b8 00 00 00 00 00 	movabs $0x0,%rax
    4bba:	00 00 00 
    4bbd:	48 89 85 f0 f8 ff ff 	mov    %rax,-0x710(%rbp)
    4bc4:	48 89 95 e8 f8 ff ff 	mov    %rdx,-0x718(%rbp)
    4bcb:	48 8b 85 00 f9 ff ff 	mov    -0x700(%rbp),%rax
    4bd2:	48 8b 95 08 f9 ff ff 	mov    -0x6f8(%rbp),%rdx
    4bd9:	48 89 42 30          	mov    %rax,0x30(%rdx)
    4bdd:	48 8b 85 f8 f8 ff ff 	mov    -0x708(%rbp),%rax
    4be4:	48 8b 95 08 f9 ff ff 	mov    -0x6f8(%rbp),%rdx
    4beb:	48 89 42 18          	mov    %rax,0x18(%rdx)
    4bef:	48 8b 85 f0 f8 ff ff 	mov    -0x710(%rbp),%rax
    4bf6:	48 8b 95 08 f9 ff ff 	mov    -0x6f8(%rbp),%rdx
    4bfd:	48 89 42 20          	mov    %rax,0x20(%rdx)
    4c01:	48 8b 85 e8 f8 ff ff 	mov    -0x718(%rbp),%rax
    4c08:	48 8b 95 08 f9 ff ff 	mov    -0x6f8(%rbp),%rdx
    4c0f:	48 89 42 28          	mov    %rax,0x28(%rdx)
    4c13:	48 bf 00 00 00 00 00 	movabs $0x0,%rdi
    4c1a:	00 00 00 
    4c1d:	b0 00                	mov    $0x0,%al
    4c1f:	e8 00 00 00 00       	callq  4c24 <main+0x47c4>
    4c24:	89 85 74 d5 ff ff    	mov    %eax,-0x2a8c(%rbp)
    4c2a:	83 3c 25 00 00 00 00 	cmpl   $0x0,0x0
    4c31:	00 
    4c32:	74 2f                	je     4c63 <main+0x4803>
    4c34:	48 bf 00 00 00 00 00 	movabs $0x0,%rdi
    4c3b:	00 00 00 
    4c3e:	b0 00                	mov    $0x0,%al
    4c40:	e8 00 00 00 00       	callq  4c45 <main+0x47e5>
    4c45:	83 bd 9c ef ff ff bb 	cmpl   $0xffffffbb,-0x1064(%rbp)
    4c4c:	89 85 70 d5 ff ff    	mov    %eax,-0x2a90(%rbp)
    4c52:	75 0a                	jne    4c5e <main+0x47fe>
    4c54:	c7 85 9c ef ff ff 00 	movl   $0x0,-0x1064(%rbp)
    4c5b:	00 00 00 
    4c5e:	e9 fb 46 00 00       	jmpq   935e <main+0x8efe>
    4c63:	81 bd 9c ef ff ff 80 	cmpl   $0xffff9880,-0x1064(%rbp)
    4c6a:	98 ff ff 
    4c6d:	75 1c                	jne    4c8b <main+0x482b>
    4c6f:	48 bf 00 00 00 00 00 	movabs $0x0,%rdi
    4c76:	00 00 00 
    4c79:	b0 00                	mov    $0x0,%al
    4c7b:	e8 00 00 00 00       	callq  4c80 <main+0x4820>
    4c80:	89 85 6c d5 ff ff    	mov    %eax,-0x2a94(%rbp)
    4c86:	e9 11 0b 00 00       	jmpq   579c <main+0x533c>
    4c8b:	48 b8 00 00 00 00 00 	movabs $0x0,%rax
    4c92:	00 00 00 
    4c95:	48 89 85 10 f9 ff ff 	mov    %rax,-0x6f0(%rbp)
    4c9c:	48 8b 85 10 f9 ff ff 	mov    -0x6f0(%rbp),%rax
    4ca3:	83 38 ff             	cmpl   $0xffffffff,(%rax)
    4ca6:	75 02                	jne    4caa <main+0x484a>
    4ca8:	eb 3a                	jmp    4ce4 <main+0x4884>
    4caa:	48 8b 85 10 f9 ff ff 	mov    -0x6f0(%rbp),%rax
    4cb1:	8b 38                	mov    (%rax),%edi
    4cb3:	be 02 00 00 00       	mov    $0x2,%esi
    4cb8:	e8 00 00 00 00       	callq  4cbd <main+0x485d>
    4cbd:	48 8b 8d 10 f9 ff ff 	mov    -0x6f0(%rbp),%rcx
    4cc4:	8b 39                	mov    (%rcx),%edi
    4cc6:	89 85 68 d5 ff ff    	mov    %eax,-0x2a98(%rbp)
    4ccc:	e8 00 00 00 00       	callq  4cd1 <main+0x4871>
    4cd1:	48 8b 8d 10 f9 ff ff 	mov    -0x6f0(%rbp),%rcx
    4cd8:	c7 01 ff ff ff ff    	movl   $0xffffffff,(%rcx)
    4cde:	89 85 64 d5 ff ff    	mov    %eax,-0x2a9c(%rbp)
    4ce4:	48 8d 85 a0 e8 ff ff 	lea    -0x1760(%rbp),%rax
    4ceb:	48 89 85 18 f9 ff ff 	mov    %rax,-0x6e8(%rbp)
    4cf2:	48 8b 85 18 f9 ff ff 	mov    -0x6e8(%rbp),%rax
    4cf9:	48 89 85 28 f9 ff ff 	mov    %rax,-0x6d8(%rbp)
    4d00:	c7 85 24 f9 ff ff 00 	movl   $0x0,-0x6dc(%rbp)
    4d07:	00 00 00 
    4d0a:	48 8b 85 28 f9 ff ff 	mov    -0x6d8(%rbp),%rax
    4d11:	c7 40 08 00 00 00 00 	movl   $0x0,0x8(%rax)
    4d18:	48 8b 85 28 f9 ff ff 	mov    -0x6d8(%rbp),%rax
    4d1f:	48 89 85 38 f9 ff ff 	mov    %rax,-0x6c8(%rbp)
    4d26:	c7 85 34 f9 ff ff 00 	movl   $0x0,-0x6cc(%rbp)
    4d2d:	00 00 00 
    4d30:	48 8b 85 38 f9 ff ff 	mov    -0x6c8(%rbp),%rax
    4d37:	48 83 b8 88 00 00 00 	cmpq   $0x0,0x88(%rax)
    4d3e:	00 
    4d3f:	75 02                	jne    4d43 <main+0x48e3>
    4d41:	eb 3b                	jmp    4d7e <main+0x491e>
    4d43:	48 8b 85 38 f9 ff ff 	mov    -0x6c8(%rbp),%rax
    4d4a:	48 8b 80 88 00 00 00 	mov    0x88(%rax),%rax
    4d51:	48 8b 8d 38 f9 ff ff 	mov    -0x6c8(%rbp),%rcx
    4d58:	48 8b b9 80 00 00 00 	mov    0x80(%rcx),%rdi
    4d5f:	8b 95 34 f9 ff ff    	mov    -0x6cc(%rbp),%edx
    4d65:	c1 ea 02             	shr    $0x2,%edx
    4d68:	8b b5 34 f9 ff ff    	mov    -0x6cc(%rbp),%esi
    4d6e:	89 b5 60 d5 ff ff    	mov    %esi,-0x2aa0(%rbp)
    4d74:	89 d6                	mov    %edx,%esi
    4d76:	8b 95 60 d5 ff ff    	mov    -0x2aa0(%rbp),%edx
    4d7c:	ff d0                	callq  *%rax
    4d7e:	48 8b 85 28 f9 ff ff 	mov    -0x6d8(%rbp),%rax
    4d85:	c7 80 58 01 00 00 00 	movl   $0x0,0x158(%rax)
    4d8c:	00 00 00 
    4d8f:	48 8b 85 28 f9 ff ff 	mov    -0x6d8(%rbp),%rax
    4d96:	48 c7 80 c8 00 00 00 	movq   $0x0,0xc8(%rax)
    4d9d:	00 00 00 00 
    4da1:	48 8b bd 28 f9 ff ff 	mov    -0x6d8(%rbp),%rdi
    4da8:	e8 53 d4 00 00       	callq  12200 <ssl_reset_in_out_pointers>
    4dad:	31 c9                	xor    %ecx,%ecx
    4daf:	ba 3d 41 00 00       	mov    $0x413d,%edx
    4db4:	89 d0                	mov    %edx,%eax
    4db6:	ba 08 00 00 00       	mov    $0x8,%edx
    4dbb:	48 8b bd 28 f9 ff ff 	mov    -0x6d8(%rbp),%rdi
    4dc2:	c7 87 d0 00 00 00 00 	movl   $0x0,0xd0(%rdi)
    4dc9:	00 00 00 
    4dcc:	48 8b bd 28 f9 ff ff 	mov    -0x6d8(%rbp),%rdi
    4dd3:	48 c7 87 d8 00 00 00 	movq   $0x0,0xd8(%rdi)
    4dda:	00 00 00 00 
    4dde:	48 8b bd 28 f9 ff ff 	mov    -0x6d8(%rbp),%rdi
    4de5:	48 c7 87 e8 00 00 00 	movq   $0x0,0xe8(%rdi)
    4dec:	00 00 00 00 
    4df0:	48 8b bd 28 f9 ff ff 	mov    -0x6d8(%rbp),%rdi
    4df7:	c7 87 f0 00 00 00 00 	movl   $0x0,0xf0(%rdi)
    4dfe:	00 00 00 
    4e01:	48 8b bd 28 f9 ff ff 	mov    -0x6d8(%rbp),%rdi
    4e08:	c7 87 f4 00 00 00 00 	movl   $0x0,0xf4(%rdi)
    4e0f:	00 00 00 
    4e12:	48 8b bd 28 f9 ff ff 	mov    -0x6d8(%rbp),%rdi
    4e19:	c7 87 28 01 00 00 00 	movl   $0x0,0x128(%rdi)
    4e20:	00 00 00 
    4e23:	48 8b bd 28 f9 ff ff 	mov    -0x6d8(%rbp),%rdi
    4e2a:	48 c7 87 30 01 00 00 	movq   $0x0,0x130(%rdi)
    4e31:	00 00 00 00 
    4e35:	48 8b bd 28 f9 ff ff 	mov    -0x6d8(%rbp),%rdi
    4e3c:	48 c7 87 38 01 00 00 	movq   $0x0,0x138(%rdi)
    4e43:	00 00 00 00 
    4e47:	48 8b bd 28 f9 ff ff 	mov    -0x6d8(%rbp),%rdi
    4e4e:	48 81 c7 40 01 00 00 	add    $0x140,%rdi
    4e55:	89 ce                	mov    %ecx,%esi
    4e57:	89 8d 5c d5 ff ff    	mov    %ecx,-0x2aa4(%rbp)
    4e5d:	48 89 85 50 d5 ff ff 	mov    %rax,-0x2ab0(%rbp)
    4e64:	e8 00 00 00 00       	callq  4e69 <main+0x4a09>
    4e69:	48 8b 85 28 f9 ff ff 	mov    -0x6d8(%rbp),%rax
    4e70:	48 c7 40 60 00 00 00 	movq   $0x0,0x60(%rax)
    4e77:	00 
    4e78:	48 8b 85 28 f9 ff ff 	mov    -0x6d8(%rbp),%rax
    4e7f:	48 c7 40 68 00 00 00 	movq   $0x0,0x68(%rax)
    4e86:	00 
    4e87:	48 8b 85 28 f9 ff ff 	mov    -0x6d8(%rbp),%rax
    4e8e:	48 c7 40 38 00 00 00 	movq   $0x0,0x38(%rax)
    4e95:	00 
    4e96:	48 8b 85 28 f9 ff ff 	mov    -0x6d8(%rbp),%rax
    4e9d:	48 c7 40 40 00 00 00 	movq   $0x0,0x40(%rax)
    4ea4:	00 
    4ea5:	48 8b 85 28 f9 ff ff 	mov    -0x6d8(%rbp),%rax
    4eac:	48 8b b8 f8 00 00 00 	mov    0xf8(%rax),%rdi
    4eb3:	8b b5 5c d5 ff ff    	mov    -0x2aa4(%rbp),%esi
    4eb9:	48 8b 95 50 d5 ff ff 	mov    -0x2ab0(%rbp),%rdx
    4ec0:	e8 00 00 00 00       	callq  4ec5 <main+0x4a65>
    4ec5:	48 8b 85 28 f9 ff ff 	mov    -0x6d8(%rbp),%rax
    4ecc:	48 c7 80 e0 00 00 00 	movq   $0x0,0xe0(%rax)
    4ed3:	00 00 00 00 
    4ed7:	48 8b 85 28 f9 ff ff 	mov    -0x6d8(%rbp),%rax
    4ede:	48 8b b8 98 00 00 00 	mov    0x98(%rax),%rdi
    4ee5:	8b b5 5c d5 ff ff    	mov    -0x2aa4(%rbp),%esi
    4eeb:	48 8b 95 50 d5 ff ff 	mov    -0x2ab0(%rbp),%rdx
    4ef2:	e8 00 00 00 00       	callq  4ef7 <main+0x4a97>
    4ef7:	48 8b 85 28 f9 ff ff 	mov    -0x6d8(%rbp),%rax
    4efe:	48 83 78 70 00       	cmpq   $0x0,0x70(%rax)
    4f03:	0f 84 b1 01 00 00    	je     50ba <main+0x4c5a>
    4f09:	48 8b 85 28 f9 ff ff 	mov    -0x6d8(%rbp),%rax
    4f10:	48 8b 40 70          	mov    0x70(%rax),%rax
    4f14:	48 89 85 40 f9 ff ff 	mov    %rax,-0x6c0(%rbp)
    4f1b:	48 83 bd 40 f9 ff ff 	cmpq   $0x0,-0x6c0(%rbp)
    4f22:	00 
    4f23:	75 05                	jne    4f2a <main+0x4aca>
    4f25:	e9 6e 01 00 00       	jmpq   5098 <main+0x4c38>
    4f2a:	48 8b 85 40 f9 ff ff 	mov    -0x6c0(%rbp),%rax
    4f31:	48 05 80 00 00 00    	add    $0x80,%rax
    4f37:	48 89 85 70 f9 ff ff 	mov    %rax,-0x690(%rbp)
    4f3e:	48 83 bd 70 f9 ff ff 	cmpq   $0x0,-0x690(%rbp)
    4f45:	00 
    4f46:	75 02                	jne    4f4a <main+0x4aea>
    4f48:	eb 67                	jmp    4fb1 <main+0x4b51>
    4f4a:	48 8b 85 70 f9 ff ff 	mov    -0x690(%rbp),%rax
    4f51:	48 83 78 58 00       	cmpq   $0x0,0x58(%rax)
    4f56:	74 1f                	je     4f77 <main+0x4b17>
    4f58:	48 8b 85 70 f9 ff ff 	mov    -0x690(%rbp),%rax
    4f5f:	48 8b 00             	mov    (%rax),%rax
    4f62:	48 8b 40 28          	mov    0x28(%rax),%rax
    4f66:	48 8b 40 30          	mov    0x30(%rax),%rax
    4f6a:	48 8b 8d 70 f9 ff ff 	mov    -0x690(%rbp),%rcx
    4f71:	48 8b 79 58          	mov    0x58(%rcx),%rdi
    4f75:	ff d0                	callq  *%rax
    4f77:	31 f6                	xor    %esi,%esi
    4f79:	48 8b 85 70 f9 ff ff 	mov    -0x690(%rbp),%rax
    4f80:	48 89 85 80 f9 ff ff 	mov    %rax,-0x680(%rbp)
    4f87:	48 c7 85 78 f9 ff ff 	movq   $0x58,-0x688(%rbp)
    4f8e:	58 00 00 00 
    4f92:	48 8b 04 25 00 00 00 	mov    0x0,%rax
    4f99:	00 
    4f9a:	48 8b bd 80 f9 ff ff 	mov    -0x680(%rbp),%rdi
    4fa1:	48 8b 95 78 f9 ff ff 	mov    -0x688(%rbp),%rdx
    4fa8:	ff d0                	callq  *%rax
    4faa:	48 89 85 48 d5 ff ff 	mov    %rax,-0x2ab8(%rbp)
    4fb1:	48 8b 85 40 f9 ff ff 	mov    -0x6c0(%rbp),%rax
    4fb8:	48 05 e0 00 00 00    	add    $0xe0,%rax
    4fbe:	48 89 85 88 f9 ff ff 	mov    %rax,-0x678(%rbp)
    4fc5:	48 83 bd 88 f9 ff ff 	cmpq   $0x0,-0x678(%rbp)
    4fcc:	00 
    4fcd:	75 02                	jne    4fd1 <main+0x4b71>
    4fcf:	eb 67                	jmp    5038 <main+0x4bd8>
    4fd1:	48 8b 85 88 f9 ff ff 	mov    -0x678(%rbp),%rax
    4fd8:	48 83 78 58 00       	cmpq   $0x0,0x58(%rax)
    4fdd:	74 1f                	je     4ffe <main+0x4b9e>
    4fdf:	48 8b 85 88 f9 ff ff 	mov    -0x678(%rbp),%rax
    4fe6:	48 8b 00             	mov    (%rax),%rax
    4fe9:	48 8b 40 28          	mov    0x28(%rax),%rax
    4fed:	48 8b 40 30          	mov    0x30(%rax),%rax
    4ff1:	48 8b 8d 88 f9 ff ff 	mov    -0x678(%rbp),%rcx
    4ff8:	48 8b 79 58          	mov    0x58(%rcx),%rdi
    4ffc:	ff d0                	callq  *%rax
    4ffe:	31 f6                	xor    %esi,%esi
    5000:	48 8b 85 88 f9 ff ff 	mov    -0x678(%rbp),%rax
    5007:	48 89 85 98 f9 ff ff 	mov    %rax,-0x668(%rbp)
    500e:	48 c7 85 90 f9 ff ff 	movq   $0x58,-0x670(%rbp)
    5015:	58 00 00 00 
    5019:	48 8b 04 25 00 00 00 	mov    0x0,%rax
    5020:	00 
    5021:	48 8b bd 98 f9 ff ff 	mov    -0x668(%rbp),%rdi
    5028:	48 8b 95 90 f9 ff ff 	mov    -0x670(%rbp),%rdx
    502f:	ff d0                	callq  *%rax
    5031:	48 89 85 40 d5 ff ff 	mov    %rax,-0x2ac0(%rbp)
    5038:	48 8b 85 40 f9 ff ff 	mov    -0x6c0(%rbp),%rax
    503f:	48 83 c0 50          	add    $0x50,%rax
    5043:	48 89 c7             	mov    %rax,%rdi
    5046:	e8 f5 e9 02 00       	callq  33a40 <mbedtls_md_free>
    504b:	48 8b 85 40 f9 ff ff 	mov    -0x6c0(%rbp),%rax
    5052:	48 83 c0 68          	add    $0x68,%rax
    5056:	48 89 c7             	mov    %rax,%rdi
    5059:	e8 e2 e9 02 00       	callq  33a40 <mbedtls_md_free>
    505e:	31 f6                	xor    %esi,%esi
    5060:	48 8b 85 40 f9 ff ff 	mov    -0x6c0(%rbp),%rax
    5067:	48 89 85 50 f9 ff ff 	mov    %rax,-0x6b0(%rbp)
    506e:	48 c7 85 48 f9 ff ff 	movq   $0x130,-0x6b8(%rbp)
    5075:	30 01 00 00 
    5079:	48 8b 04 25 00 00 00 	mov    0x0,%rax
    5080:	00 
    5081:	48 8b bd 50 f9 ff ff 	mov    -0x6b0(%rbp),%rdi
    5088:	48 8b 95 48 f9 ff ff 	mov    -0x6b8(%rbp),%rdx
    508f:	ff d0                	callq  *%rax
    5091:	48 89 85 38 d5 ff ff 	mov    %rax,-0x2ac8(%rbp)
    5098:	48 8b 85 28 f9 ff ff 	mov    -0x6d8(%rbp),%rax
    509f:	48 8b 40 70          	mov    0x70(%rax),%rax
    50a3:	48 89 c7             	mov    %rax,%rdi
    50a6:	e8 00 00 00 00       	callq  50ab <main+0x4c4b>
    50ab:	48 8b 85 28 f9 ff ff 	mov    -0x6d8(%rbp),%rax
    50b2:	48 c7 40 70 00 00 00 	movq   $0x0,0x70(%rax)
    50b9:	00 
    50ba:	48 8b 85 28 f9 ff ff 	mov    -0x6d8(%rbp),%rax
    50c1:	48 83 78 48 00       	cmpq   $0x0,0x48(%rax)
    50c6:	0f 84 ab 00 00 00    	je     5177 <main+0x4d17>
    50cc:	48 8b 85 28 f9 ff ff 	mov    -0x6d8(%rbp),%rax
    50d3:	48 8b 40 48          	mov    0x48(%rax),%rax
    50d7:	48 89 85 58 f9 ff ff 	mov    %rax,-0x6a8(%rbp)
    50de:	48 83 bd 58 f9 ff ff 	cmpq   $0x0,-0x6a8(%rbp)
    50e5:	00 
    50e6:	75 02                	jne    50ea <main+0x4c8a>
    50e8:	eb 6b                	jmp    5155 <main+0x4cf5>
    50ea:	48 8b 85 58 f9 ff ff 	mov    -0x6a8(%rbp),%rax
    50f1:	48 83 78 70 00       	cmpq   $0x0,0x70(%rax)
    50f6:	74 23                	je     511b <main+0x4cbb>
    50f8:	48 8b 85 58 f9 ff ff 	mov    -0x6a8(%rbp),%rax
    50ff:	48 8b 78 70          	mov    0x70(%rax),%rdi
    5103:	e8 b8 8d 01 00       	callq  1dec0 <mbedtls_x509_crt_free>
    5108:	48 8b 85 58 f9 ff ff 	mov    -0x6a8(%rbp),%rax
    510f:	48 8b 40 70          	mov    0x70(%rax),%rax
    5113:	48 89 c7             	mov    %rax,%rdi
    5116:	e8 00 00 00 00       	callq  511b <main+0x4cbb>
    511b:	31 f6                	xor    %esi,%esi
    511d:	48 8b 85 58 f9 ff ff 	mov    -0x6a8(%rbp),%rax
    5124:	48 89 85 68 f9 ff ff 	mov    %rax,-0x698(%rbp)
    512b:	48 c7 85 60 f9 ff ff 	movq   $0x78,-0x6a0(%rbp)
    5132:	78 00 00 00 
    5136:	48 8b 04 25 00 00 00 	mov    0x0,%rax
    513d:	00 
    513e:	48 8b bd 68 f9 ff ff 	mov    -0x698(%rbp),%rdi
    5145:	48 8b 95 60 f9 ff ff 	mov    -0x6a0(%rbp),%rdx
    514c:	ff d0                	callq  *%rax
    514e:	48 89 85 30 d5 ff ff 	mov    %rax,-0x2ad0(%rbp)
    5155:	48 8b 85 28 f9 ff ff 	mov    -0x6d8(%rbp),%rax
    515c:	48 8b 40 48          	mov    0x48(%rax),%rax
    5160:	48 89 c7             	mov    %rax,%rdi
    5163:	e8 00 00 00 00       	callq  5168 <main+0x4d08>
    5168:	48 8b 85 28 f9 ff ff 	mov    -0x6d8(%rbp),%rax
    516f:	48 c7 40 48 00 00 00 	movq   $0x0,0x48(%rax)
    5176:	00 
    5177:	48 8b bd 28 f9 ff ff 	mov    -0x6d8(%rbp),%rdi
    517e:	e8 3d d2 00 00       	callq  123c0 <ssl_handshake_init>
    5183:	89 85 20 f9 ff ff    	mov    %eax,-0x6e0(%rbp)
    5189:	83 f8 00             	cmp    $0x0,%eax
    518c:	74 0e                	je     519c <main+0x4d3c>
    518e:	8b 85 20 f9 ff ff    	mov    -0x6e0(%rbp),%eax
    5194:	89 85 30 f9 ff ff    	mov    %eax,-0x6d0(%rbp)
    519a:	eb 0a                	jmp    51a6 <main+0x4d46>
    519c:	c7 85 30 f9 ff ff 00 	movl   $0x0,-0x6d0(%rbp)
    51a3:	00 00 00 
    51a6:	48 bf 00 00 00 00 00 	movabs $0x0,%rdi
    51ad:	00 00 00 
    51b0:	b0 00                	mov    $0x0,%al
    51b2:	e8 00 00 00 00       	callq  51b7 <main+0x4d57>
    51b7:	48 8b 3c 25 00 00 00 	mov    0x0,%rdi
    51be:	00 
    51bf:	89 85 2c d5 ff ff    	mov    %eax,-0x2ad4(%rbp)
    51c5:	e8 00 00 00 00       	callq  51ca <main+0x4d6a>
    51ca:	48 8d bd 40 ef ff ff 	lea    -0x10c0(%rbp),%rdi
    51d1:	48 b9 00 00 00 00 00 	movabs $0x0,%rcx
    51d8:	00 00 00 
    51db:	48 89 8d f0 fa ff ff 	mov    %rcx,-0x510(%rbp)
    51e2:	48 b9 00 00 00 00 00 	movabs $0x0,%rcx
    51e9:	00 00 00 
    51ec:	48 89 8d e8 fa ff ff 	mov    %rcx,-0x518(%rbp)
    51f3:	48 89 bd e0 fa ff ff 	mov    %rdi,-0x520(%rbp)
    51fa:	48 c7 85 d8 fa ff ff 	movq   $0x10,-0x528(%rbp)
    5201:	10 00 00 00 
    5205:	48 8d 8d 38 ef ff ff 	lea    -0x10c8(%rbp),%rcx
    520c:	48 89 8d d0 fa ff ff 	mov    %rcx,-0x530(%rbp)
    5213:	c7 85 44 fa ff ff 80 	movl   $0x80,-0x5bc(%rbp)
    521a:	00 00 00 
    521d:	c7 85 40 fa ff ff 04 	movl   $0x4,-0x5c0(%rbp)
    5224:	00 00 00 
    5227:	48 8b 8d f0 fa ff ff 	mov    -0x510(%rbp),%rcx
    522e:	8b 39                	mov    (%rcx),%edi
    5230:	48 8d 8d c8 fa ff ff 	lea    -0x538(%rbp),%rcx
    5237:	be 01 00 00 00       	mov    $0x1,%esi
    523c:	ba 03 00 00 00       	mov    $0x3,%edx
    5241:	4c 8d 85 40 fa ff ff 	lea    -0x5c0(%rbp),%r8
    5248:	89 85 28 d5 ff ff    	mov    %eax,-0x2ad8(%rbp)
    524e:	e8 00 00 00 00       	callq  5253 <main+0x4df3>
    5253:	83 f8 00             	cmp    $0x0,%eax
    5256:	75 12                	jne    526a <main+0x4e0a>
    5258:	83 bd c8 fa ff ff 01 	cmpl   $0x1,-0x538(%rbp)
    525f:	74 18                	je     5279 <main+0x4e19>
    5261:	83 bd c8 fa ff ff 02 	cmpl   $0x2,-0x538(%rbp)
    5268:	74 0f                	je     5279 <main+0x4e19>
    526a:	c7 85 f8 fa ff ff b6 	movl   $0xffffffb6,-0x508(%rbp)
    5271:	ff ff ff 
    5274:	e9 87 03 00 00       	jmpq   5600 <main+0x51a0>
    5279:	83 bd c8 fa ff ff 01 	cmpl   $0x1,-0x538(%rbp)
    5280:	75 30                	jne    52b2 <main+0x4e52>
    5282:	48 8b 85 f0 fa ff ff 	mov    -0x510(%rbp),%rax
    5289:	8b 38                	mov    (%rax),%edi
    528b:	48 8d 85 48 fa ff ff 	lea    -0x5b8(%rbp),%rax
    5292:	48 89 c6             	mov    %rax,%rsi
    5295:	48 8d 95 44 fa ff ff 	lea    -0x5bc(%rbp),%rdx
    529c:	e8 00 00 00 00       	callq  52a1 <main+0x4e41>
    52a1:	48 8b 95 e8 fa ff ff 	mov    -0x518(%rbp),%rdx
    52a8:	89 02                	mov    %eax,(%rdx)
    52aa:	89 85 cc fa ff ff    	mov    %eax,-0x534(%rbp)
    52b0:	eb 70                	jmp    5322 <main+0x4ec2>
    52b2:	b8 01 00 00 00       	mov    $0x1,%eax
    52b7:	89 c1                	mov    %eax,%ecx
    52b9:	48 8d 95 3f fa ff ff 	lea    -0x5c1(%rbp),%rdx
    52c0:	31 f6                	xor    %esi,%esi
    52c2:	48 89 d7             	mov    %rdx,%rdi
    52c5:	48 89 95 20 d5 ff ff 	mov    %rdx,-0x2ae0(%rbp)
    52cc:	48 89 ca             	mov    %rcx,%rdx
    52cf:	48 89 8d 18 d5 ff ff 	mov    %rcx,-0x2ae8(%rbp)
    52d6:	e8 00 00 00 00       	callq  52db <main+0x4e7b>
    52db:	48 8b 8d f0 fa ff ff 	mov    -0x510(%rbp),%rcx
    52e2:	8b 39                	mov    (%rcx),%edi
    52e4:	48 8d 8d 48 fa ff ff 	lea    -0x5b8(%rbp),%rcx
    52eb:	48 8b b5 20 d5 ff ff 	mov    -0x2ae0(%rbp),%rsi
    52f2:	48 8b 95 18 d5 ff ff 	mov    -0x2ae8(%rbp),%rdx
    52f9:	b8 02 00 00 00       	mov    $0x2,%eax
    52fe:	48 89 8d 10 d5 ff ff 	mov    %rcx,-0x2af0(%rbp)
    5305:	89 c1                	mov    %eax,%ecx
    5307:	4c 8b 85 10 d5 ff ff 	mov    -0x2af0(%rbp),%r8
    530e:	4c 8d 8d 44 fa ff ff 	lea    -0x5bc(%rbp),%r9
    5315:	e8 00 00 00 00       	callq  531a <main+0x4eba>
    531a:	89 c1                	mov    %eax,%ecx
    531c:	89 8d cc fa ff ff    	mov    %ecx,-0x534(%rbp)
    5322:	83 bd cc fa ff ff 00 	cmpl   $0x0,-0x534(%rbp)
    5329:	0f 8d be 00 00 00    	jge    53ed <main+0x4f8d>
    532f:	48 8b 85 f0 fa ff ff 	mov    -0x510(%rbp),%rax
    5336:	48 89 85 00 fb ff ff 	mov    %rax,-0x500(%rbp)
    533d:	e8 00 00 00 00       	callq  5342 <main+0x4ee2>
    5342:	8b 08                	mov    (%rax),%ecx
    5344:	89 8d fc fa ff ff    	mov    %ecx,-0x504(%rbp)
    534a:	48 8b 85 00 fb ff ff 	mov    -0x500(%rbp),%rax
    5351:	8b 38                	mov    (%rax),%edi
    5353:	be 03 00 00 00       	mov    $0x3,%esi
    5358:	b0 00                	mov    $0x0,%al
    535a:	e8 00 00 00 00       	callq  535f <main+0x4eff>
    535f:	25 00 08 00 00       	and    $0x800,%eax
    5364:	3d 00 08 00 00       	cmp    $0x800,%eax
    5369:	74 25                	je     5390 <main+0x4f30>
    536b:	8b 85 fc fa ff ff    	mov    -0x504(%rbp),%eax
    5371:	89 85 0c d5 ff ff    	mov    %eax,-0x2af4(%rbp)
    5377:	e8 00 00 00 00       	callq  537c <main+0x4f1c>
    537c:	8b 8d 0c d5 ff ff    	mov    -0x2af4(%rbp),%ecx
    5382:	89 08                	mov    %ecx,(%rax)
    5384:	c7 85 0c fb ff ff 00 	movl   $0x0,-0x4f4(%rbp)
    538b:	00 00 00 
    538e:	eb 34                	jmp    53c4 <main+0x4f64>
    5390:	8b 85 fc fa ff ff    	mov    -0x504(%rbp),%eax
    5396:	89 85 08 d5 ff ff    	mov    %eax,-0x2af8(%rbp)
    539c:	e8 00 00 00 00       	callq  53a1 <main+0x4f41>
    53a1:	8b 8d 08 d5 ff ff    	mov    -0x2af8(%rbp),%ecx
    53a7:	89 08                	mov    %ecx,(%rax)
    53a9:	83 f9 0b             	cmp    $0xb,%ecx
    53ac:	75 0c                	jne    53ba <main+0x4f5a>
    53ae:	c7 85 0c fb ff ff 01 	movl   $0x1,-0x4f4(%rbp)
    53b5:	00 00 00 
    53b8:	eb 0a                	jmp    53c4 <main+0x4f64>
    53ba:	c7 85 0c fb ff ff 00 	movl   $0x0,-0x4f4(%rbp)
    53c1:	00 00 00 
    53c4:	8b 85 0c fb ff ff    	mov    -0x4f4(%rbp),%eax
    53ca:	83 f8 00             	cmp    $0x0,%eax
    53cd:	74 0f                	je     53de <main+0x4f7e>
    53cf:	c7 85 f8 fa ff ff 00 	movl   $0xffff9700,-0x508(%rbp)
    53d6:	97 ff ff 
    53d9:	e9 22 02 00 00       	jmpq   5600 <main+0x51a0>
    53de:	c7 85 f8 fa ff ff b6 	movl   $0xffffffb6,-0x508(%rbp)
    53e5:	ff ff ff 
    53e8:	e9 13 02 00 00       	jmpq   5600 <main+0x51a0>
    53ed:	83 bd c8 fa ff ff 01 	cmpl   $0x1,-0x538(%rbp)
    53f4:	0f 84 1d 01 00 00    	je     5517 <main+0x50b7>
    53fa:	c7 85 b4 f9 ff ff 01 	movl   $0x1,-0x64c(%rbp)
    5401:	00 00 00 
    5404:	48 8b 85 f0 fa ff ff 	mov    -0x510(%rbp),%rax
    540b:	8b 38                	mov    (%rax),%edi
    540d:	48 8d 85 48 fa ff ff 	lea    -0x5b8(%rbp),%rax
    5414:	8b 95 44 fa ff ff    	mov    -0x5bc(%rbp),%edx
    541a:	48 89 c6             	mov    %rax,%rsi
    541d:	e8 00 00 00 00       	callq  5422 <main+0x4fc2>
    5422:	83 f8 00             	cmp    $0x0,%eax
    5425:	74 0f                	je     5436 <main+0x4fd6>
    5427:	c7 85 f8 fa ff ff b6 	movl   $0xffffffb6,-0x508(%rbp)
    542e:	ff ff ff 
    5431:	e9 ca 01 00 00       	jmpq   5600 <main+0x51a0>
    5436:	48 8b 85 f0 fa ff ff 	mov    -0x510(%rbp),%rax
    543d:	8b 08                	mov    (%rax),%ecx
    543f:	48 8b 85 e8 fa ff ff 	mov    -0x518(%rbp),%rax
    5446:	89 08                	mov    %ecx,(%rax)
    5448:	48 8b 85 f0 fa ff ff 	mov    -0x510(%rbp),%rax
    544f:	c7 00 ff ff ff ff    	movl   $0xffffffff,(%rax)
    5455:	c7 85 44 fa ff ff 80 	movl   $0x80,-0x5bc(%rbp)
    545c:	00 00 00 
    545f:	48 8b 85 e8 fa ff ff 	mov    -0x518(%rbp),%rax
    5466:	8b 38                	mov    (%rax),%edi
    5468:	48 8d 85 b8 f9 ff ff 	lea    -0x648(%rbp),%rax
    546f:	48 89 c6             	mov    %rax,%rsi
    5472:	48 8d 95 44 fa ff ff 	lea    -0x5bc(%rbp),%rdx
    5479:	e8 00 00 00 00       	callq  547e <main+0x501e>
    547e:	83 f8 00             	cmp    $0x0,%eax
    5481:	75 51                	jne    54d4 <main+0x5074>
    5483:	0f b7 bd b8 f9 ff ff 	movzwl -0x648(%rbp),%edi
    548a:	be 02 00 00 00       	mov    $0x2,%esi
    548f:	ba 11 00 00 00       	mov    $0x11,%edx
    5494:	e8 00 00 00 00       	callq  5499 <main+0x5039>
    5499:	48 8b 8d f0 fa ff ff 	mov    -0x510(%rbp),%rcx
    54a0:	89 01                	mov    %eax,(%rcx)
    54a2:	83 f8 00             	cmp    $0x0,%eax
    54a5:	7c 2d                	jl     54d4 <main+0x5074>
    54a7:	48 8b 85 f0 fa ff ff 	mov    -0x510(%rbp),%rax
    54ae:	8b 38                	mov    (%rax),%edi
    54b0:	48 8d 85 b4 f9 ff ff 	lea    -0x64c(%rbp),%rax
    54b7:	be 01 00 00 00       	mov    $0x1,%esi
    54bc:	ba 02 00 00 00       	mov    $0x2,%edx
    54c1:	48 89 c1             	mov    %rax,%rcx
    54c4:	41 b8 04 00 00 00    	mov    $0x4,%r8d
    54ca:	e8 00 00 00 00       	callq  54cf <main+0x506f>
    54cf:	83 f8 00             	cmp    $0x0,%eax
    54d2:	74 0f                	je     54e3 <main+0x5083>
    54d4:	c7 85 f8 fa ff ff be 	movl   $0xffffffbe,-0x508(%rbp)
    54db:	ff ff ff 
    54de:	e9 1d 01 00 00       	jmpq   5600 <main+0x51a0>
    54e3:	48 8b 85 f0 fa ff ff 	mov    -0x510(%rbp),%rax
    54ea:	8b 38                	mov    (%rax),%edi
    54ec:	48 8d 85 b8 f9 ff ff 	lea    -0x648(%rbp),%rax
    54f3:	8b 95 44 fa ff ff    	mov    -0x5bc(%rbp),%edx
    54f9:	48 89 c6             	mov    %rax,%rsi
    54fc:	e8 00 00 00 00       	callq  5501 <main+0x50a1>
    5501:	83 f8 00             	cmp    $0x0,%eax
    5504:	74 0f                	je     5515 <main+0x50b5>
    5506:	c7 85 f8 fa ff ff ba 	movl   $0xffffffba,-0x508(%rbp)
    550d:	ff ff ff 
    5510:	e9 eb 00 00 00       	jmpq   5600 <main+0x51a0>
    5515:	eb 00                	jmp    5517 <main+0x50b7>
    5517:	48 83 bd e0 fa ff ff 	cmpq   $0x0,-0x520(%rbp)
    551e:	00 
    551f:	0f 84 d1 00 00 00    	je     55f6 <main+0x5196>
    5525:	0f b7 85 48 fa ff ff 	movzwl -0x5b8(%rbp),%eax
    552c:	83 f8 02             	cmp    $0x2,%eax
    552f:	75 64                	jne    5595 <main+0x5135>
    5531:	48 8d 85 48 fa ff ff 	lea    -0x5b8(%rbp),%rax
    5538:	48 89 85 a8 f9 ff ff 	mov    %rax,-0x658(%rbp)
    553f:	48 8b 85 d0 fa ff ff 	mov    -0x530(%rbp),%rax
    5546:	48 c7 00 04 00 00 00 	movq   $0x4,(%rax)
    554d:	48 8b 85 d8 fa ff ff 	mov    -0x528(%rbp),%rax
    5554:	48 8b 8d d0 fa ff ff 	mov    -0x530(%rbp),%rcx
    555b:	48 3b 01             	cmp    (%rcx),%rax
    555e:	73 0f                	jae    556f <main+0x510f>
    5560:	c7 85 f8 fa ff ff bd 	movl   $0xffffffbd,-0x508(%rbp)
    5567:	ff ff ff 
    556a:	e9 91 00 00 00       	jmpq   5600 <main+0x51a0>
    556f:	48 8b bd e0 fa ff ff 	mov    -0x520(%rbp),%rdi
    5576:	48 8b 85 a8 f9 ff ff 	mov    -0x658(%rbp),%rax
    557d:	48 83 c0 04          	add    $0x4,%rax
    5581:	48 8b 8d d0 fa ff ff 	mov    -0x530(%rbp),%rcx
    5588:	48 8b 11             	mov    (%rcx),%rdx
    558b:	48 89 c6             	mov    %rax,%rsi
    558e:	e8 00 00 00 00       	callq  5593 <main+0x5133>
    5593:	eb 5f                	jmp    55f4 <main+0x5194>
    5595:	48 8d 85 48 fa ff ff 	lea    -0x5b8(%rbp),%rax
    559c:	48 89 85 a0 f9 ff ff 	mov    %rax,-0x660(%rbp)
    55a3:	48 8b 85 d0 fa ff ff 	mov    -0x530(%rbp),%rax
    55aa:	48 c7 00 10 00 00 00 	movq   $0x10,(%rax)
    55b1:	48 8b 85 d8 fa ff ff 	mov    -0x528(%rbp),%rax
    55b8:	48 8b 8d d0 fa ff ff 	mov    -0x530(%rbp),%rcx
    55bf:	48 3b 01             	cmp    (%rcx),%rax
    55c2:	73 0c                	jae    55d0 <main+0x5170>
    55c4:	c7 85 f8 fa ff ff bd 	movl   $0xffffffbd,-0x508(%rbp)
    55cb:	ff ff ff 
    55ce:	eb 30                	jmp    5600 <main+0x51a0>
    55d0:	48 8b bd e0 fa ff ff 	mov    -0x520(%rbp),%rdi
    55d7:	48 8b 85 a0 f9 ff ff 	mov    -0x660(%rbp),%rax
    55de:	48 83 c0 08          	add    $0x8,%rax
    55e2:	48 8b 8d d0 fa ff ff 	mov    -0x530(%rbp),%rcx
    55e9:	48 8b 11             	mov    (%rcx),%rdx
    55ec:	48 89 c6             	mov    %rax,%rsi
    55ef:	e8 00 00 00 00       	callq  55f4 <main+0x5194>
    55f4:	eb 00                	jmp    55f6 <main+0x5196>
    55f6:	c7 85 f8 fa ff ff 00 	movl   $0x0,-0x508(%rbp)
    55fd:	00 00 00 
    5600:	8b 85 f8 fa ff ff    	mov    -0x508(%rbp),%eax
    5606:	89 85 9c ef ff ff    	mov    %eax,-0x1064(%rbp)
    560c:	83 f8 00             	cmp    $0x0,%eax
    560f:	74 5f                	je     5670 <main+0x5210>
    5611:	83 3c 25 00 00 00 00 	cmpl   $0x0,0x0
    5618:	00 
    5619:	74 2f                	je     564a <main+0x51ea>
    561b:	48 bf 00 00 00 00 00 	movabs $0x0,%rdi
    5622:	00 00 00 
    5625:	b0 00                	mov    $0x0,%al
    5627:	e8 00 00 00 00       	callq  562c <main+0x51cc>
    562c:	83 bd 9c ef ff ff b6 	cmpl   $0xffffffb6,-0x1064(%rbp)
    5633:	89 85 04 d5 ff ff    	mov    %eax,-0x2afc(%rbp)
    5639:	75 0a                	jne    5645 <main+0x51e5>
    563b:	c7 85 9c ef ff ff 00 	movl   $0x0,-0x1064(%rbp)
    5642:	00 00 00 
    5645:	e9 14 3d 00 00       	jmpq   935e <main+0x8efe>
    564a:	48 bf 00 00 00 00 00 	movabs $0x0,%rdi
    5651:	00 00 00 
    5654:	31 c0                	xor    %eax,%eax
    5656:	2b 85 9c ef ff ff    	sub    -0x1064(%rbp),%eax
    565c:	89 c6                	mov    %eax,%esi
    565e:	b0 00                	mov    $0x0,%al
    5660:	e8 00 00 00 00       	callq  5665 <main+0x5205>
    5665:	89 85 00 d5 ff ff    	mov    %eax,-0x2b00(%rbp)
    566b:	e9 ee 3c 00 00       	jmpq   935e <main+0x8efe>
    5670:	83 3c 25 00 00 00 00 	cmpl   $0x0,0x0
    5677:	00 
    5678:	7e 58                	jle    56d2 <main+0x5272>
    567a:	48 b8 00 00 00 00 00 	movabs $0x0,%rax
    5681:	00 00 00 
    5684:	48 89 85 10 fb ff ff 	mov    %rax,-0x4f0(%rbp)
    568b:	48 8b 85 10 fb ff ff 	mov    -0x4f0(%rbp),%rax
    5692:	8b 38                	mov    (%rax),%edi
    5694:	48 8b 85 10 fb ff ff 	mov    -0x4f0(%rbp),%rax
    569b:	8b 08                	mov    (%rax),%ecx
    569d:	89 bd fc d4 ff ff    	mov    %edi,-0x2b04(%rbp)
    56a3:	89 cf                	mov    %ecx,%edi
    56a5:	be 03 00 00 00       	mov    $0x3,%esi
    56aa:	b0 00                	mov    $0x0,%al
    56ac:	e8 00 00 00 00       	callq  56b1 <main+0x5251>
    56b1:	0d 00 08 00 00       	or     $0x800,%eax
    56b6:	8b bd fc d4 ff ff    	mov    -0x2b04(%rbp),%edi
    56bc:	be 04 00 00 00       	mov    $0x4,%esi
    56c1:	89 c2                	mov    %eax,%edx
    56c3:	b0 00                	mov    $0x0,%al
    56c5:	e8 00 00 00 00       	callq  56ca <main+0x526a>
    56ca:	89 85 9c ef ff ff    	mov    %eax,-0x1064(%rbp)
    56d0:	eb 56                	jmp    5728 <main+0x52c8>
    56d2:	48 b8 00 00 00 00 00 	movabs $0x0,%rax
    56d9:	00 00 00 
    56dc:	48 89 85 18 fb ff ff 	mov    %rax,-0x4e8(%rbp)
    56e3:	48 8b 85 18 fb ff ff 	mov    -0x4e8(%rbp),%rax
    56ea:	8b 38                	mov    (%rax),%edi
    56ec:	48 8b 85 18 fb ff ff 	mov    -0x4e8(%rbp),%rax
    56f3:	8b 08                	mov    (%rax),%ecx
    56f5:	89 bd f8 d4 ff ff    	mov    %edi,-0x2b08(%rbp)
    56fb:	89 cf                	mov    %ecx,%edi
    56fd:	be 03 00 00 00       	mov    $0x3,%esi
    5702:	b0 00                	mov    $0x0,%al
    5704:	e8 00 00 00 00       	callq  5709 <main+0x52a9>
    5709:	25 ff f7 ff ff       	and    $0xfffff7ff,%eax
    570e:	8b bd f8 d4 ff ff    	mov    -0x2b08(%rbp),%edi
    5714:	be 04 00 00 00       	mov    $0x4,%esi
    5719:	89 c2                	mov    %eax,%edx
    571b:	b0 00                	mov    $0x0,%al
    571d:	e8 00 00 00 00       	callq  5722 <main+0x52c2>
    5722:	89 85 9c ef ff ff    	mov    %eax,-0x1064(%rbp)
    5728:	83 bd 9c ef ff ff 00 	cmpl   $0x0,-0x1064(%rbp)
    572f:	74 26                	je     5757 <main+0x52f7>
    5731:	48 bf 00 00 00 00 00 	movabs $0x0,%rdi
    5738:	00 00 00 
    573b:	31 c0                	xor    %eax,%eax
    573d:	2b 85 9c ef ff ff    	sub    -0x1064(%rbp),%eax
    5743:	89 c6                	mov    %eax,%esi
    5745:	b0 00                	mov    $0x0,%al
    5747:	e8 00 00 00 00       	callq  574c <main+0x52ec>
    574c:	89 85 f4 d4 ff ff    	mov    %eax,-0x2b0c(%rbp)
    5752:	e9 07 3c 00 00       	jmpq   935e <main+0x8efe>
    5757:	48 bf 00 00 00 00 00 	movabs $0x0,%rdi
    575e:	00 00 00 
    5761:	8b 04 25 00 00 00 00 	mov    0x0,%eax
    5768:	48 8d 8d 00 e8 ff ff 	lea    -0x1800(%rbp),%rcx
    576f:	48 89 8d 28 fb ff ff 	mov    %rcx,-0x4d8(%rbp)
    5776:	89 85 24 fb ff ff    	mov    %eax,-0x4dc(%rbp)
    577c:	8b 85 24 fb ff ff    	mov    -0x4dc(%rbp),%eax
    5782:	48 8b 8d 28 fb ff ff 	mov    -0x4d8(%rbp),%rcx
    5789:	89 81 90 00 00 00    	mov    %eax,0x90(%rcx)
    578f:	b0 00                	mov    $0x0,%al
    5791:	e8 00 00 00 00       	callq  5796 <main+0x5336>
    5796:	89 85 f0 d4 ff ff    	mov    %eax,-0x2b10(%rbp)
    579c:	48 bf 00 00 00 00 00 	movabs $0x0,%rdi
    57a3:	00 00 00 
    57a6:	b0 00                	mov    $0x0,%al
    57a8:	e8 00 00 00 00       	callq  57ad <main+0x534d>
    57ad:	48 8b 3c 25 00 00 00 	mov    0x0,%rdi
    57b4:	00 
    57b5:	89 85 ec d4 ff ff    	mov    %eax,-0x2b14(%rbp)
    57bb:	e8 00 00 00 00       	callq  57c0 <main+0x5360>
    57c0:	89 85 e8 d4 ff ff    	mov    %eax,-0x2b18(%rbp)
    57c6:	48 8d 85 a0 e8 ff ff 	lea    -0x1760(%rbp),%rax
    57cd:	48 89 85 38 fb ff ff 	mov    %rax,-0x4c8(%rbp)
    57d4:	c7 85 34 fb ff ff 00 	movl   $0x0,-0x4cc(%rbp)
    57db:	00 00 00 
    57de:	48 83 bd 38 fb ff ff 	cmpq   $0x0,-0x4c8(%rbp)
    57e5:	00 
    57e6:	74 0d                	je     57f5 <main+0x5395>
    57e8:	48 8b 85 38 fb ff ff 	mov    -0x4c8(%rbp),%rax
    57ef:	48 83 38 00          	cmpq   $0x0,(%rax)
    57f3:	75 0c                	jne    5801 <main+0x53a1>
    57f5:	c7 85 40 fb ff ff 00 	movl   $0xffff8f00,-0x4c0(%rbp)
    57fc:	8f ff ff 
    57ff:	eb 3a                	jmp    583b <main+0x53db>
    5801:	eb 00                	jmp    5803 <main+0x53a3>
    5803:	48 8b 85 38 fb ff ff 	mov    -0x4c8(%rbp),%rax
    580a:	83 78 08 10          	cmpl   $0x10,0x8(%rax)
    580e:	74 1f                	je     582f <main+0x53cf>
    5810:	48 8b bd 38 fb ff ff 	mov    -0x4c8(%rbp),%rdi
    5817:	e8 74 d5 00 00       	callq  12d90 <mbedtls_ssl_handshake_step>
    581c:	89 85 34 fb ff ff    	mov    %eax,-0x4cc(%rbp)
    5822:	83 bd 34 fb ff ff 00 	cmpl   $0x0,-0x4cc(%rbp)
    5829:	74 02                	je     582d <main+0x53cd>
    582b:	eb 02                	jmp    582f <main+0x53cf>
    582d:	eb d4                	jmp    5803 <main+0x53a3>
    582f:	8b 85 34 fb ff ff    	mov    -0x4cc(%rbp),%eax
    5835:	89 85 40 fb ff ff    	mov    %eax,-0x4c0(%rbp)
    583b:	8b 85 40 fb ff ff    	mov    -0x4c0(%rbp),%eax
    5841:	89 85 9c ef ff ff    	mov    %eax,-0x1064(%rbp)
    5847:	83 f8 00             	cmp    $0x0,%eax
    584a:	0f 84 93 00 00 00    	je     58e3 <main+0x5483>
    5850:	8b 85 9c ef ff ff    	mov    -0x1064(%rbp),%eax
    5856:	89 85 44 fb ff ff    	mov    %eax,-0x4bc(%rbp)
    585c:	81 bd 44 fb ff ff 00 	cmpl   $0xffff9700,-0x4bc(%rbp)
    5863:	97 ff ff 
    5866:	b1 01                	mov    $0x1,%cl
    5868:	88 8d e7 d4 ff ff    	mov    %cl,-0x2b19(%rbp)
    586e:	74 27                	je     5897 <main+0x5437>
    5870:	81 bd 44 fb ff ff 80 	cmpl   $0xffff9780,-0x4bc(%rbp)
    5877:	97 ff ff 
    587a:	b0 01                	mov    $0x1,%al
    587c:	88 85 e7 d4 ff ff    	mov    %al,-0x2b19(%rbp)
    5882:	74 13                	je     5897 <main+0x5437>
    5884:	81 bd 44 fb ff ff 00 	cmpl   $0xffff9b00,-0x4bc(%rbp)
    588b:	9b ff ff 
    588e:	0f 94 c0             	sete   %al
    5891:	88 85 e7 d4 ff ff    	mov    %al,-0x2b19(%rbp)
    5897:	8a 85 e7 d4 ff ff    	mov    -0x2b19(%rbp),%al
    589d:	24 01                	and    $0x1,%al
    589f:	0f b6 c8             	movzbl %al,%ecx
    58a2:	83 f9 00             	cmp    $0x0,%ecx
    58a5:	75 02                	jne    58a9 <main+0x5449>
    58a7:	eb 3a                	jmp    58e3 <main+0x5483>
    58a9:	83 3c 25 00 00 00 00 	cmpl   $0x1,0x0
    58b0:	01 
    58b1:	75 2b                	jne    58de <main+0x547e>
    58b3:	8b b5 9c ef ff ff    	mov    -0x1064(%rbp),%esi
    58b9:	48 bf 00 00 00 00 00 	movabs $0x0,%rdi
    58c0:	00 00 00 
    58c3:	e8 e8 a7 ff ff       	callq  b0 <idle>
    58c8:	89 85 9c ef ff ff    	mov    %eax,-0x1064(%rbp)
    58ce:	83 bd 9c ef ff ff 00 	cmpl   $0x0,-0x1064(%rbp)
    58d5:	74 05                	je     58dc <main+0x547c>
    58d7:	e9 4e f3 ff ff       	jmpq   4c2a <main+0x47ca>
    58dc:	eb 00                	jmp    58de <main+0x547e>
    58de:	e9 e3 fe ff ff       	jmpq   57c6 <main+0x5366>
    58e3:	81 bd 9c ef ff ff 80 	cmpl   $0xffff9580,-0x1064(%rbp)
    58ea:	95 ff ff 
    58ed:	75 26                	jne    5915 <main+0x54b5>
    58ef:	48 bf 00 00 00 00 00 	movabs $0x0,%rdi
    58f6:	00 00 00 
    58f9:	b0 00                	mov    $0x0,%al
    58fb:	e8 00 00 00 00       	callq  5900 <main+0x54a0>
    5900:	c7 85 9c ef ff ff 00 	movl   $0x0,-0x1064(%rbp)
    5907:	00 00 00 
    590a:	89 85 e0 d4 ff ff    	mov    %eax,-0x2b20(%rbp)
    5910:	e9 15 f3 ff ff       	jmpq   4c2a <main+0x47ca>
    5915:	83 bd 9c ef ff ff 00 	cmpl   $0x0,-0x1064(%rbp)
    591c:	0f 84 e9 00 00 00    	je     5a0b <main+0x55ab>
    5922:	48 bf 00 00 00 00 00 	movabs $0x0,%rdi
    5929:	00 00 00 
    592c:	31 c0                	xor    %eax,%eax
    592e:	2b 85 9c ef ff ff    	sub    -0x1064(%rbp),%eax
    5934:	89 c6                	mov    %eax,%esi
    5936:	b0 00                	mov    $0x0,%al
    5938:	e8 00 00 00 00       	callq  593d <main+0x54dd>
    593d:	81 bd 9c ef ff ff 00 	cmpl   $0xffffd900,-0x1064(%rbp)
    5944:	d9 ff ff 
    5947:	89 85 dc d4 ff ff    	mov    %eax,-0x2b24(%rbp)
    594d:	0f 85 b3 00 00 00    	jne    5a06 <main+0x55a6>
    5953:	48 8d 85 a0 e8 ff ff 	lea    -0x1760(%rbp),%rax
    595a:	48 89 85 48 fb ff ff 	mov    %rax,-0x4b8(%rbp)
    5961:	48 8b 85 48 fb ff ff 	mov    -0x4b8(%rbp),%rax
    5968:	48 83 78 48 00       	cmpq   $0x0,0x48(%rax)
    596d:	74 16                	je     5985 <main+0x5525>
    596f:	48 8b 85 48 fb ff ff 	mov    -0x4b8(%rbp),%rax
    5976:	48 8b 40 48          	mov    0x48(%rax),%rax
    597a:	8b 48 78             	mov    0x78(%rax),%ecx
    597d:	89 8d 54 fb ff ff    	mov    %ecx,-0x4ac(%rbp)
    5983:	eb 2e                	jmp    59b3 <main+0x5553>
    5985:	48 8b 85 48 fb ff ff 	mov    -0x4b8(%rbp),%rax
    598c:	48 83 78 50 00       	cmpq   $0x0,0x50(%rax)
    5991:	74 16                	je     59a9 <main+0x5549>
    5993:	48 8b 85 48 fb ff ff 	mov    -0x4b8(%rbp),%rax
    599a:	48 8b 40 50          	mov    0x50(%rax),%rax
    599e:	8b 48 78             	mov    0x78(%rax),%ecx
    59a1:	89 8d 54 fb ff ff    	mov    %ecx,-0x4ac(%rbp)
    59a7:	eb 0a                	jmp    59b3 <main+0x5553>
    59a9:	c7 85 54 fb ff ff ff 	movl   $0xffffffff,-0x4ac(%rbp)
    59b0:	ff ff ff 
    59b3:	b8 00 02 00 00       	mov    $0x200,%eax
    59b8:	89 c6                	mov    %eax,%esi
    59ba:	48 ba 00 00 00 00 00 	movabs $0x0,%rdx
    59c1:	00 00 00 
    59c4:	48 8d bd f0 dd ff ff 	lea    -0x2210(%rbp),%rdi
    59cb:	8b 85 54 fb ff ff    	mov    -0x4ac(%rbp),%eax
    59d1:	89 85 fc e7 ff ff    	mov    %eax,-0x1804(%rbp)
    59d7:	8b 8d fc e7 ff ff    	mov    -0x1804(%rbp),%ecx
    59dd:	e8 fe 8f 01 00       	callq  1e9e0 <mbedtls_x509_crt_verify_info>
    59e2:	48 bf 00 00 00 00 00 	movabs $0x0,%rdi
    59e9:	00 00 00 
    59ec:	48 8d b5 f0 dd ff ff 	lea    -0x2210(%rbp),%rsi
    59f3:	89 85 d8 d4 ff ff    	mov    %eax,-0x2b28(%rbp)
    59f9:	b0 00                	mov    $0x0,%al
    59fb:	e8 00 00 00 00       	callq  5a00 <main+0x55a0>
    5a00:	89 85 d4 d4 ff ff    	mov    %eax,-0x2b2c(%rbp)
    5a06:	e9 1f f2 ff ff       	jmpq   4c2a <main+0x47ca>
    5a0b:	48 8d 85 a0 e8 ff ff 	lea    -0x1760(%rbp),%rax
    5a12:	48 89 85 58 fb ff ff 	mov    %rax,-0x4a8(%rbp)
    5a19:	48 8b 85 58 fb ff ff 	mov    -0x4a8(%rbp),%rax
    5a20:	8b 48 10             	mov    0x10(%rax),%ecx
    5a23:	89 c8                	mov    %ecx,%eax
    5a25:	48 89 c2             	mov    %rax,%rdx
    5a28:	48 83 ea 03          	sub    $0x3,%rdx
    5a2c:	48 89 85 c8 d4 ff ff 	mov    %rax,-0x2b38(%rbp)
    5a33:	48 89 95 c0 d4 ff ff 	mov    %rdx,-0x2b40(%rbp)
    5a3a:	77 5d                	ja     5a99 <main+0x5639>
    5a3c:	48 8b 85 c8 d4 ff ff 	mov    -0x2b38(%rbp),%rax
    5a43:	48 8b 0c c5 00 00 00 	mov    0x0(,%rax,8),%rcx
    5a4a:	00 
    5a4b:	ff e1                	jmpq   *%rcx
    5a4d:	48 b8 00 00 00 00 00 	movabs $0x0,%rax
    5a54:	00 00 00 
    5a57:	48 89 85 60 fb ff ff 	mov    %rax,-0x4a0(%rbp)
    5a5e:	eb 4a                	jmp    5aaa <main+0x564a>
    5a60:	48 b8 00 00 00 00 00 	movabs $0x0,%rax
    5a67:	00 00 00 
    5a6a:	48 89 85 60 fb ff ff 	mov    %rax,-0x4a0(%rbp)
    5a71:	eb 37                	jmp    5aaa <main+0x564a>
    5a73:	48 b8 00 00 00 00 00 	movabs $0x0,%rax
    5a7a:	00 00 00 
    5a7d:	48 89 85 60 fb ff ff 	mov    %rax,-0x4a0(%rbp)
    5a84:	eb 24                	jmp    5aaa <main+0x564a>
    5a86:	48 b8 00 00 00 00 00 	movabs $0x0,%rax
    5a8d:	00 00 00 
    5a90:	48 89 85 60 fb ff ff 	mov    %rax,-0x4a0(%rbp)
    5a97:	eb 11                	jmp    5aaa <main+0x564a>
    5a99:	48 b8 00 00 00 00 00 	movabs $0x0,%rax
    5aa0:	00 00 00 
    5aa3:	48 89 85 60 fb ff ff 	mov    %rax,-0x4a0(%rbp)
    5aaa:	48 8b b5 60 fb ff ff 	mov    -0x4a0(%rbp),%rsi
    5ab1:	48 8d 85 a0 e8 ff ff 	lea    -0x1760(%rbp),%rax
    5ab8:	48 89 85 68 fb ff ff 	mov    %rax,-0x498(%rbp)
    5abf:	48 83 bd 68 fb ff ff 	cmpq   $0x0,-0x498(%rbp)
    5ac6:	00 
    5ac7:	48 89 b5 b8 d4 ff ff 	mov    %rsi,-0x2b48(%rbp)
    5ace:	74 0e                	je     5ade <main+0x567e>
    5ad0:	48 8b 85 68 fb ff ff 	mov    -0x498(%rbp),%rax
    5ad7:	48 83 78 48 00       	cmpq   $0x0,0x48(%rax)
    5adc:	75 10                	jne    5aee <main+0x568e>
    5ade:	48 c7 85 70 fb ff ff 	movq   $0x0,-0x490(%rbp)
    5ae5:	00 00 00 00 
    5ae9:	e9 c8 00 00 00       	jmpq   5bb6 <main+0x5756>
    5aee:	48 b8 00 00 00 00 00 	movabs $0x0,%rax
    5af5:	00 00 00 
    5af8:	48 8b 8d 68 fb ff ff 	mov    -0x498(%rbp),%rcx
    5aff:	48 8b 49 48          	mov    0x48(%rcx),%rcx
    5b03:	8b 51 08             	mov    0x8(%rcx),%edx
    5b06:	89 95 84 fb ff ff    	mov    %edx,-0x47c(%rbp)
    5b0c:	8b 95 84 fb ff ff    	mov    -0x47c(%rbp),%edx
    5b12:	89 95 9c fb ff ff    	mov    %edx,-0x464(%rbp)
    5b18:	48 89 85 90 fb ff ff 	mov    %rax,-0x470(%rbp)
    5b1f:	48 8b 85 90 fb ff ff 	mov    -0x470(%rbp),%rax
    5b26:	83 38 00             	cmpl   $0x0,(%rax)
    5b29:	74 35                	je     5b60 <main+0x5700>
    5b2b:	48 8b 85 90 fb ff ff 	mov    -0x470(%rbp),%rax
    5b32:	8b 08                	mov    (%rax),%ecx
    5b34:	3b 8d 9c fb ff ff    	cmp    -0x464(%rbp),%ecx
    5b3a:	75 10                	jne    5b4c <main+0x56ec>
    5b3c:	48 8b 85 90 fb ff ff 	mov    -0x470(%rbp),%rax
    5b43:	48 89 85 a0 fb ff ff 	mov    %rax,-0x460(%rbp)
    5b4a:	eb 1f                	jmp    5b6b <main+0x570b>
    5b4c:	48 8b 85 90 fb ff ff 	mov    -0x470(%rbp),%rax
    5b53:	48 83 c0 30          	add    $0x30,%rax
    5b57:	48 89 85 90 fb ff ff 	mov    %rax,-0x470(%rbp)
    5b5e:	eb bf                	jmp    5b1f <main+0x56bf>
    5b60:	48 c7 85 a0 fb ff ff 	movq   $0x0,-0x460(%rbp)
    5b67:	00 00 00 00 
    5b6b:	48 8b 85 a0 fb ff ff 	mov    -0x460(%rbp),%rax
    5b72:	48 89 85 78 fb ff ff 	mov    %rax,-0x488(%rbp)
    5b79:	48 83 bd 78 fb ff ff 	cmpq   $0x0,-0x488(%rbp)
    5b80:	00 
    5b81:	75 13                	jne    5b96 <main+0x5736>
    5b83:	48 b8 00 00 00 00 00 	movabs $0x0,%rax
    5b8a:	00 00 00 
    5b8d:	48 89 85 88 fb ff ff 	mov    %rax,-0x478(%rbp)
    5b94:	eb 12                	jmp    5ba8 <main+0x5748>
    5b96:	48 8b 85 78 fb ff ff 	mov    -0x488(%rbp),%rax
    5b9d:	48 8b 40 08          	mov    0x8(%rax),%rax
    5ba1:	48 89 85 88 fb ff ff 	mov    %rax,-0x478(%rbp)
    5ba8:	48 8b 85 88 fb ff ff 	mov    -0x478(%rbp),%rax
    5baf:	48 89 85 70 fb ff ff 	mov    %rax,-0x490(%rbp)
    5bb6:	48 bf 00 00 00 00 00 	movabs $0x0,%rdi
    5bbd:	00 00 00 
    5bc0:	48 8b 85 70 fb ff ff 	mov    -0x490(%rbp),%rax
    5bc7:	48 89 bd b0 d4 ff ff 	mov    %rdi,-0x2b50(%rbp)
    5bce:	48 89 85 a8 d4 ff ff 	mov    %rax,-0x2b58(%rbp)
    5bd5:	e8 00 00 00 00       	callq  5bda <main+0x577a>
    5bda:	48 8b bd a8 d4 ff ff 	mov    -0x2b58(%rbp),%rdi
    5be1:	e8 00 00 00 00       	callq  5be6 <main+0x5786>
    5be6:	48 8b bd b0 d4 ff ff 	mov    -0x2b50(%rbp),%rdi
    5bed:	48 8b b5 b8 d4 ff ff 	mov    -0x2b48(%rbp),%rsi
    5bf4:	48 8b 95 a8 d4 ff ff 	mov    -0x2b58(%rbp),%rdx
    5bfb:	b0 00                	mov    $0x0,%al
    5bfd:	e8 00 00 00 00       	callq  5c02 <main+0x57a2>
    5c02:	48 8b bd a8 d4 ff ff 	mov    -0x2b58(%rbp),%rdi
    5c09:	89 85 a4 d4 ff ff    	mov    %eax,-0x2b5c(%rbp)
    5c0f:	e8 00 00 00 00       	callq  5c14 <main+0x57b4>
    5c14:	eb 00                	jmp    5c16 <main+0x57b6>
    5c16:	48 8d 85 a0 e8 ff ff 	lea    -0x1760(%rbp),%rax
    5c1d:	48 89 85 c0 fb ff ff 	mov    %rax,-0x440(%rbp)
    5c24:	48 c7 85 b8 fb ff ff 	movq   $0x0,-0x448(%rbp)
    5c2b:	00 00 00 00 
    5c2f:	48 8b 85 c0 fb ff ff 	mov    -0x440(%rbp),%rax
    5c36:	48 8b 40 68          	mov    0x68(%rax),%rax
    5c3a:	48 89 85 b0 fb ff ff 	mov    %rax,-0x450(%rbp)
    5c41:	48 83 bd b0 fb ff ff 	cmpq   $0x0,-0x450(%rbp)
    5c48:	00 
    5c49:	75 1d                	jne    5c68 <main+0x5808>
    5c4b:	48 8b 85 c0 fb ff ff 	mov    -0x440(%rbp),%rax
    5c52:	48 89 85 d0 fb ff ff 	mov    %rax,-0x430(%rbp)
    5c59:	c7 85 cc fb ff ff 05 	movl   $0x5,-0x434(%rbp)
    5c60:	00 00 00 
    5c63:	e9 6c 01 00 00       	jmpq   5dd4 <main+0x5974>
    5c68:	48 8b 85 b0 fb ff ff 	mov    -0x450(%rbp),%rax
    5c6f:	48 05 80 00 00 00    	add    $0x80,%rax
    5c75:	48 89 85 f0 fb ff ff 	mov    %rax,-0x410(%rbp)
    5c7c:	48 8b 85 f0 fb ff ff 	mov    -0x410(%rbp),%rax
    5c83:	48 83 38 00          	cmpq   $0x0,(%rax)
    5c87:	75 0c                	jne    5c95 <main+0x5835>
    5c89:	c7 85 fc fb ff ff 00 	movl   $0x0,-0x404(%rbp)
    5c90:	00 00 00 
    5c93:	eb 13                	jmp    5ca8 <main+0x5848>
    5c95:	48 8b 85 f0 fb ff ff 	mov    -0x410(%rbp),%rax
    5c9c:	48 8b 00             	mov    (%rax),%rax
    5c9f:	8b 48 04             	mov    0x4(%rax),%ecx
    5ca2:	89 8d fc fb ff ff    	mov    %ecx,-0x404(%rbp)
    5ca8:	8b 85 fc fb ff ff    	mov    -0x404(%rbp),%eax
    5cae:	89 c1                	mov    %eax,%ecx
    5cb0:	83 e9 02             	sub    $0x2,%ecx
    5cb3:	89 85 a0 d4 ff ff    	mov    %eax,-0x2b60(%rbp)
    5cb9:	89 8d 9c d4 ff ff    	mov    %ecx,-0x2b64(%rbp)
    5cbf:	74 46                	je     5d07 <main+0x58a7>
    5cc1:	eb 00                	jmp    5cc3 <main+0x5863>
    5cc3:	8b 85 a0 d4 ff ff    	mov    -0x2b60(%rbp),%eax
    5cc9:	83 c0 fa             	add    $0xfffffffa,%eax
    5ccc:	83 e8 03             	sub    $0x3,%eax
    5ccf:	89 85 98 d4 ff ff    	mov    %eax,-0x2b68(%rbp)
    5cd5:	72 19                	jb     5cf0 <main+0x5890>
    5cd7:	eb 00                	jmp    5cd9 <main+0x5879>
    5cd9:	8b 85 a0 d4 ff ff    	mov    -0x2b60(%rbp),%eax
    5cdf:	83 e8 0a             	sub    $0xa,%eax
    5ce2:	89 85 94 d4 ff ff    	mov    %eax,-0x2b6c(%rbp)
    5ce8:	0f 85 b9 00 00 00    	jne    5da7 <main+0x5947>
    5cee:	eb 00                	jmp    5cf0 <main+0x5890>
    5cf0:	48 8b 85 b0 fb ff ff 	mov    -0x450(%rbp),%rax
    5cf7:	48 8b 40 10          	mov    0x10(%rax),%rax
    5cfb:	48 89 85 b8 fb ff ff 	mov    %rax,-0x448(%rbp)
    5d02:	e9 ac 00 00 00       	jmpq   5db3 <main+0x5953>
    5d07:	48 8b 85 b0 fb ff ff 	mov    -0x450(%rbp),%rax
    5d0e:	48 05 80 00 00 00    	add    $0x80,%rax
    5d14:	48 89 85 e0 fb ff ff 	mov    %rax,-0x420(%rbp)
    5d1b:	48 8b 85 e0 fb ff ff 	mov    -0x420(%rbp),%rax
    5d22:	48 83 38 00          	cmpq   $0x0,(%rax)
    5d26:	75 0c                	jne    5d34 <main+0x58d4>
    5d28:	c7 85 ec fb ff ff 00 	movl   $0x0,-0x414(%rbp)
    5d2f:	00 00 00 
    5d32:	eb 13                	jmp    5d47 <main+0x58e7>
    5d34:	48 8b 85 e0 fb ff ff 	mov    -0x420(%rbp),%rax
    5d3b:	48 8b 00             	mov    (%rax),%rax
    5d3e:	8b 48 20             	mov    0x20(%rax),%ecx
    5d41:	89 8d ec fb ff ff    	mov    %ecx,-0x414(%rbp)
    5d47:	8b 85 ec fb ff ff    	mov    -0x414(%rbp),%eax
    5d4d:	89 85 ac fb ff ff    	mov    %eax,-0x454(%rbp)
    5d53:	48 8b 8d b0 fb ff ff 	mov    -0x450(%rbp),%rcx
    5d5a:	48 8b 49 28          	mov    0x28(%rcx),%rcx
    5d5e:	48 03 8d b8 fb ff ff 	add    -0x448(%rbp),%rcx
    5d65:	48 89 8d b8 fb ff ff 	mov    %rcx,-0x448(%rbp)
    5d6c:	8b 85 ac fb ff ff    	mov    -0x454(%rbp),%eax
    5d72:	89 c1                	mov    %eax,%ecx
    5d74:	48 03 8d b8 fb ff ff 	add    -0x448(%rbp),%rcx
    5d7b:	48 89 8d b8 fb ff ff 	mov    %rcx,-0x448(%rbp)
    5d82:	48 8b 8d c0 fb ff ff 	mov    -0x440(%rbp),%rcx
    5d89:	83 79 10 02          	cmpl   $0x2,0x10(%rcx)
    5d8d:	7c 16                	jl     5da5 <main+0x5945>
    5d8f:	8b 85 ac fb ff ff    	mov    -0x454(%rbp),%eax
    5d95:	89 c1                	mov    %eax,%ecx
    5d97:	48 03 8d b8 fb ff ff 	add    -0x448(%rbp),%rcx
    5d9e:	48 89 8d b8 fb ff ff 	mov    %rcx,-0x448(%rbp)
    5da5:	eb 0c                	jmp    5db3 <main+0x5953>
    5da7:	c7 85 cc fb ff ff 00 	movl   $0xffff9400,-0x434(%rbp)
    5dae:	94 ff ff 
    5db1:	eb 21                	jmp    5dd4 <main+0x5974>
    5db3:	48 8b 85 c0 fb ff ff 	mov    -0x440(%rbp),%rax
    5dba:	48 89 85 d8 fb ff ff 	mov    %rax,-0x428(%rbp)
    5dc1:	48 8b 85 b8 fb ff ff 	mov    -0x448(%rbp),%rax
    5dc8:	48 83 c0 05          	add    $0x5,%rax
    5dcc:	89 c1                	mov    %eax,%ecx
    5dce:	89 8d cc fb ff ff    	mov    %ecx,-0x434(%rbp)
    5dd4:	8b 85 cc fb ff ff    	mov    -0x434(%rbp),%eax
    5dda:	89 85 9c ef ff ff    	mov    %eax,-0x1064(%rbp)
    5de0:	83 f8 00             	cmp    $0x0,%eax
    5de3:	7c 1f                	jl     5e04 <main+0x59a4>
    5de5:	48 bf 00 00 00 00 00 	movabs $0x0,%rdi
    5dec:	00 00 00 
    5def:	8b b5 9c ef ff ff    	mov    -0x1064(%rbp),%esi
    5df5:	b0 00                	mov    $0x0,%al
    5df7:	e8 00 00 00 00       	callq  5dfc <main+0x599c>
    5dfc:	89 85 90 d4 ff ff    	mov    %eax,-0x2b70(%rbp)
    5e02:	eb 17                	jmp    5e1b <main+0x59bb>
    5e04:	48 bf 00 00 00 00 00 	movabs $0x0,%rdi
    5e0b:	00 00 00 
    5e0e:	b0 00                	mov    $0x0,%al
    5e10:	e8 00 00 00 00       	callq  5e15 <main+0x59b5>
    5e15:	89 85 8c d4 ff ff    	mov    %eax,-0x2b74(%rbp)
    5e1b:	48 bf 00 00 00 00 00 	movabs $0x0,%rdi
    5e22:	00 00 00 
    5e25:	b0 00                	mov    $0x0,%al
    5e27:	e8 00 00 00 00       	callq  5e2c <main+0x59cc>
    5e2c:	48 8d bd a0 e8 ff ff 	lea    -0x1760(%rbp),%rdi
    5e33:	48 89 bd 00 fc ff ff 	mov    %rdi,-0x400(%rbp)
    5e3a:	48 8b bd 00 fc ff ff 	mov    -0x400(%rbp),%rdi
    5e41:	48 83 7f 48 00       	cmpq   $0x0,0x48(%rdi)
    5e46:	89 85 88 d4 ff ff    	mov    %eax,-0x2b78(%rbp)
    5e4c:	74 16                	je     5e64 <main+0x5a04>
    5e4e:	48 8b 85 00 fc ff ff 	mov    -0x400(%rbp),%rax
    5e55:	48 8b 40 48          	mov    0x48(%rax),%rax
    5e59:	8b 48 78             	mov    0x78(%rax),%ecx
