
./ssl/ssl_server:     file format elf64-x86-64


Disassembly of section .init:

0000000000400fb8 <_init>:
  400fb8:	48 83 ec 08          	sub    $0x8,%rsp
  400fbc:	48 8b 05 1d 20 05 00 	mov    0x5201d(%rip),%rax        # 452fe0 <__init_array_end+0x1e0>
  400fc3:	48 85 c0             	test   %rax,%rax
  400fc6:	74 05                	je     400fcd <_init+0x15>
  400fc8:	e8 33 00 00 00       	callq  401000 <__gmon_start__@plt>
  400fcd:	48 83 c4 08          	add    $0x8,%rsp
  400fd1:	c3                   	retq   

Disassembly of section .plt:

0000000000400fe0 <__libc_start_main@plt-0x10>:
  400fe0:	ff 35 0a 20 05 00    	pushq  0x5200a(%rip)        # 452ff0 <_GLOBAL_OFFSET_TABLE_+0x8>
  400fe6:	ff 25 0c 20 05 00    	jmpq   *0x5200c(%rip)        # 452ff8 <_GLOBAL_OFFSET_TABLE_+0x10>
  400fec:	90                   	nop
  400fed:	90                   	nop
  400fee:	90                   	nop
  400fef:	90                   	nop

0000000000400ff0 <__libc_start_main@plt>:
  400ff0:	ff 25 0a 20 05 00    	jmpq   *0x5200a(%rip)        # 453000 <_GLOBAL_OFFSET_TABLE_+0x18>
  400ff6:	68 00 00 00 00       	pushq  $0x0
  400ffb:	e9 e0 ff ff ff       	jmpq   400fe0 <_init+0x28>

0000000000401000 <__gmon_start__@plt>:
  401000:	ff 25 02 20 05 00    	jmpq   *0x52002(%rip)        # 453008 <_GLOBAL_OFFSET_TABLE_+0x20>
  401006:	68 01 00 00 00       	pushq  $0x1
  40100b:	e9 d0 ff ff ff       	jmpq   400fe0 <_init+0x28>

0000000000401010 <__xstat64@plt>:
  401010:	ff 25 fa 1f 05 00    	jmpq   *0x51ffa(%rip)        # 453010 <_GLOBAL_OFFSET_TABLE_+0x28>
  401016:	68 02 00 00 00       	pushq  $0x2
  40101b:	e9 c0 ff ff ff       	jmpq   400fe0 <_init+0x28>

0000000000401020 <memset@plt>:
  401020:	ff 25 f2 1f 05 00    	jmpq   *0x51ff2(%rip)        # 453018 <_GLOBAL_OFFSET_TABLE_+0x30>
  401026:	68 03 00 00 00       	pushq  $0x3
  40102b:	e9 b0 ff ff ff       	jmpq   400fe0 <_init+0x28>

0000000000401030 <printf@plt>:
  401030:	ff 25 ea 1f 05 00    	jmpq   *0x51fea(%rip)        # 453020 <_GLOBAL_OFFSET_TABLE_+0x38>
  401036:	68 04 00 00 00       	pushq  $0x4
  40103b:	e9 a0 ff ff ff       	jmpq   400fe0 <_init+0x28>

0000000000401040 <fflush@plt>:
  401040:	ff 25 e2 1f 05 00    	jmpq   *0x51fe2(%rip)        # 453028 <_GLOBAL_OFFSET_TABLE_+0x40>
  401046:	68 05 00 00 00       	pushq  $0x5
  40104b:	e9 90 ff ff ff       	jmpq   400fe0 <_init+0x28>

0000000000401050 <__sysv_signal@plt>:
  401050:	ff 25 da 1f 05 00    	jmpq   *0x51fda(%rip)        # 453030 <_GLOBAL_OFFSET_TABLE_+0x48>
  401056:	68 06 00 00 00       	pushq  $0x6
  40105b:	e9 80 ff ff ff       	jmpq   400fe0 <_init+0x28>

0000000000401060 <getaddrinfo@plt>:
  401060:	ff 25 d2 1f 05 00    	jmpq   *0x51fd2(%rip)        # 453038 <_GLOBAL_OFFSET_TABLE_+0x50>
  401066:	68 07 00 00 00       	pushq  $0x7
  40106b:	e9 70 ff ff ff       	jmpq   400fe0 <_init+0x28>

0000000000401070 <socket@plt>:
  401070:	ff 25 ca 1f 05 00    	jmpq   *0x51fca(%rip)        # 453040 <_GLOBAL_OFFSET_TABLE_+0x58>
  401076:	68 08 00 00 00       	pushq  $0x8
  40107b:	e9 60 ff ff ff       	jmpq   400fe0 <_init+0x28>

0000000000401080 <setsockopt@plt>:
  401080:	ff 25 c2 1f 05 00    	jmpq   *0x51fc2(%rip)        # 453048 <_GLOBAL_OFFSET_TABLE_+0x60>
  401086:	68 09 00 00 00       	pushq  $0x9
  40108b:	e9 50 ff ff ff       	jmpq   400fe0 <_init+0x28>

0000000000401090 <close@plt>:
  401090:	ff 25 ba 1f 05 00    	jmpq   *0x51fba(%rip)        # 453050 <_GLOBAL_OFFSET_TABLE_+0x68>
  401096:	68 0a 00 00 00       	pushq  $0xa
  40109b:	e9 40 ff ff ff       	jmpq   400fe0 <_init+0x28>

00000000004010a0 <bind@plt>:
  4010a0:	ff 25 b2 1f 05 00    	jmpq   *0x51fb2(%rip)        # 453058 <_GLOBAL_OFFSET_TABLE_+0x70>
  4010a6:	68 0b 00 00 00       	pushq  $0xb
  4010ab:	e9 30 ff ff ff       	jmpq   400fe0 <_init+0x28>

00000000004010b0 <listen@plt>:
  4010b0:	ff 25 aa 1f 05 00    	jmpq   *0x51faa(%rip)        # 453060 <_GLOBAL_OFFSET_TABLE_+0x78>
  4010b6:	68 0c 00 00 00       	pushq  $0xc
  4010bb:	e9 20 ff ff ff       	jmpq   400fe0 <_init+0x28>

00000000004010c0 <freeaddrinfo@plt>:
  4010c0:	ff 25 a2 1f 05 00    	jmpq   *0x51fa2(%rip)        # 453068 <_GLOBAL_OFFSET_TABLE_+0x80>
  4010c6:	68 0d 00 00 00       	pushq  $0xd
  4010cb:	e9 10 ff ff ff       	jmpq   400fe0 <_init+0x28>

00000000004010d0 <strlen@plt>:
  4010d0:	ff 25 9a 1f 05 00    	jmpq   *0x51f9a(%rip)        # 453070 <_GLOBAL_OFFSET_TABLE_+0x88>
  4010d6:	68 0e 00 00 00       	pushq  $0xe
  4010db:	e9 00 ff ff ff       	jmpq   400fe0 <_init+0x28>

00000000004010e0 <free@plt>:
  4010e0:	ff 25 92 1f 05 00    	jmpq   *0x51f92(%rip)        # 453078 <_GLOBAL_OFFSET_TABLE_+0x90>
  4010e6:	68 0f 00 00 00       	pushq  $0xf
  4010eb:	e9 f0 fe ff ff       	jmpq   400fe0 <_init+0x28>

00000000004010f0 <shutdown@plt>:
  4010f0:	ff 25 8a 1f 05 00    	jmpq   *0x51f8a(%rip)        # 453080 <_GLOBAL_OFFSET_TABLE_+0x98>
  4010f6:	68 10 00 00 00       	pushq  $0x10
  4010fb:	e9 e0 fe ff ff       	jmpq   400fe0 <_init+0x28>

0000000000401100 <getsockopt@plt>:
  401100:	ff 25 82 1f 05 00    	jmpq   *0x51f82(%rip)        # 453088 <_GLOBAL_OFFSET_TABLE_+0xa0>
  401106:	68 11 00 00 00       	pushq  $0x11
  40110b:	e9 d0 fe ff ff       	jmpq   400fe0 <_init+0x28>

0000000000401110 <accept@plt>:
  401110:	ff 25 7a 1f 05 00    	jmpq   *0x51f7a(%rip)        # 453090 <_GLOBAL_OFFSET_TABLE_+0xa8>
  401116:	68 12 00 00 00       	pushq  $0x12
  40111b:	e9 c0 fe ff ff       	jmpq   400fe0 <_init+0x28>

0000000000401120 <recvfrom@plt>:
  401120:	ff 25 72 1f 05 00    	jmpq   *0x51f72(%rip)        # 453098 <_GLOBAL_OFFSET_TABLE_+0xb0>
  401126:	68 13 00 00 00       	pushq  $0x13
  40112b:	e9 b0 fe ff ff       	jmpq   400fe0 <_init+0x28>

0000000000401130 <__errno_location@plt>:
  401130:	ff 25 6a 1f 05 00    	jmpq   *0x51f6a(%rip)        # 4530a0 <_GLOBAL_OFFSET_TABLE_+0xb8>
  401136:	68 14 00 00 00       	pushq  $0x14
  40113b:	e9 a0 fe ff ff       	jmpq   400fe0 <_init+0x28>

0000000000401140 <fcntl@plt>:
  401140:	ff 25 62 1f 05 00    	jmpq   *0x51f62(%rip)        # 4530a8 <_GLOBAL_OFFSET_TABLE_+0xc0>
  401146:	68 15 00 00 00       	pushq  $0x15
  40114b:	e9 90 fe ff ff       	jmpq   400fe0 <_init+0x28>

0000000000401150 <connect@plt>:
  401150:	ff 25 5a 1f 05 00    	jmpq   *0x51f5a(%rip)        # 4530b0 <_GLOBAL_OFFSET_TABLE_+0xc8>
  401156:	68 16 00 00 00       	pushq  $0x16
  40115b:	e9 80 fe ff ff       	jmpq   400fe0 <_init+0x28>

0000000000401160 <getsockname@plt>:
  401160:	ff 25 52 1f 05 00    	jmpq   *0x51f52(%rip)        # 4530b8 <_GLOBAL_OFFSET_TABLE_+0xd0>
  401166:	68 17 00 00 00       	pushq  $0x17
  40116b:	e9 70 fe ff ff       	jmpq   400fe0 <_init+0x28>

0000000000401170 <memcpy@plt>:
  401170:	ff 25 4a 1f 05 00    	jmpq   *0x51f4a(%rip)        # 4530c0 <_GLOBAL_OFFSET_TABLE_+0xd8>
  401176:	68 18 00 00 00       	pushq  $0x18
  40117b:	e9 60 fe ff ff       	jmpq   400fe0 <_init+0x28>

0000000000401180 <sprintf@plt>:
  401180:	ff 25 42 1f 05 00    	jmpq   *0x51f42(%rip)        # 4530c8 <_GLOBAL_OFFSET_TABLE_+0xe0>
  401186:	68 19 00 00 00       	pushq  $0x19
  40118b:	e9 50 fe ff ff       	jmpq   400fe0 <_init+0x28>

0000000000401190 <fprintf@plt>:
  401190:	ff 25 3a 1f 05 00    	jmpq   *0x51f3a(%rip)        # 4530d0 <_GLOBAL_OFFSET_TABLE_+0xe8>
  401196:	68 1a 00 00 00       	pushq  $0x1a
  40119b:	e9 40 fe ff ff       	jmpq   400fe0 <_init+0x28>

00000000004011a0 <read@plt>:
  4011a0:	ff 25 32 1f 05 00    	jmpq   *0x51f32(%rip)        # 4530d8 <_GLOBAL_OFFSET_TABLE_+0xf0>
  4011a6:	68 1b 00 00 00       	pushq  $0x1b
  4011ab:	e9 30 fe ff ff       	jmpq   400fe0 <_init+0x28>

00000000004011b0 <write@plt>:
  4011b0:	ff 25 2a 1f 05 00    	jmpq   *0x51f2a(%rip)        # 4530e0 <_GLOBAL_OFFSET_TABLE_+0xf8>
  4011b6:	68 1c 00 00 00       	pushq  $0x1c
  4011bb:	e9 20 fe ff ff       	jmpq   400fe0 <_init+0x28>

00000000004011c0 <memmove@plt>:
  4011c0:	ff 25 22 1f 05 00    	jmpq   *0x51f22(%rip)        # 4530e8 <_GLOBAL_OFFSET_TABLE_+0x100>
  4011c6:	68 1d 00 00 00       	pushq  $0x1d
  4011cb:	e9 10 fe ff ff       	jmpq   400fe0 <_init+0x28>

00000000004011d0 <memcmp@plt>:
  4011d0:	ff 25 1a 1f 05 00    	jmpq   *0x51f1a(%rip)        # 4530f0 <_GLOBAL_OFFSET_TABLE_+0x108>
  4011d6:	68 1e 00 00 00       	pushq  $0x1e
  4011db:	e9 00 fe ff ff       	jmpq   400fe0 <_init+0x28>

00000000004011e0 <time@plt>:
  4011e0:	ff 25 12 1f 05 00    	jmpq   *0x51f12(%rip)        # 4530f8 <_GLOBAL_OFFSET_TABLE_+0x110>
  4011e6:	68 1f 00 00 00       	pushq  $0x1f
  4011eb:	e9 f0 fd ff ff       	jmpq   400fe0 <_init+0x28>

00000000004011f0 <strcmp@plt>:
  4011f0:	ff 25 0a 1f 05 00    	jmpq   *0x51f0a(%rip)        # 453100 <_GLOBAL_OFFSET_TABLE_+0x118>
  4011f6:	68 20 00 00 00       	pushq  $0x20
  4011fb:	e9 e0 fd ff ff       	jmpq   400fe0 <_init+0x28>

0000000000401200 <snprintf@plt>:
  401200:	ff 25 02 1f 05 00    	jmpq   *0x51f02(%rip)        # 453108 <_GLOBAL_OFFSET_TABLE_+0x120>
  401206:	68 21 00 00 00       	pushq  $0x21
  40120b:	e9 d0 fd ff ff       	jmpq   400fe0 <_init+0x28>

0000000000401210 <__udivti3@plt>:
  401210:	ff 25 fa 1e 05 00    	jmpq   *0x51efa(%rip)        # 453110 <_GLOBAL_OFFSET_TABLE_+0x128>
  401216:	68 22 00 00 00       	pushq  $0x22
  40121b:	e9 c0 fd ff ff       	jmpq   400fe0 <_init+0x28>

0000000000401220 <fopen64@plt>:
  401220:	ff 25 f2 1e 05 00    	jmpq   *0x51ef2(%rip)        # 453118 <_GLOBAL_OFFSET_TABLE_+0x130>
  401226:	68 23 00 00 00       	pushq  $0x23
  40122b:	e9 b0 fd ff ff       	jmpq   400fe0 <_init+0x28>

0000000000401230 <fwrite@plt>:
  401230:	ff 25 ea 1e 05 00    	jmpq   *0x51eea(%rip)        # 453120 <_GLOBAL_OFFSET_TABLE_+0x138>
  401236:	68 24 00 00 00       	pushq  $0x24
  40123b:	e9 a0 fd ff ff       	jmpq   400fe0 <_init+0x28>

0000000000401240 <fclose@plt>:
  401240:	ff 25 e2 1e 05 00    	jmpq   *0x51ee2(%rip)        # 453128 <_GLOBAL_OFFSET_TABLE_+0x140>
  401246:	68 25 00 00 00       	pushq  $0x25
  40124b:	e9 90 fd ff ff       	jmpq   400fe0 <_init+0x28>

0000000000401250 <syscall@plt>:
  401250:	ff 25 da 1e 05 00    	jmpq   *0x51eda(%rip)        # 453130 <_GLOBAL_OFFSET_TABLE_+0x148>
  401256:	68 26 00 00 00       	pushq  $0x26
  40125b:	e9 80 fd ff ff       	jmpq   400fe0 <_init+0x28>

0000000000401260 <fread@plt>:
  401260:	ff 25 d2 1e 05 00    	jmpq   *0x51ed2(%rip)        # 453138 <_GLOBAL_OFFSET_TABLE_+0x150>
  401266:	68 27 00 00 00       	pushq  $0x27
  40126b:	e9 70 fd ff ff       	jmpq   400fe0 <_init+0x28>

0000000000401270 <fseek@plt>:
  401270:	ff 25 ca 1e 05 00    	jmpq   *0x51eca(%rip)        # 453140 <_GLOBAL_OFFSET_TABLE_+0x158>
  401276:	68 28 00 00 00       	pushq  $0x28
  40127b:	e9 60 fd ff ff       	jmpq   400fe0 <_init+0x28>

0000000000401280 <ftell@plt>:
  401280:	ff 25 c2 1e 05 00    	jmpq   *0x51ec2(%rip)        # 453148 <_GLOBAL_OFFSET_TABLE_+0x160>
  401286:	68 29 00 00 00       	pushq  $0x29
  40128b:	e9 50 fd ff ff       	jmpq   400fe0 <_init+0x28>

0000000000401290 <__stack_chk_fail@plt>:
  401290:	ff 25 ba 1e 05 00    	jmpq   *0x51eba(%rip)        # 453150 <_GLOBAL_OFFSET_TABLE_+0x168>
  401296:	68 2a 00 00 00       	pushq  $0x2a
  40129b:	e9 40 fd ff ff       	jmpq   400fe0 <_init+0x28>

00000000004012a0 <aligned_alloc@plt>:
  4012a0:	ff 25 b2 1e 05 00    	jmpq   *0x51eb2(%rip)        # 453158 <_GLOBAL_OFFSET_TABLE_+0x170>
  4012a6:	68 2b 00 00 00       	pushq  $0x2b
  4012ab:	e9 30 fd ff ff       	jmpq   400fe0 <_init+0x28>

00000000004012b0 <readdir@plt>:
  4012b0:	ff 25 aa 1e 05 00    	jmpq   *0x51eaa(%rip)        # 453160 <_GLOBAL_OFFSET_TABLE_+0x178>
  4012b6:	68 2c 00 00 00       	pushq  $0x2c
  4012bb:	e9 20 fd ff ff       	jmpq   400fe0 <_init+0x28>

00000000004012c0 <strcpy@plt>:
  4012c0:	ff 25 a2 1e 05 00    	jmpq   *0x51ea2(%rip)        # 453168 <_GLOBAL_OFFSET_TABLE_+0x180>
  4012c6:	68 2d 00 00 00       	pushq  $0x2d
  4012cb:	e9 10 fd ff ff       	jmpq   400fe0 <_init+0x28>

00000000004012d0 <getenv@plt>:
  4012d0:	ff 25 9a 1e 05 00    	jmpq   *0x51e9a(%rip)        # 453170 <_GLOBAL_OFFSET_TABLE_+0x188>
  4012d6:	68 2e 00 00 00       	pushq  $0x2e
  4012db:	e9 00 fd ff ff       	jmpq   400fe0 <_init+0x28>

00000000004012e0 <vasprintf@plt>:
  4012e0:	ff 25 92 1e 05 00    	jmpq   *0x51e92(%rip)        # 453178 <_GLOBAL_OFFSET_TABLE_+0x190>
  4012e6:	68 2f 00 00 00       	pushq  $0x2f
  4012eb:	e9 f0 fc ff ff       	jmpq   400fe0 <_init+0x28>

Disassembly of section .text:

00000000004012f0 <_start>:
  4012f0:	31 ed                	xor    %ebp,%ebp
  4012f2:	49 89 d1             	mov    %rdx,%r9
  4012f5:	5e                   	pop    %rsi
  4012f6:	48 89 e2             	mov    %rsp,%rdx
  4012f9:	48 83 e4 f0          	and    $0xfffffffffffffff0,%rsp
  4012fd:	50                   	push   %rax
  4012fe:	54                   	push   %rsp
  4012ff:	49 c7 c0 60 6b 44 00 	mov    $0x446b60,%r8
  401306:	48 c7 c1 f0 6a 44 00 	mov    $0x446af0,%rcx
  40130d:	48 c7 c7 f0 13 40 00 	mov    $0x4013f0,%rdi
  401314:	e8 d7 fc ff ff       	callq  400ff0 <__libc_start_main@plt>
  401319:	f4                   	hlt    
  40131a:	66 0f 1f 44 00 00    	nopw   0x0(%rax,%rax,1)

0000000000401320 <deregister_tm_clones>:
  401320:	b8 df 33 45 00       	mov    $0x4533df,%eax
  401325:	55                   	push   %rbp
  401326:	48 2d d8 33 45 00    	sub    $0x4533d8,%rax
  40132c:	48 83 f8 0e          	cmp    $0xe,%rax
  401330:	48 89 e5             	mov    %rsp,%rbp
  401333:	76 1b                	jbe    401350 <deregister_tm_clones+0x30>
  401335:	b8 00 00 00 00       	mov    $0x0,%eax
  40133a:	48 85 c0             	test   %rax,%rax
  40133d:	74 11                	je     401350 <deregister_tm_clones+0x30>
  40133f:	5d                   	pop    %rbp
  401340:	bf d8 33 45 00       	mov    $0x4533d8,%edi
  401345:	ff e0                	jmpq   *%rax
  401347:	66 0f 1f 84 00 00 00 	nopw   0x0(%rax,%rax,1)
  40134e:	00 00 
  401350:	5d                   	pop    %rbp
  401351:	c3                   	retq   
  401352:	0f 1f 40 00          	nopl   0x0(%rax)
  401356:	66 2e 0f 1f 84 00 00 	nopw   %cs:0x0(%rax,%rax,1)
  40135d:	00 00 00 

0000000000401360 <register_tm_clones>:
  401360:	be d8 33 45 00       	mov    $0x4533d8,%esi
  401365:	55                   	push   %rbp
  401366:	48 81 ee d8 33 45 00 	sub    $0x4533d8,%rsi
  40136d:	48 c1 fe 03          	sar    $0x3,%rsi
  401371:	48 89 e5             	mov    %rsp,%rbp
  401374:	48 89 f0             	mov    %rsi,%rax
  401377:	48 c1 e8 3f          	shr    $0x3f,%rax
  40137b:	48 01 c6             	add    %rax,%rsi
  40137e:	48 d1 fe             	sar    %rsi
  401381:	74 15                	je     401398 <register_tm_clones+0x38>
  401383:	b8 00 00 00 00       	mov    $0x0,%eax
  401388:	48 85 c0             	test   %rax,%rax
  40138b:	74 0b                	je     401398 <register_tm_clones+0x38>
  40138d:	5d                   	pop    %rbp
  40138e:	bf d8 33 45 00       	mov    $0x4533d8,%edi
  401393:	ff e0                	jmpq   *%rax
  401395:	0f 1f 00             	nopl   (%rax)
  401398:	5d                   	pop    %rbp
  401399:	c3                   	retq   
  40139a:	66 0f 1f 44 00 00    	nopw   0x0(%rax,%rax,1)

00000000004013a0 <__do_global_dtors_aux>:
  4013a0:	80 3d 39 20 05 00 00 	cmpb   $0x0,0x52039(%rip)        # 4533e0 <completed.7594>
  4013a7:	75 11                	jne    4013ba <__do_global_dtors_aux+0x1a>
  4013a9:	55                   	push   %rbp
  4013aa:	48 89 e5             	mov    %rsp,%rbp
  4013ad:	e8 6e ff ff ff       	callq  401320 <deregister_tm_clones>
  4013b2:	5d                   	pop    %rbp
  4013b3:	c6 05 26 20 05 00 01 	movb   $0x1,0x52026(%rip)        # 4533e0 <completed.7594>
  4013ba:	f3 c3                	repz retq 
  4013bc:	0f 1f 40 00          	nopl   0x0(%rax)

00000000004013c0 <frame_dummy>:
  4013c0:	bf e8 2d 45 00       	mov    $0x452de8,%edi
  4013c5:	48 83 3f 00          	cmpq   $0x0,(%rdi)
  4013c9:	75 05                	jne    4013d0 <frame_dummy+0x10>
  4013cb:	eb 93                	jmp    401360 <register_tm_clones>
  4013cd:	0f 1f 00             	nopl   (%rax)
  4013d0:	b8 00 00 00 00       	mov    $0x0,%eax
  4013d5:	48 85 c0             	test   %rax,%rax
  4013d8:	74 f1                	je     4013cb <frame_dummy+0xb>
  4013da:	55                   	push   %rbp
  4013db:	48 89 e5             	mov    %rsp,%rbp
  4013de:	ff d0                	callq  *%rax
  4013e0:	5d                   	pop    %rbp
  4013e1:	e9 7a ff ff ff       	jmpq   401360 <register_tm_clones>
  4013e6:	66 90                	xchg   %ax,%ax
  4013e8:	0f 1f 84 00 00 00 00 	nopl   0x0(%rax,%rax,1)
  4013ef:	00 

00000000004013f0 <main>:
  4013f0:	55                   	push   %rbp
  4013f1:	48 89 e5             	mov    %rsp,%rbp
  4013f4:	48 81 ec e0 18 00 00 	sub    $0x18e0,%rsp
  4013fb:	e8 11 41 04 00       	callq  445511 <populate_keys>
  401400:	48 b8 00 33 45 00 00 	movabs $0x453300,%rax
  401407:	00 00 00 
  40140a:	b9 d0 00 00 00       	mov    $0xd0,%ecx
  40140f:	89 ce                	mov    %ecx,%esi
  401411:	48 89 c7             	mov    %rax,%rdi
  401414:	e8 32 4e 04 00       	callq  44624b <encrypt_globals>
  401419:	48 89 85 48 ea ff ff 	mov    %rax,-0x15b8(%rbp)
  401420:	e8 31 45 04 00       	callq  445956 <writeback_cache>
  401425:	b9 01 00 00 00       	mov    $0x1,%ecx
  40142a:	89 ce                	mov    %ecx,%esi
  40142c:	48 bf d0 33 45 00 00 	movabs $0x4533d0,%rdi
  401433:	00 00 00 
  401436:	e8 10 4e 04 00       	callq  44624b <encrypt_globals>
  40143b:	b9 01 00 00 00       	mov    $0x1,%ecx
  401440:	89 ce                	mov    %ecx,%esi
  401442:	48 bf 60 32 45 00 00 	movabs $0x453260,%rdi
  401449:	00 00 00 
  40144c:	48 89 85 40 ea ff ff 	mov    %rax,-0x15c0(%rbp)
  401453:	e8 f3 4d 04 00       	callq  44624b <encrypt_globals>
  401458:	48 89 85 38 ea ff ff 	mov    %rax,-0x15c8(%rbp)
  40145f:	e8 f2 44 04 00       	callq  445956 <writeback_cache>
  401464:	b9 01 00 00 00       	mov    $0x1,%ecx
  401469:	89 ce                	mov    %ecx,%esi
  40146b:	48 bf 20 34 45 00 00 	movabs $0x453420,%rdi
  401472:	00 00 00 
  401475:	e8 d1 4d 04 00       	callq  44624b <encrypt_globals>
  40147a:	48 89 85 30 ea ff ff 	mov    %rax,-0x15d0(%rbp)
  401481:	e8 d0 44 04 00       	callq  445956 <writeback_cache>
  401486:	b9 01 00 00 00       	mov    $0x1,%ecx
  40148b:	89 ce                	mov    %ecx,%esi
  40148d:	48 bf 40 32 45 00 00 	movabs $0x453240,%rdi
  401494:	00 00 00 
  401497:	e8 af 4d 04 00       	callq  44624b <encrypt_globals>
  40149c:	48 89 85 28 ea ff ff 	mov    %rax,-0x15d8(%rbp)
  4014a3:	e8 ae 44 04 00       	callq  445956 <writeback_cache>
  4014a8:	b9 01 00 00 00       	mov    $0x1,%ecx
  4014ad:	89 ce                	mov    %ecx,%esi
  4014af:	48 bf 20 32 45 00 00 	movabs $0x453220,%rdi
  4014b6:	00 00 00 
  4014b9:	e8 8d 4d 04 00       	callq  44624b <encrypt_globals>
  4014be:	48 89 85 20 ea ff ff 	mov    %rax,-0x15e0(%rbp)
  4014c5:	e8 8c 44 04 00       	callq  445956 <writeback_cache>
  4014ca:	b9 01 00 00 00       	mov    $0x1,%ecx
  4014cf:	89 ce                	mov    %ecx,%esi
  4014d1:	48 bf 00 32 45 00 00 	movabs $0x453200,%rdi
  4014d8:	00 00 00 
  4014db:	e8 6b 4d 04 00       	callq  44624b <encrypt_globals>
  4014e0:	48 89 85 18 ea ff ff 	mov    %rax,-0x15e8(%rbp)
  4014e7:	e8 6a 44 04 00       	callq  445956 <writeback_cache>
  4014ec:	b9 01 00 00 00       	mov    $0x1,%ecx
  4014f1:	89 ce                	mov    %ecx,%esi
  4014f3:	48 bf e0 31 45 00 00 	movabs $0x4531e0,%rdi
  4014fa:	00 00 00 
  4014fd:	e8 49 4d 04 00       	callq  44624b <encrypt_globals>
  401502:	48 89 85 10 ea ff ff 	mov    %rax,-0x15f0(%rbp)
  401509:	e8 48 44 04 00       	callq  445956 <writeback_cache>
  40150e:	b9 01 00 00 00       	mov    $0x1,%ecx
  401513:	89 ce                	mov    %ecx,%esi
  401515:	48 bf c0 31 45 00 00 	movabs $0x4531c0,%rdi
  40151c:	00 00 00 
  40151f:	e8 27 4d 04 00       	callq  44624b <encrypt_globals>
  401524:	31 c9                	xor    %ecx,%ecx
  401526:	89 ce                	mov    %ecx,%esi
  401528:	31 c9                	xor    %ecx,%ecx
  40152a:	ba 28 02 00 00       	mov    $0x228,%edx
  40152f:	41 b8 a0 00 00 00    	mov    $0xa0,%r8d
  401535:	44 89 c7             	mov    %r8d,%edi
  401538:	41 b8 60 01 00 00    	mov    $0x160,%r8d
  40153e:	45 89 c1             	mov    %r8d,%r9d
  401541:	49 ba c0 6d 44 00 00 	movabs $0x446dc0,%r10
  401548:	00 00 00 
  40154b:	c7 85 c4 f7 ff ff 00 	movl   $0x0,-0x83c(%rbp)
  401552:	00 00 00 
  401555:	4c 89 95 a8 f3 ff ff 	mov    %r10,-0xc58(%rbp)
  40155c:	4c 8d 95 b8 f7 ff ff 	lea    -0x848(%rbp),%r10
  401563:	4c 89 95 c8 f7 ff ff 	mov    %r10,-0x838(%rbp)
  40156a:	4c 8b 95 c8 f7 ff ff 	mov    -0x838(%rbp),%r10
  401571:	41 c7 02 ff ff ff ff 	movl   $0xffffffff,(%r10)
  401578:	4c 8d 95 b0 f7 ff ff 	lea    -0x850(%rbp),%r10
  40157f:	4c 89 95 00 f8 ff ff 	mov    %r10,-0x800(%rbp)
  401586:	4c 8b 95 00 f8 ff ff 	mov    -0x800(%rbp),%r10
  40158d:	41 c7 02 ff ff ff ff 	movl   $0xffffffff,(%r10)
  401594:	4c 8d 95 58 ed ff ff 	lea    -0x12a8(%rbp),%r10
  40159b:	4c 89 95 08 f8 ff ff 	mov    %r10,-0x7f8(%rbp)
  4015a2:	4c 8b 95 08 f8 ff ff 	mov    -0x7f8(%rbp),%r10
  4015a9:	48 89 bd 08 ea ff ff 	mov    %rdi,-0x15f8(%rbp)
  4015b0:	4c 89 d7             	mov    %r10,%rdi
  4015b3:	48 89 b5 00 ea ff ff 	mov    %rsi,-0x1600(%rbp)
  4015ba:	89 ce                	mov    %ecx,%esi
  4015bc:	48 89 95 f8 e9 ff ff 	mov    %rdx,-0x1608(%rbp)
  4015c3:	4c 89 ca             	mov    %r9,%rdx
  4015c6:	48 89 85 f0 e9 ff ff 	mov    %rax,-0x1610(%rbp)
  4015cd:	89 8d ec e9 ff ff    	mov    %ecx,-0x1614(%rbp)
  4015d3:	e8 48 fa ff ff       	callq  401020 <memset@plt>
  4015d8:	48 8d 85 b8 ec ff ff 	lea    -0x1348(%rbp),%rax
  4015df:	48 89 85 40 f8 ff ff 	mov    %rax,-0x7c0(%rbp)
  4015e6:	48 8b 85 40 f8 ff ff 	mov    -0x7c0(%rbp),%rax
  4015ed:	48 89 c7             	mov    %rax,%rdi
  4015f0:	8b b5 ec e9 ff ff    	mov    -0x1614(%rbp),%esi
  4015f6:	48 8b 95 08 ea ff ff 	mov    -0x15f8(%rbp),%rdx
  4015fd:	e8 1e fa ff ff       	callq  401020 <memset@plt>
  401602:	48 8d 85 90 ea ff ff 	lea    -0x1570(%rbp),%rax
  401609:	48 89 85 48 f8 ff ff 	mov    %rax,-0x7b8(%rbp)
  401610:	48 8b 85 48 f8 ff ff 	mov    -0x7b8(%rbp),%rax
  401617:	48 89 c7             	mov    %rax,%rdi
  40161a:	8b b5 ec e9 ff ff    	mov    -0x1614(%rbp),%esi
  401620:	48 8b 95 f8 e9 ff ff 	mov    -0x1608(%rbp),%rdx
  401627:	e8 f4 f9 ff ff       	callq  401020 <memset@plt>
  40162c:	48 8d 85 50 ea ff ff 	lea    -0x15b0(%rbp),%rax
  401633:	48 89 85 80 f8 ff ff 	mov    %rax,-0x780(%rbp)
  40163a:	48 8b 85 80 f8 ff ff 	mov    -0x780(%rbp),%rax
  401641:	48 89 c7             	mov    %rax,%rdi
  401644:	48 8b b5 00 ea ff ff 	mov    -0x1600(%rbp),%rsi
  40164b:	e8 ac 46 04 00       	callq  445cfc <setEncryptedValueQWord>
  401650:	31 c9                	xor    %ecx,%ecx
  401652:	89 ce                	mov    %ecx,%esi
  401654:	48 8b 95 80 f8 ff ff 	mov    -0x780(%rbp),%rdx
  40165b:	48 83 c2 08          	add    $0x8,%rdx
  40165f:	48 89 d7             	mov    %rdx,%rdi
  401662:	48 89 85 e0 e9 ff ff 	mov    %rax,-0x1620(%rbp)
  401669:	e8 8e 46 04 00       	callq  445cfc <setEncryptedValueQWord>
  40166e:	31 c9                	xor    %ecx,%ecx
  401670:	41 b8 6c 00 00 00    	mov    $0x6c,%r8d
  401676:	44 89 c2             	mov    %r8d,%edx
  401679:	41 b8 20 03 00 00    	mov    $0x320,%r8d
  40167f:	44 89 c6             	mov    %r8d,%esi
  401682:	48 8d bd 10 f0 ff ff 	lea    -0xff0(%rbp),%rdi
  401689:	48 89 bd 88 f8 ff ff 	mov    %rdi,-0x778(%rbp)
  401690:	48 8b bd 88 f8 ff ff 	mov    -0x778(%rbp),%rdi
  401697:	c7 47 70 00 00 00 00 	movl   $0x0,0x70(%rdi)
  40169e:	48 8b bd 88 f8 ff ff 	mov    -0x778(%rbp),%rdi
  4016a5:	48 83 c7 78          	add    $0x78,%rdi
  4016a9:	48 89 b5 d8 e9 ff ff 	mov    %rsi,-0x1628(%rbp)
  4016b0:	89 ce                	mov    %ecx,%esi
  4016b2:	4c 8b 8d d8 e9 ff ff 	mov    -0x1628(%rbp),%r9
  4016b9:	48 89 95 d0 e9 ff ff 	mov    %rdx,-0x1630(%rbp)
  4016c0:	4c 89 ca             	mov    %r9,%rdx
  4016c3:	48 89 85 c8 e9 ff ff 	mov    %rax,-0x1638(%rbp)
  4016ca:	89 8d c4 e9 ff ff    	mov    %ecx,-0x163c(%rbp)
  4016d0:	e8 4b f9 ff ff       	callq  401020 <memset@plt>
  4016d5:	48 8b 85 88 f8 ff ff 	mov    -0x778(%rbp),%rax
  4016dc:	c7 00 00 00 00 00    	movl   $0x0,(%rax)
  4016e2:	48 8b 85 88 f8 ff ff 	mov    -0x778(%rbp),%rax
  4016e9:	48 83 c0 04          	add    $0x4,%rax
  4016ed:	48 89 85 90 f8 ff ff 	mov    %rax,-0x770(%rbp)
  4016f4:	48 8b 85 90 f8 ff ff 	mov    -0x770(%rbp),%rax
  4016fb:	48 89 c7             	mov    %rax,%rdi
  4016fe:	8b b5 c4 e9 ff ff    	mov    -0x163c(%rbp),%esi
  401704:	48 8b 95 d0 e9 ff ff 	mov    -0x1630(%rbp),%rdx
  40170b:	e8 10 f9 ff ff       	callq  401020 <memset@plt>
  401710:	48 8b 85 88 f8 ff ff 	mov    -0x778(%rbp),%rax
  401717:	48 89 85 c0 f8 ff ff 	mov    %rax,-0x740(%rbp)
  40171e:	48 b8 70 ad 42 00 00 	movabs $0x42ad70,%rax
  401725:	00 00 00 
  401728:	48 89 85 b8 f8 ff ff 	mov    %rax,-0x748(%rbp)
  40172f:	48 c7 85 b0 f8 ff ff 	movq   $0x0,-0x750(%rbp)
  401736:	00 00 00 00 
  40173a:	48 c7 85 a8 f8 ff ff 	movq   $0x20,-0x758(%rbp)
  401741:	20 00 00 00 
  401745:	c7 85 a4 f8 ff ff 01 	movl   $0x1,-0x75c(%rbp)
  40174c:	00 00 00 
  40174f:	c7 85 9c f8 ff ff 00 	movl   $0x0,-0x764(%rbp)
  401756:	00 00 00 
  401759:	48 8b 85 c0 f8 ff ff 	mov    -0x740(%rbp),%rax
  401760:	8b 48 70             	mov    0x70(%rax),%ecx
  401763:	89 8d a0 f8 ff ff    	mov    %ecx,-0x760(%rbp)
  401769:	83 bd a0 f8 ff ff 14 	cmpl   $0x14,-0x760(%rbp)
  401770:	7c 0f                	jl     401781 <main+0x391>
  401772:	c7 85 9c f8 ff ff c2 	movl   $0xffffffc2,-0x764(%rbp)
  401779:	ff ff ff 
  40177c:	e9 9d 00 00 00       	jmpq   40181e <main+0x42e>
  401781:	48 8b 85 b8 f8 ff ff 	mov    -0x748(%rbp),%rax
  401788:	48 8b 8d c0 f8 ff ff 	mov    -0x740(%rbp),%rcx
  40178f:	48 83 c1 78          	add    $0x78,%rcx
  401793:	48 63 95 a0 f8 ff ff 	movslq -0x760(%rbp),%rdx
  40179a:	48 6b d2 28          	imul   $0x28,%rdx,%rdx
  40179e:	48 01 d1             	add    %rdx,%rcx
  4017a1:	48 89 01             	mov    %rax,(%rcx)
  4017a4:	48 8b 85 b0 f8 ff ff 	mov    -0x750(%rbp),%rax
  4017ab:	48 8b 8d c0 f8 ff ff 	mov    -0x740(%rbp),%rcx
  4017b2:	48 83 c1 78          	add    $0x78,%rcx
  4017b6:	48 63 95 a0 f8 ff ff 	movslq -0x760(%rbp),%rdx
  4017bd:	48 6b d2 28          	imul   $0x28,%rdx,%rdx
  4017c1:	48 01 d1             	add    %rdx,%rcx
  4017c4:	48 89 41 08          	mov    %rax,0x8(%rcx)
  4017c8:	48 8b 85 a8 f8 ff ff 	mov    -0x758(%rbp),%rax
  4017cf:	48 8b 8d c0 f8 ff ff 	mov    -0x740(%rbp),%rcx
  4017d6:	48 83 c1 78          	add    $0x78,%rcx
  4017da:	48 63 95 a0 f8 ff ff 	movslq -0x760(%rbp),%rdx
  4017e1:	48 6b d2 28          	imul   $0x28,%rdx,%rdx
  4017e5:	48 01 d1             	add    %rdx,%rcx
  4017e8:	48 89 41 18          	mov    %rax,0x18(%rcx)
  4017ec:	8b b5 a4 f8 ff ff    	mov    -0x75c(%rbp),%esi
  4017f2:	48 8b 85 c0 f8 ff ff 	mov    -0x740(%rbp),%rax
  4017f9:	48 83 c0 78          	add    $0x78,%rax
  4017fd:	48 63 8d a0 f8 ff ff 	movslq -0x760(%rbp),%rcx
  401804:	48 6b c9 28          	imul   $0x28,%rcx,%rcx
  401808:	48 01 c8             	add    %rcx,%rax
  40180b:	89 70 20             	mov    %esi,0x20(%rax)
  40180e:	48 8b 85 c0 f8 ff ff 	mov    -0x740(%rbp),%rax
  401815:	8b 70 70             	mov    0x70(%rax),%esi
  401818:	83 c6 01             	add    $0x1,%esi
  40181b:	89 70 70             	mov    %esi,0x70(%rax)
  40181e:	48 bf e0 6d 44 00 00 	movabs $0x446de0,%rdi
  401825:	00 00 00 
  401828:	31 f6                	xor    %esi,%esi
  40182a:	b8 58 01 00 00       	mov    $0x158,%eax
  40182f:	89 c2                	mov    %eax,%edx
  401831:	48 8d 8d b8 ee ff ff 	lea    -0x1148(%rbp),%rcx
  401838:	48 89 8d 20 fa ff ff 	mov    %rcx,-0x5e0(%rbp)
  40183f:	48 8b 8d 20 fa ff ff 	mov    -0x5e0(%rbp),%rcx
  401846:	48 89 bd b8 e9 ff ff 	mov    %rdi,-0x1648(%rbp)
  40184d:	48 89 cf             	mov    %rcx,%rdi
  401850:	e8 cb f7 ff ff       	callq  401020 <memset@plt>
  401855:	48 8b bd b8 e9 ff ff 	mov    -0x1648(%rbp),%rdi
  40185c:	b0 00                	mov    $0x0,%al
  40185e:	e8 cd f7 ff ff       	callq  401030 <printf@plt>
  401863:	48 8b 3c 25 68 57 45 	mov    0x455768,%rdi
  40186a:	00 
  40186b:	89 85 b4 e9 ff ff    	mov    %eax,-0x164c(%rbp)
  401871:	e8 ca f7 ff ff       	callq  401040 <fflush@plt>
  401876:	48 8b 34 25 c0 32 45 	mov    0x4532c0,%rsi
  40187d:	00 
  40187e:	48 8b 14 25 e0 c9 44 	mov    0x44c9e0,%rdx
  401885:	00 
  401886:	48 8d bd 90 ea ff ff 	lea    -0x1570(%rbp),%rdi
  40188d:	89 85 b0 e9 ff ff    	mov    %eax,-0x1650(%rbp)
  401893:	e8 98 4b 01 00       	callq  416430 <mbedtls_x509_crt_parse>
  401898:	89 85 c0 f7 ff ff    	mov    %eax,-0x840(%rbp)
  40189e:	83 bd c0 f7 ff ff 00 	cmpl   $0x0,-0x840(%rbp)
  4018a5:	74 22                	je     4018c9 <main+0x4d9>
  4018a7:	48 bf 10 6e 44 00 00 	movabs $0x446e10,%rdi
  4018ae:	00 00 00 
  4018b1:	8b b5 c0 f7 ff ff    	mov    -0x840(%rbp),%esi
  4018b7:	b0 00                	mov    $0x0,%al
  4018b9:	e8 72 f7 ff ff       	callq  401030 <printf@plt>
  4018be:	89 85 ac e9 ff ff    	mov    %eax,-0x1654(%rbp)
  4018c4:	e9 14 27 00 00       	jmpq   403fdd <main+0x2bed>
  4018c9:	48 be 00 b5 44 00 00 	movabs $0x44b500,%rsi
  4018d0:	00 00 00 
  4018d3:	48 8b 14 25 40 bf 44 	mov    0x44bf40,%rdx
  4018da:	00 
  4018db:	48 8d bd 90 ea ff ff 	lea    -0x1570(%rbp),%rdi
  4018e2:	e8 49 4b 01 00       	callq  416430 <mbedtls_x509_crt_parse>
  4018e7:	89 85 c0 f7 ff ff    	mov    %eax,-0x840(%rbp)
  4018ed:	83 bd c0 f7 ff ff 00 	cmpl   $0x0,-0x840(%rbp)
  4018f4:	74 22                	je     401918 <main+0x528>
  4018f6:	48 bf 10 6e 44 00 00 	movabs $0x446e10,%rdi
  4018fd:	00 00 00 
  401900:	8b b5 c0 f7 ff ff    	mov    -0x840(%rbp),%esi
  401906:	b0 00                	mov    $0x0,%al
  401908:	e8 23 f7 ff ff       	callq  401030 <printf@plt>
  40190d:	89 85 a8 e9 ff ff    	mov    %eax,-0x1658(%rbp)
  401913:	e9 c5 26 00 00       	jmpq   403fdd <main+0x2bed>
  401918:	31 c0                	xor    %eax,%eax
  40191a:	89 c1                	mov    %eax,%ecx
  40191c:	48 8b 34 25 d0 32 45 	mov    0x4532d0,%rsi
  401923:	00 
  401924:	48 8b 14 25 f0 c9 44 	mov    0x44c9f0,%rdx
  40192b:	00 
  40192c:	48 8d bd 50 ea ff ff 	lea    -0x15b0(%rbp),%rdi
  401933:	48 89 8d a0 e9 ff ff 	mov    %rcx,-0x1660(%rbp)
  40193a:	4c 8b 85 a0 e9 ff ff 	mov    -0x1660(%rbp),%r8
  401941:	e8 ea 1b 03 00       	callq  433530 <mbedtls_pk_parse_key>
  401946:	89 85 c0 f7 ff ff    	mov    %eax,-0x840(%rbp)
  40194c:	83 bd c0 f7 ff ff 00 	cmpl   $0x0,-0x840(%rbp)
  401953:	74 22                	je     401977 <main+0x587>
  401955:	48 bf 50 6e 44 00 00 	movabs $0x446e50,%rdi
  40195c:	00 00 00 
  40195f:	8b b5 c0 f7 ff ff    	mov    -0x840(%rbp),%esi
  401965:	b0 00                	mov    $0x0,%al
  401967:	e8 c4 f6 ff ff       	callq  401030 <printf@plt>
  40196c:	89 85 9c e9 ff ff    	mov    %eax,-0x1664(%rbp)
  401972:	e9 66 26 00 00       	jmpq   403fdd <main+0x2bed>
  401977:	48 bf 80 6e 44 00 00 	movabs $0x446e80,%rdi
  40197e:	00 00 00 
  401981:	b0 00                	mov    $0x0,%al
  401983:	e8 a8 f6 ff ff       	callq  401030 <printf@plt>
  401988:	48 bf 90 6e 44 00 00 	movabs $0x446e90,%rdi
  40198f:	00 00 00 
  401992:	89 85 98 e9 ff ff    	mov    %eax,-0x1668(%rbp)
  401998:	b0 00                	mov    $0x0,%al
  40199a:	e8 91 f6 ff ff       	callq  401030 <printf@plt>
  40199f:	48 8b 3c 25 68 57 45 	mov    0x455768,%rdi
  4019a6:	00 
  4019a7:	89 85 94 e9 ff ff    	mov    %eax,-0x166c(%rbp)
  4019ad:	e8 8e f6 ff ff       	callq  401040 <fflush@plt>
  4019b2:	b9 01 00 00 00       	mov    $0x1,%ecx
  4019b7:	89 ce                	mov    %ecx,%esi
  4019b9:	48 bf c0 6e 44 00 00 	movabs $0x446ec0,%rdi
  4019c0:	00 00 00 
  4019c3:	48 8d 95 b8 f7 ff ff 	lea    -0x848(%rbp),%rdx
  4019ca:	48 89 95 88 fa ff ff 	mov    %rdx,-0x578(%rbp)
  4019d1:	48 c7 85 80 fa ff ff 	movq   $0x0,-0x580(%rbp)
  4019d8:	00 00 00 00 
  4019dc:	48 89 bd 78 fa ff ff 	mov    %rdi,-0x588(%rbp)
  4019e3:	c7 85 74 fa ff ff 00 	movl   $0x0,-0x58c(%rbp)
  4019ea:	00 00 00 
  4019ed:	bf 0d 00 00 00       	mov    $0xd,%edi
  4019f2:	89 85 90 e9 ff ff    	mov    %eax,-0x1670(%rbp)
  4019f8:	e8 53 f6 ff ff       	callq  401050 <__sysv_signal@plt>
  4019fd:	31 f6                	xor    %esi,%esi
  4019ff:	b9 30 00 00 00       	mov    $0x30,%ecx
  401a04:	89 ca                	mov    %ecx,%edx
  401a06:	c7 85 6c fa ff ff 00 	movl   $0x0,-0x594(%rbp)
  401a0d:	00 00 00 
  401a10:	4c 8d 85 38 fa ff ff 	lea    -0x5c8(%rbp),%r8
  401a17:	4c 89 c7             	mov    %r8,%rdi
  401a1a:	48 89 85 88 e9 ff ff 	mov    %rax,-0x1678(%rbp)
  401a21:	e8 fa f5 ff ff       	callq  401020 <memset@plt>
  401a26:	c7 85 3c fa ff ff 00 	movl   $0x0,-0x5c4(%rbp)
  401a2d:	00 00 00 
  401a30:	8b 8d 74 fa ff ff    	mov    -0x58c(%rbp),%ecx
  401a36:	83 f9 01             	cmp    $0x1,%ecx
  401a39:	b9 02 00 00 00       	mov    $0x2,%ecx
  401a3e:	be 01 00 00 00       	mov    $0x1,%esi
  401a43:	0f 44 f1             	cmove  %ecx,%esi
  401a46:	89 b5 40 fa ff ff    	mov    %esi,-0x5c0(%rbp)
  401a4c:	8b 8d 74 fa ff ff    	mov    -0x58c(%rbp),%ecx
  401a52:	83 f9 01             	cmp    $0x1,%ecx
  401a55:	b9 11 00 00 00       	mov    $0x11,%ecx
  401a5a:	be 06 00 00 00       	mov    $0x6,%esi
  401a5f:	0f 44 f1             	cmove  %ecx,%esi
  401a62:	89 b5 44 fa ff ff    	mov    %esi,-0x5bc(%rbp)
  401a68:	48 83 bd 80 fa ff ff 	cmpq   $0x0,-0x580(%rbp)
  401a6f:	00 
  401a70:	75 0a                	jne    401a7c <main+0x68c>
  401a72:	c7 85 38 fa ff ff 01 	movl   $0x1,-0x5c8(%rbp)
  401a79:	00 00 00 
  401a7c:	48 8b bd 80 fa ff ff 	mov    -0x580(%rbp),%rdi
  401a83:	48 8b b5 78 fa ff ff 	mov    -0x588(%rbp),%rsi
  401a8a:	48 8d 95 38 fa ff ff 	lea    -0x5c8(%rbp),%rdx
  401a91:	48 8d 8d 30 fa ff ff 	lea    -0x5d0(%rbp),%rcx
  401a98:	e8 c3 f5 ff ff       	callq  401060 <getaddrinfo@plt>
  401a9d:	83 f8 00             	cmp    $0x0,%eax
  401aa0:	74 0f                	je     401ab1 <main+0x6c1>
  401aa2:	c7 85 94 fa ff ff ae 	movl   $0xffffffae,-0x56c(%rbp)
  401aa9:	ff ff ff 
  401aac:	e9 8d 01 00 00       	jmpq   401c3e <main+0x84e>
  401ab1:	c7 85 6c fa ff ff ae 	movl   $0xffffffae,-0x594(%rbp)
  401ab8:	ff ff ff 
  401abb:	48 8b 85 30 fa ff ff 	mov    -0x5d0(%rbp),%rax
  401ac2:	48 89 85 28 fa ff ff 	mov    %rax,-0x5d8(%rbp)
  401ac9:	48 83 bd 28 fa ff ff 	cmpq   $0x0,-0x5d8(%rbp)
  401ad0:	00 
  401ad1:	0f 84 4f 01 00 00    	je     401c26 <main+0x836>
  401ad7:	48 8b 85 28 fa ff ff 	mov    -0x5d8(%rbp),%rax
  401ade:	8b 78 04             	mov    0x4(%rax),%edi
  401ae1:	48 8b 85 28 fa ff ff 	mov    -0x5d8(%rbp),%rax
  401ae8:	8b 70 08             	mov    0x8(%rax),%esi
  401aeb:	48 8b 85 28 fa ff ff 	mov    -0x5d8(%rbp),%rax
  401af2:	8b 50 0c             	mov    0xc(%rax),%edx
  401af5:	e8 76 f5 ff ff       	callq  401070 <socket@plt>
  401afa:	48 8b 8d 88 fa ff ff 	mov    -0x578(%rbp),%rcx
  401b01:	89 01                	mov    %eax,(%rcx)
  401b03:	48 8b 8d 88 fa ff ff 	mov    -0x578(%rbp),%rcx
  401b0a:	83 39 00             	cmpl   $0x0,(%rcx)
  401b0d:	7d 0f                	jge    401b1e <main+0x72e>
  401b0f:	c7 85 6c fa ff ff be 	movl   $0xffffffbe,-0x594(%rbp)
  401b16:	ff ff ff 
  401b19:	e9 f1 00 00 00       	jmpq   401c0f <main+0x81f>
  401b1e:	c7 85 70 fa ff ff 01 	movl   $0x1,-0x590(%rbp)
  401b25:	00 00 00 
  401b28:	48 8b 85 88 fa ff ff 	mov    -0x578(%rbp),%rax
  401b2f:	8b 38                	mov    (%rax),%edi
  401b31:	48 8d 85 70 fa ff ff 	lea    -0x590(%rbp),%rax
  401b38:	be 01 00 00 00       	mov    $0x1,%esi
  401b3d:	ba 02 00 00 00       	mov    $0x2,%edx
  401b42:	48 89 c1             	mov    %rax,%rcx
  401b45:	41 b8 04 00 00 00    	mov    $0x4,%r8d
  401b4b:	e8 30 f5 ff ff       	callq  401080 <setsockopt@plt>
  401b50:	83 f8 00             	cmp    $0x0,%eax
  401b53:	74 23                	je     401b78 <main+0x788>
  401b55:	48 8b 85 88 fa ff ff 	mov    -0x578(%rbp),%rax
  401b5c:	8b 38                	mov    (%rax),%edi
  401b5e:	e8 2d f5 ff ff       	callq  401090 <close@plt>
  401b63:	c7 85 6c fa ff ff be 	movl   $0xffffffbe,-0x594(%rbp)
  401b6a:	ff ff ff 
  401b6d:	89 85 84 e9 ff ff    	mov    %eax,-0x167c(%rbp)
  401b73:	e9 97 00 00 00       	jmpq   401c0f <main+0x81f>
  401b78:	48 8b 85 88 fa ff ff 	mov    -0x578(%rbp),%rax
  401b7f:	8b 38                	mov    (%rax),%edi
  401b81:	48 8b 85 28 fa ff ff 	mov    -0x5d8(%rbp),%rax
  401b88:	48 8b 70 18          	mov    0x18(%rax),%rsi
  401b8c:	48 8b 85 28 fa ff ff 	mov    -0x5d8(%rbp),%rax
  401b93:	8b 50 10             	mov    0x10(%rax),%edx
  401b96:	e8 05 f5 ff ff       	callq  4010a0 <bind@plt>
  401b9b:	83 f8 00             	cmp    $0x0,%eax
  401b9e:	74 20                	je     401bc0 <main+0x7d0>
  401ba0:	48 8b 85 88 fa ff ff 	mov    -0x578(%rbp),%rax
  401ba7:	8b 38                	mov    (%rax),%edi
  401ba9:	e8 e2 f4 ff ff       	callq  401090 <close@plt>
  401bae:	c7 85 6c fa ff ff ba 	movl   $0xffffffba,-0x594(%rbp)
  401bb5:	ff ff ff 
  401bb8:	89 85 80 e9 ff ff    	mov    %eax,-0x1680(%rbp)
  401bbe:	eb 4f                	jmp    401c0f <main+0x81f>
  401bc0:	83 bd 74 fa ff ff 00 	cmpl   $0x0,-0x58c(%rbp)
  401bc7:	75 3a                	jne    401c03 <main+0x813>
  401bc9:	48 8b 85 88 fa ff ff 	mov    -0x578(%rbp),%rax
  401bd0:	8b 38                	mov    (%rax),%edi
  401bd2:	be 0a 00 00 00       	mov    $0xa,%esi
  401bd7:	e8 d4 f4 ff ff       	callq  4010b0 <listen@plt>
  401bdc:	83 f8 00             	cmp    $0x0,%eax
  401bdf:	74 20                	je     401c01 <main+0x811>
  401be1:	48 8b 85 88 fa ff ff 	mov    -0x578(%rbp),%rax
  401be8:	8b 38                	mov    (%rax),%edi
  401bea:	e8 a1 f4 ff ff       	callq  401090 <close@plt>
  401bef:	c7 85 6c fa ff ff b8 	movl   $0xffffffb8,-0x594(%rbp)
  401bf6:	ff ff ff 
  401bf9:	89 85 7c e9 ff ff    	mov    %eax,-0x1684(%rbp)
  401bff:	eb 0e                	jmp    401c0f <main+0x81f>
  401c01:	eb 00                	jmp    401c03 <main+0x813>
  401c03:	c7 85 6c fa ff ff 00 	movl   $0x0,-0x594(%rbp)
  401c0a:	00 00 00 
  401c0d:	eb 17                	jmp    401c26 <main+0x836>
  401c0f:	48 8b 85 28 fa ff ff 	mov    -0x5d8(%rbp),%rax
  401c16:	48 8b 40 28          	mov    0x28(%rax),%rax
  401c1a:	48 89 85 28 fa ff ff 	mov    %rax,-0x5d8(%rbp)
  401c21:	e9 a3 fe ff ff       	jmpq   401ac9 <main+0x6d9>
  401c26:	48 8b bd 30 fa ff ff 	mov    -0x5d0(%rbp),%rdi
  401c2d:	e8 8e f4 ff ff       	callq  4010c0 <freeaddrinfo@plt>
  401c32:	8b 85 6c fa ff ff    	mov    -0x594(%rbp),%eax
  401c38:	89 85 94 fa ff ff    	mov    %eax,-0x56c(%rbp)
  401c3e:	8b 85 94 fa ff ff    	mov    -0x56c(%rbp),%eax
  401c44:	89 85 c0 f7 ff ff    	mov    %eax,-0x840(%rbp)
  401c4a:	83 f8 00             	cmp    $0x0,%eax
  401c4d:	74 22                	je     401c71 <main+0x881>
  401c4f:	48 bf d0 6e 44 00 00 	movabs $0x446ed0,%rdi
  401c56:	00 00 00 
  401c59:	8b b5 c0 f7 ff ff    	mov    -0x840(%rbp),%esi
  401c5f:	b0 00                	mov    $0x0,%al
  401c61:	e8 ca f3 ff ff       	callq  401030 <printf@plt>
  401c66:	89 85 78 e9 ff ff    	mov    %eax,-0x1688(%rbp)
  401c6c:	e9 6c 23 00 00       	jmpq   403fdd <main+0x2bed>
  401c71:	48 bf 80 6e 44 00 00 	movabs $0x446e80,%rdi
  401c78:	00 00 00 
  401c7b:	b0 00                	mov    $0x0,%al
  401c7d:	e8 ae f3 ff ff       	callq  401030 <printf@plt>
  401c82:	48 bf 00 6f 44 00 00 	movabs $0x446f00,%rdi
  401c89:	00 00 00 
  401c8c:	89 85 74 e9 ff ff    	mov    %eax,-0x168c(%rbp)
  401c92:	b0 00                	mov    $0x0,%al
  401c94:	e8 97 f3 ff ff       	callq  401030 <printf@plt>
  401c99:	48 8b 3c 25 68 57 45 	mov    0x455768,%rdi
  401ca0:	00 
  401ca1:	89 85 70 e9 ff ff    	mov    %eax,-0x1690(%rbp)
  401ca7:	e8 94 f3 ff ff       	callq  401040 <fflush@plt>
  401cac:	48 8d bd c0 fa ff ff 	lea    -0x540(%rbp),%rdi
  401cb3:	31 c9                	xor    %ecx,%ecx
  401cb5:	ba 20 01 00 00       	mov    $0x120,%edx
  401cba:	be 20 00 00 00       	mov    $0x20,%esi
  401cbf:	41 89 f0             	mov    %esi,%r8d
  401cc2:	4c 8d 8d 10 f0 ff ff 	lea    -0xff0(%rbp),%r9
  401cc9:	4c 8b 95 a8 f3 ff ff 	mov    -0xc58(%rbp),%r10
  401cd0:	4c 8b 9d a8 f3 ff ff 	mov    -0xc58(%rbp),%r11
  401cd7:	48 89 bd 68 e9 ff ff 	mov    %rdi,-0x1698(%rbp)
  401cde:	4c 89 df             	mov    %r11,%rdi
  401ce1:	89 85 64 e9 ff ff    	mov    %eax,-0x169c(%rbp)
  401ce7:	4c 89 95 58 e9 ff ff 	mov    %r10,-0x16a8(%rbp)
  401cee:	89 8d 54 e9 ff ff    	mov    %ecx,-0x16ac(%rbp)
  401cf4:	48 89 95 48 e9 ff ff 	mov    %rdx,-0x16b8(%rbp)
  401cfb:	4c 89 85 40 e9 ff ff 	mov    %r8,-0x16c0(%rbp)
  401d02:	4c 89 8d 38 e9 ff ff 	mov    %r9,-0x16c8(%rbp)
  401d09:	e8 c2 f3 ff ff       	callq  4010d0 <strlen@plt>
  401d0e:	48 8d 95 b8 ee ff ff 	lea    -0x1148(%rbp),%rdx
  401d15:	48 89 95 b8 fa ff ff 	mov    %rdx,-0x548(%rbp)
  401d1c:	48 ba 30 a9 42 00 00 	movabs $0x42a930,%rdx
  401d23:	00 00 00 
  401d26:	48 89 95 b0 fa ff ff 	mov    %rdx,-0x550(%rbp)
  401d2d:	48 8b 95 38 e9 ff ff 	mov    -0x16c8(%rbp),%rdx
  401d34:	48 89 95 a8 fa ff ff 	mov    %rdx,-0x558(%rbp)
  401d3b:	48 8b bd 58 e9 ff ff 	mov    -0x16a8(%rbp),%rdi
  401d42:	48 89 bd a0 fa ff ff 	mov    %rdi,-0x560(%rbp)
  401d49:	48 89 85 98 fa ff ff 	mov    %rax,-0x568(%rbp)
  401d50:	48 8b 85 b8 fa ff ff 	mov    -0x548(%rbp),%rax
  401d57:	48 8b bd b0 fa ff ff 	mov    -0x550(%rbp),%rdi
  401d5e:	4c 8b 85 a8 fa ff ff 	mov    -0x558(%rbp),%r8
  401d65:	4c 8b 8d a0 fa ff ff 	mov    -0x560(%rbp),%r9
  401d6c:	4c 8b 95 98 fa ff ff 	mov    -0x568(%rbp),%r10
  401d73:	48 89 85 18 fb ff ff 	mov    %rax,-0x4e8(%rbp)
  401d7a:	48 89 bd 10 fb ff ff 	mov    %rdi,-0x4f0(%rbp)
  401d81:	4c 89 85 08 fb ff ff 	mov    %r8,-0x4f8(%rbp)
  401d88:	4c 89 8d 00 fb ff ff 	mov    %r9,-0x500(%rbp)
  401d8f:	4c 89 95 f8 fa ff ff 	mov    %r10,-0x508(%rbp)
  401d96:	48 c7 85 f0 fa ff ff 	movq   $0x20,-0x510(%rbp)
  401d9d:	20 00 00 00 
  401da1:	48 8b bd 68 e9 ff ff 	mov    -0x1698(%rbp),%rdi
  401da8:	8b b5 54 e9 ff ff    	mov    -0x16ac(%rbp),%esi
  401dae:	48 8b 95 40 e9 ff ff 	mov    -0x16c0(%rbp),%rdx
  401db5:	e8 66 f2 ff ff       	callq  401020 <memset@plt>
  401dba:	48 8b 85 18 fb ff ff 	mov    -0x4e8(%rbp),%rax
  401dc1:	48 83 c0 28          	add    $0x28,%rax
  401dc5:	48 89 85 28 fb ff ff 	mov    %rax,-0x4d8(%rbp)
  401dcc:	48 8b 85 28 fb ff ff 	mov    -0x4d8(%rbp),%rax
  401dd3:	48 89 c7             	mov    %rax,%rdi
  401dd6:	8b b5 54 e9 ff ff    	mov    -0x16ac(%rbp),%esi
  401ddc:	48 8b 95 48 e9 ff ff 	mov    -0x16b8(%rbp),%rdx
  401de3:	e8 38 f2 ff ff       	callq  401020 <memset@plt>
  401de8:	48 8b 85 10 fb ff ff 	mov    -0x4f0(%rbp),%rax
  401def:	48 8b 95 18 fb ff ff 	mov    -0x4e8(%rbp),%rdx
  401df6:	48 89 82 48 01 00 00 	mov    %rax,0x148(%rdx)
  401dfd:	48 8b 85 08 fb ff ff 	mov    -0x4f8(%rbp),%rax
  401e04:	48 8b 95 18 fb ff ff 	mov    -0x4e8(%rbp),%rdx
  401e0b:	48 89 82 50 01 00 00 	mov    %rax,0x150(%rdx)
  401e12:	48 8b 85 f0 fa ff ff 	mov    -0x510(%rbp),%rax
  401e19:	48 8b 95 18 fb ff ff 	mov    -0x4e8(%rbp),%rdx
  401e20:	48 89 42 18          	mov    %rax,0x18(%rdx)
  401e24:	48 8b 85 18 fb ff ff 	mov    -0x4e8(%rbp),%rax
  401e2b:	c7 40 20 10 27 00 00 	movl   $0x2710,0x20(%rax)
  401e32:	48 8b 85 18 fb ff ff 	mov    -0x4e8(%rbp),%rax
  401e39:	48 83 c0 28          	add    $0x28,%rax
  401e3d:	48 89 c7             	mov    %rax,%rdi
  401e40:	48 8b b5 68 e9 ff ff 	mov    -0x1698(%rbp),%rsi
  401e47:	ba 00 01 00 00       	mov    $0x100,%edx
  401e4c:	e8 ff 08 04 00       	callq  442750 <mbedtls_aes_setkey_enc>
  401e51:	89 85 ec fa ff ff    	mov    %eax,-0x514(%rbp)
  401e57:	83 f8 00             	cmp    $0x0,%eax
  401e5a:	74 0e                	je     401e6a <main+0xa7a>
  401e5c:	8b 85 ec fa ff ff    	mov    -0x514(%rbp),%eax
  401e62:	89 85 24 fb ff ff    	mov    %eax,-0x4dc(%rbp)
  401e68:	eb 3d                	jmp    401ea7 <main+0xab7>
  401e6a:	48 8b bd 18 fb ff ff 	mov    -0x4e8(%rbp),%rdi
  401e71:	48 8b b5 00 fb ff ff 	mov    -0x500(%rbp),%rsi
  401e78:	48 8b 95 f8 fa ff ff 	mov    -0x508(%rbp),%rdx
  401e7f:	e8 2c 5e 02 00       	callq  427cb0 <mbedtls_ctr_drbg_reseed>
  401e84:	89 85 ec fa ff ff    	mov    %eax,-0x514(%rbp)
  401e8a:	83 f8 00             	cmp    $0x0,%eax
  401e8d:	74 0e                	je     401e9d <main+0xaad>
  401e8f:	8b 85 ec fa ff ff    	mov    -0x514(%rbp),%eax
  401e95:	89 85 24 fb ff ff    	mov    %eax,-0x4dc(%rbp)
  401e9b:	eb 0a                	jmp    401ea7 <main+0xab7>
  401e9d:	c7 85 24 fb ff ff 00 	movl   $0x0,-0x4dc(%rbp)
  401ea4:	00 00 00 
  401ea7:	8b 85 24 fb ff ff    	mov    -0x4dc(%rbp),%eax
  401ead:	89 85 c0 f7 ff ff    	mov    %eax,-0x840(%rbp)
  401eb3:	83 f8 00             	cmp    $0x0,%eax
  401eb6:	74 22                	je     401eda <main+0xaea>
  401eb8:	48 bf 30 6f 44 00 00 	movabs $0x446f30,%rdi
  401ebf:	00 00 00 
  401ec2:	8b b5 c0 f7 ff ff    	mov    -0x840(%rbp),%esi
  401ec8:	b0 00                	mov    $0x0,%al
  401eca:	e8 61 f1 ff ff       	callq  401030 <printf@plt>
  401ecf:	89 85 34 e9 ff ff    	mov    %eax,-0x16cc(%rbp)
  401ed5:	e9 03 21 00 00       	jmpq   403fdd <main+0x2bed>
  401eda:	48 bf 80 6e 44 00 00 	movabs $0x446e80,%rdi
  401ee1:	00 00 00 
  401ee4:	b0 00                	mov    $0x0,%al
  401ee6:	e8 45 f1 ff ff       	callq  401030 <printf@plt>
  401eeb:	48 bf 60 6f 44 00 00 	movabs $0x446f60,%rdi
  401ef2:	00 00 00 
  401ef5:	89 85 30 e9 ff ff    	mov    %eax,-0x16d0(%rbp)
  401efb:	b0 00                	mov    $0x0,%al
  401efd:	e8 2e f1 ff ff       	callq  401030 <printf@plt>
  401f02:	48 8b 3c 25 68 57 45 	mov    0x455768,%rdi
  401f09:	00 
  401f0a:	89 85 2c e9 ff ff    	mov    %eax,-0x16d4(%rbp)
  401f10:	e8 2b f1 ff ff       	callq  401040 <fflush@plt>
  401f15:	48 8d bd b8 ec ff ff 	lea    -0x1348(%rbp),%rdi
  401f1c:	48 89 bd 40 fb ff ff 	mov    %rdi,-0x4c0(%rbp)
  401f23:	c7 85 3c fb ff ff 01 	movl   $0x1,-0x4c4(%rbp)
  401f2a:	00 00 00 
  401f2d:	c7 85 38 fb ff ff 00 	movl   $0x0,-0x4c8(%rbp)
  401f34:	00 00 00 
  401f37:	c7 85 34 fb ff ff 00 	movl   $0x0,-0x4cc(%rbp)
  401f3e:	00 00 00 
  401f41:	48 8b bd 40 fb ff ff 	mov    -0x4c0(%rbp),%rdi
  401f48:	8b 8d 3c fb ff ff    	mov    -0x4c4(%rbp),%ecx
  401f4e:	48 89 bd 50 fb ff ff 	mov    %rdi,-0x4b0(%rbp)
  401f55:	89 8d 4c fb ff ff    	mov    %ecx,-0x4b4(%rbp)
  401f5b:	8b 8d 4c fb ff ff    	mov    -0x4b4(%rbp),%ecx
  401f61:	48 8b bd 50 fb ff ff 	mov    -0x4b0(%rbp),%rdi
  401f68:	88 ca                	mov    %cl,%dl
  401f6a:	40 8a b7 98 00 00 00 	mov    0x98(%rdi),%sil
  401f71:	80 e2 01             	and    $0x1,%dl
  401f74:	40 80 e6 fe          	and    $0xfe,%sil
  401f78:	40 08 d6             	or     %dl,%sil
  401f7b:	40 88 b7 98 00 00 00 	mov    %sil,0x98(%rdi)
  401f82:	48 8b bd 40 fb ff ff 	mov    -0x4c0(%rbp),%rdi
  401f89:	8b 8d 38 fb ff ff    	mov    -0x4c8(%rbp),%ecx
  401f8f:	48 89 bd 88 fb ff ff 	mov    %rdi,-0x478(%rbp)
  401f96:	89 8d 84 fb ff ff    	mov    %ecx,-0x47c(%rbp)
  401f9c:	8b 8d 84 fb ff ff    	mov    -0x47c(%rbp),%ecx
  401fa2:	48 8b bd 88 fb ff ff 	mov    -0x478(%rbp),%rdi
  401fa9:	88 ca                	mov    %cl,%dl
  401fab:	40 8a b7 98 00 00 00 	mov    0x98(%rdi),%sil
  401fb2:	80 e2 01             	and    $0x1,%dl
  401fb5:	c0 e2 01             	shl    $0x1,%dl
  401fb8:	40 80 e6 fd          	and    $0xfd,%sil
  401fbc:	40 08 d6             	or     %dl,%sil
  401fbf:	40 88 b7 98 00 00 00 	mov    %sil,0x98(%rdi)
  401fc6:	83 bd 3c fb ff ff 00 	cmpl   $0x0,-0x4c4(%rbp)
  401fcd:	89 85 28 e9 ff ff    	mov    %eax,-0x16d8(%rbp)
  401fd3:	75 19                	jne    401fee <main+0xbfe>
  401fd5:	48 8b 85 40 fb ff ff 	mov    -0x4c0(%rbp),%rax
  401fdc:	8a 88 98 00 00 00    	mov    0x98(%rax),%cl
  401fe2:	80 e1 f3             	and    $0xf3,%cl
  401fe5:	80 c9 08             	or     $0x8,%cl
  401fe8:	88 88 98 00 00 00    	mov    %cl,0x98(%rax)
  401fee:	48 8b 85 40 fb ff ff 	mov    -0x4c0(%rbp),%rax
  401ff5:	8a 88 98 00 00 00    	mov    0x98(%rax),%cl
  401ffb:	80 e1 bf             	and    $0xbf,%cl
  401ffe:	80 c9 40             	or     $0x40,%cl
  402001:	88 88 98 00 00 00    	mov    %cl,0x98(%rax)
  402007:	83 bd 34 fb ff ff 02 	cmpl   $0x2,-0x4cc(%rbp)
  40200e:	0f 85 9f 00 00 00    	jne    4020b3 <main+0xcc3>
  402014:	48 b8 a0 31 45 00 00 	movabs $0x4531a0,%rax
  40201b:	00 00 00 
  40201e:	48 b9 90 31 45 00 00 	movabs $0x453190,%rcx
  402025:	00 00 00 
  402028:	48 8b 95 40 fb ff ff 	mov    -0x4c0(%rbp),%rdx
  40202f:	c6 82 96 00 00 00 03 	movb   $0x3,0x96(%rdx)
  402036:	48 8b 95 40 fb ff ff 	mov    -0x4c0(%rbp),%rdx
  40203d:	c6 82 97 00 00 00 03 	movb   $0x3,0x97(%rdx)
  402044:	48 8b 95 40 fb ff ff 	mov    -0x4c0(%rbp),%rdx
  40204b:	c6 82 94 00 00 00 03 	movb   $0x3,0x94(%rdx)
  402052:	48 8b 95 40 fb ff ff 	mov    -0x4c0(%rbp),%rdx
  402059:	c6 82 95 00 00 00 02 	movb   $0x2,0x95(%rdx)
  402060:	48 8b 95 40 fb ff ff 	mov    -0x4c0(%rbp),%rdx
  402067:	48 89 4a 18          	mov    %rcx,0x18(%rdx)
  40206b:	48 8b 95 40 fb ff ff 	mov    -0x4c0(%rbp),%rdx
  402072:	48 89 4a 10          	mov    %rcx,0x10(%rdx)
  402076:	48 8b 95 40 fb ff ff 	mov    -0x4c0(%rbp),%rdx
  40207d:	48 89 4a 08          	mov    %rcx,0x8(%rdx)
  402081:	48 8b 95 40 fb ff ff 	mov    -0x4c0(%rbp),%rdx
  402088:	48 89 0a             	mov    %rcx,(%rdx)
  40208b:	48 8b 8d 40 fb ff ff 	mov    -0x4c0(%rbp),%rcx
  402092:	48 ba 90 cb 44 00 00 	movabs $0x44cb90,%rdx
  402099:	00 00 00 
  40209c:	48 89 51 68          	mov    %rdx,0x68(%rcx)
  4020a0:	48 8b 8d 40 fb ff ff 	mov    -0x4c0(%rbp),%rcx
  4020a7:	48 89 81 88 00 00 00 	mov    %rax,0x88(%rcx)
  4020ae:	e9 d8 01 00 00       	jmpq   40228b <main+0xe9b>
  4020b3:	48 8b 85 40 fb ff ff 	mov    -0x4c0(%rbp),%rax
  4020ba:	c6 80 96 00 00 00 03 	movb   $0x3,0x96(%rax)
  4020c1:	48 8b 85 40 fb ff ff 	mov    -0x4c0(%rbp),%rax
  4020c8:	c6 80 97 00 00 00 02 	movb   $0x2,0x97(%rax)
  4020cf:	48 8b 85 40 fb ff ff 	mov    -0x4c0(%rbp),%rax
  4020d6:	c6 80 94 00 00 00 03 	movb   $0x3,0x94(%rax)
  4020dd:	48 8b 85 40 fb ff ff 	mov    -0x4c0(%rbp),%rax
  4020e4:	c6 80 95 00 00 00 02 	movb   $0x2,0x95(%rax)
  4020eb:	83 3c 25 f0 33 45 00 	cmpl   $0x0,0x4533f0
  4020f2:	00 
  4020f3:	0f 85 30 01 00 00    	jne    402229 <main+0xe39>
  4020f9:	48 b8 00 34 45 00 00 	movabs $0x453400,%rax
  402100:	00 00 00 
  402103:	48 b9 30 8d 44 00 00 	movabs $0x448d30,%rcx
  40210a:	00 00 00 
  40210d:	48 89 8d 60 fb ff ff 	mov    %rcx,-0x4a0(%rbp)
  402114:	48 89 85 58 fb ff ff 	mov    %rax,-0x4a8(%rbp)
  40211b:	31 c0                	xor    %eax,%eax
  40211d:	88 c1                	mov    %al,%cl
  40211f:	48 8b 95 60 fb ff ff 	mov    -0x4a0(%rbp),%rdx
  402126:	83 3a 00             	cmpl   $0x0,(%rdx)
  402129:	88 8d 27 e9 ff ff    	mov    %cl,-0x16d9(%rbp)
  40212f:	74 21                	je     402152 <main+0xd62>
  402131:	48 8b 85 58 fb ff ff 	mov    -0x4a8(%rbp),%rax
  402138:	48 b9 00 34 45 00 00 	movabs $0x453400,%rcx
  40213f:	00 00 00 
  402142:	48 83 c1 14          	add    $0x14,%rcx
  402146:	48 39 c8             	cmp    %rcx,%rax
  402149:	0f 92 c2             	setb   %dl
  40214c:	88 95 27 e9 ff ff    	mov    %dl,-0x16d9(%rbp)
  402152:	8a 85 27 e9 ff ff    	mov    -0x16d9(%rbp),%al
  402158:	a8 01                	test   $0x1,%al
  40215a:	75 05                	jne    402161 <main+0xd71>
  40215c:	e9 b0 00 00 00       	jmpq   402211 <main+0xe21>
  402161:	48 b8 70 90 44 00 00 	movabs $0x449070,%rax
  402168:	00 00 00 
  40216b:	48 8b 8d 60 fb ff ff 	mov    -0x4a0(%rbp),%rcx
  402172:	8b 11                	mov    (%rcx),%edx
  402174:	89 95 74 fb ff ff    	mov    %edx,-0x48c(%rbp)
  40217a:	48 89 85 68 fb ff ff 	mov    %rax,-0x498(%rbp)
  402181:	48 8b 85 68 fb ff ff 	mov    -0x498(%rbp),%rax
  402188:	83 38 00             	cmpl   $0x0,(%rax)
  40218b:	74 35                	je     4021c2 <main+0xdd2>
  40218d:	48 8b 85 68 fb ff ff 	mov    -0x498(%rbp),%rax
  402194:	8b 08                	mov    (%rax),%ecx
  402196:	3b 8d 74 fb ff ff    	cmp    -0x48c(%rbp),%ecx
  40219c:	75 10                	jne    4021ae <main+0xdbe>
  40219e:	48 8b 85 68 fb ff ff 	mov    -0x498(%rbp),%rax
  4021a5:	48 89 85 78 fb ff ff 	mov    %rax,-0x488(%rbp)
  4021ac:	eb 1f                	jmp    4021cd <main+0xddd>
  4021ae:	48 8b 85 68 fb ff ff 	mov    -0x498(%rbp),%rax
  4021b5:	48 83 c0 30          	add    $0x30,%rax
  4021b9:	48 89 85 68 fb ff ff 	mov    %rax,-0x498(%rbp)
  4021c0:	eb bf                	jmp    402181 <main+0xd91>
  4021c2:	48 c7 85 78 fb ff ff 	movq   $0x0,-0x488(%rbp)
  4021c9:	00 00 00 00 
  4021cd:	48 8b 85 78 fb ff ff 	mov    -0x488(%rbp),%rax
  4021d4:	48 83 f8 00          	cmp    $0x0,%rax
  4021d8:	74 20                	je     4021fa <main+0xe0a>
  4021da:	48 8b 85 60 fb ff ff 	mov    -0x4a0(%rbp),%rax
  4021e1:	8b 08                	mov    (%rax),%ecx
  4021e3:	48 8b 85 58 fb ff ff 	mov    -0x4a8(%rbp),%rax
  4021ea:	48 89 c2             	mov    %rax,%rdx
  4021ed:	48 83 c2 04          	add    $0x4,%rdx
  4021f1:	48 89 95 58 fb ff ff 	mov    %rdx,-0x4a8(%rbp)
  4021f8:	89 08                	mov    %ecx,(%rax)
  4021fa:	48 8b 85 60 fb ff ff 	mov    -0x4a0(%rbp),%rax
  402201:	48 83 c0 04          	add    $0x4,%rax
  402205:	48 89 85 60 fb ff ff 	mov    %rax,-0x4a0(%rbp)
  40220c:	e9 0a ff ff ff       	jmpq   40211b <main+0xd2b>
  402211:	48 8b 85 58 fb ff ff 	mov    -0x4a8(%rbp),%rax
  402218:	c7 00 00 00 00 00    	movl   $0x0,(%rax)
  40221e:	c7 04 25 f0 33 45 00 	movl   $0x1,0x4533f0
  402225:	01 00 00 00 
  402229:	48 b8 b0 31 45 00 00 	movabs $0x4531b0,%rax
  402230:	00 00 00 
  402233:	48 b9 00 34 45 00 00 	movabs $0x453400,%rcx
  40223a:	00 00 00 
  40223d:	48 8b 95 40 fb ff ff 	mov    -0x4c0(%rbp),%rdx
  402244:	48 89 4a 18          	mov    %rcx,0x18(%rdx)
  402248:	48 8b 95 40 fb ff ff 	mov    -0x4c0(%rbp),%rdx
  40224f:	48 89 4a 10          	mov    %rcx,0x10(%rdx)
  402253:	48 8b 95 40 fb ff ff 	mov    -0x4c0(%rbp),%rdx
  40225a:	48 89 4a 08          	mov    %rcx,0x8(%rdx)
  40225e:	48 8b 95 40 fb ff ff 	mov    -0x4c0(%rbp),%rdx
  402265:	48 89 0a             	mov    %rcx,(%rdx)
  402268:	48 8b 8d 40 fb ff ff 	mov    -0x4c0(%rbp),%rcx
  40226f:	48 ba 70 cb 44 00 00 	movabs $0x44cb70,%rdx
  402276:	00 00 00 
  402279:	48 89 51 68          	mov    %rdx,0x68(%rcx)
  40227d:	48 8b 8d 40 fb ff ff 	mov    -0x4c0(%rbp),%rcx
  402284:	48 89 81 88 00 00 00 	mov    %rax,0x88(%rcx)
  40228b:	c7 85 c0 f7 ff ff 00 	movl   $0x0,-0x840(%rbp)
  402292:	00 00 00 
  402295:	eb 22                	jmp    4022b9 <main+0xec9>
  402297:	48 bf 80 6f 44 00 00 	movabs $0x446f80,%rdi
  40229e:	00 00 00 
  4022a1:	8b b5 c0 f7 ff ff    	mov    -0x840(%rbp),%esi
  4022a7:	b0 00                	mov    $0x0,%al
  4022a9:	e8 82 ed ff ff       	callq  401030 <printf@plt>
  4022ae:	89 85 20 e9 ff ff    	mov    %eax,-0x16e0(%rbp)
  4022b4:	e9 24 1d 00 00       	jmpq   403fdd <main+0x2bed>
  4022b9:	b8 01 00 00 00       	mov    $0x1,%eax
  4022be:	89 c7                	mov    %eax,%edi
  4022c0:	b8 18 00 00 00       	mov    $0x18,%eax
  4022c5:	89 c6                	mov    %eax,%esi
  4022c7:	48 8d 8d b8 ee ff ff 	lea    -0x1148(%rbp),%rcx
  4022ce:	48 8d 95 b8 ec ff ff 	lea    -0x1348(%rbp),%rdx
  4022d5:	48 89 95 a0 fb ff ff 	mov    %rdx,-0x460(%rbp)
  4022dc:	49 b8 90 87 42 00 00 	movabs $0x428790,%r8
  4022e3:	00 00 00 
  4022e6:	4c 89 85 98 fb ff ff 	mov    %r8,-0x468(%rbp)
  4022ed:	48 89 8d 90 fb ff ff 	mov    %rcx,-0x470(%rbp)
  4022f4:	48 8b 8d 98 fb ff ff 	mov    -0x468(%rbp),%rcx
  4022fb:	4c 8b 85 a0 fb ff ff 	mov    -0x460(%rbp),%r8
  402302:	49 89 48 30          	mov    %rcx,0x30(%r8)
  402306:	48 8b 8d 90 fb ff ff 	mov    -0x470(%rbp),%rcx
  40230d:	4c 8b 85 a0 fb ff ff 	mov    -0x460(%rbp),%r8
  402314:	49 89 48 38          	mov    %rcx,0x38(%r8)
  402318:	48 8b 0c 25 68 57 45 	mov    0x455768,%rcx
  40231f:	00 
  402320:	48 89 95 b8 fb ff ff 	mov    %rdx,-0x448(%rbp)
  402327:	49 b8 20 4b 40 00 00 	movabs $0x404b20,%r8
  40232e:	00 00 00 
  402331:	4c 89 85 b0 fb ff ff 	mov    %r8,-0x450(%rbp)
  402338:	48 89 8d a8 fb ff ff 	mov    %rcx,-0x458(%rbp)
  40233f:	48 8b 8d b0 fb ff ff 	mov    -0x450(%rbp),%rcx
  402346:	4c 8b 85 b8 fb ff ff 	mov    -0x448(%rbp),%r8
  40234d:	49 89 48 20          	mov    %rcx,0x20(%r8)
  402351:	48 8b 8d a8 fb ff ff 	mov    -0x458(%rbp),%rcx
  402358:	4c 8b 85 b8 fb ff ff 	mov    -0x448(%rbp),%r8
  40235f:	49 89 48 28          	mov    %rcx,0x28(%r8)
  402363:	48 8b 8d b0 ec ff ff 	mov    -0x1350(%rbp),%rcx
  40236a:	48 89 95 d0 fb ff ff 	mov    %rdx,-0x430(%rbp)
  402371:	48 89 8d c8 fb ff ff 	mov    %rcx,-0x438(%rbp)
  402378:	48 c7 85 c0 fb ff ff 	movq   $0x0,-0x440(%rbp)
  40237f:	00 00 00 00 
  402383:	48 8b 8d c8 fb ff ff 	mov    -0x438(%rbp),%rcx
  40238a:	4c 8b 85 d0 fb ff ff 	mov    -0x430(%rbp),%r8
  402391:	49 89 48 78          	mov    %rcx,0x78(%r8)
  402395:	48 8b 8d c0 fb ff ff 	mov    -0x440(%rbp),%rcx
  40239c:	4c 8b 85 d0 fb ff ff 	mov    -0x430(%rbp),%r8
  4023a3:	49 89 88 80 00 00 00 	mov    %rcx,0x80(%r8)
  4023aa:	48 89 95 e8 fb ff ff 	mov    %rdx,-0x418(%rbp)
  4023b1:	48 8d 8d 90 ea ff ff 	lea    -0x1570(%rbp),%rcx
  4023b8:	48 89 8d e0 fb ff ff 	mov    %rcx,-0x420(%rbp)
  4023bf:	48 8d 8d 50 ea ff ff 	lea    -0x15b0(%rbp),%rcx
  4023c6:	48 89 8d d8 fb ff ff 	mov    %rcx,-0x428(%rbp)
  4023cd:	48 8b 8d e8 fb ff ff 	mov    -0x418(%rbp),%rcx
  4023d4:	48 83 c1 70          	add    $0x70,%rcx
  4023d8:	48 8b 95 e0 fb ff ff 	mov    -0x420(%rbp),%rdx
  4023df:	4c 8b 85 d8 fb ff ff 	mov    -0x428(%rbp),%r8
  4023e6:	48 89 8d 10 fc ff ff 	mov    %rcx,-0x3f0(%rbp)
  4023ed:	48 89 95 08 fc ff ff 	mov    %rdx,-0x3f8(%rbp)
  4023f4:	4c 89 85 00 fc ff ff 	mov    %r8,-0x400(%rbp)
  4023fb:	e8 ea 43 04 00       	callq  4467ea <aes_calloc>
  402400:	48 89 85 f8 fb ff ff 	mov    %rax,-0x408(%rbp)
  402407:	48 83 bd f8 fb ff ff 	cmpq   $0x0,-0x408(%rbp)
  40240e:	00 
  40240f:	75 0f                	jne    402420 <main+0x1030>
  402411:	c7 85 18 fc ff ff 00 	movl   $0xffff8100,-0x3e8(%rbp)
  402418:	81 ff ff 
  40241b:	e9 a1 00 00 00       	jmpq   4024c1 <main+0x10d1>
  402420:	48 8b 85 08 fc ff ff 	mov    -0x3f8(%rbp),%rax
  402427:	48 8b 8d f8 fb ff ff 	mov    -0x408(%rbp),%rcx
  40242e:	48 89 01             	mov    %rax,(%rcx)
  402431:	48 8b 85 00 fc ff ff 	mov    -0x400(%rbp),%rax
  402438:	48 8b 8d f8 fb ff ff 	mov    -0x408(%rbp),%rcx
  40243f:	48 89 41 08          	mov    %rax,0x8(%rcx)
  402443:	48 8b 85 f8 fb ff ff 	mov    -0x408(%rbp),%rax
  40244a:	48 c7 40 10 00 00 00 	movq   $0x0,0x10(%rax)
  402451:	00 
  402452:	48 8b 85 10 fc ff ff 	mov    -0x3f0(%rbp),%rax
  402459:	48 83 38 00          	cmpq   $0x0,(%rax)
  40245d:	75 13                	jne    402472 <main+0x1082>
  40245f:	48 8b 85 f8 fb ff ff 	mov    -0x408(%rbp),%rax
  402466:	48 8b 8d 10 fc ff ff 	mov    -0x3f0(%rbp),%rcx
  40246d:	48 89 01             	mov    %rax,(%rcx)
  402470:	eb 45                	jmp    4024b7 <main+0x10c7>
  402472:	48 8b 85 10 fc ff ff 	mov    -0x3f0(%rbp),%rax
  402479:	48 8b 00             	mov    (%rax),%rax
  40247c:	48 89 85 f0 fb ff ff 	mov    %rax,-0x410(%rbp)
  402483:	48 8b 85 f0 fb ff ff 	mov    -0x410(%rbp),%rax
  40248a:	48 83 78 10 00       	cmpq   $0x0,0x10(%rax)
  40248f:	74 14                	je     4024a5 <main+0x10b5>
  402491:	48 8b 85 f0 fb ff ff 	mov    -0x410(%rbp),%rax
  402498:	48 8b 40 10          	mov    0x10(%rax),%rax
  40249c:	48 89 85 f0 fb ff ff 	mov    %rax,-0x410(%rbp)
  4024a3:	eb de                	jmp    402483 <main+0x1093>
  4024a5:	48 8b 85 f8 fb ff ff 	mov    -0x408(%rbp),%rax
  4024ac:	48 8b 8d f0 fb ff ff 	mov    -0x410(%rbp),%rcx
  4024b3:	48 89 41 10          	mov    %rax,0x10(%rcx)
  4024b7:	c7 85 18 fc ff ff 00 	movl   $0x0,-0x3e8(%rbp)
  4024be:	00 00 00 
  4024c1:	8b 85 18 fc ff ff    	mov    -0x3e8(%rbp),%eax
  4024c7:	89 85 c0 f7 ff ff    	mov    %eax,-0x840(%rbp)
  4024cd:	83 f8 00             	cmp    $0x0,%eax
  4024d0:	74 22                	je     4024f4 <main+0x1104>
  4024d2:	48 bf c0 6f 44 00 00 	movabs $0x446fc0,%rdi
  4024d9:	00 00 00 
  4024dc:	8b b5 c0 f7 ff ff    	mov    -0x840(%rbp),%esi
  4024e2:	b0 00                	mov    $0x0,%al
  4024e4:	e8 47 eb ff ff       	callq  401030 <printf@plt>
  4024e9:	89 85 1c e9 ff ff    	mov    %eax,-0x16e4(%rbp)
  4024ef:	e9 e9 1a 00 00       	jmpq   403fdd <main+0x2bed>
  4024f4:	b8 01 00 00 00       	mov    $0x1,%eax
  4024f9:	89 c7                	mov    %eax,%edi
  4024fb:	b8 3d 41 00 00       	mov    $0x413d,%eax
  402500:	89 c6                	mov    %eax,%esi
  402502:	48 8d 8d 58 ed ff ff 	lea    -0x12a8(%rbp),%rcx
  402509:	48 89 8d 28 fc ff ff 	mov    %rcx,-0x3d8(%rbp)
  402510:	48 8d 8d b8 ec ff ff 	lea    -0x1348(%rbp),%rcx
  402517:	48 89 8d 20 fc ff ff 	mov    %rcx,-0x3e0(%rbp)
  40251e:	48 8b 8d 20 fc ff ff 	mov    -0x3e0(%rbp),%rcx
  402525:	48 8b 95 28 fc ff ff 	mov    -0x3d8(%rbp),%rdx
  40252c:	48 89 0a             	mov    %rcx,(%rdx)
  40252f:	48 8b 8d 28 fc ff ff 	mov    -0x3d8(%rbp),%rcx
  402536:	48 c7 81 f8 00 00 00 	movq   $0x0,0xf8(%rcx)
  40253d:	00 00 00 00 
  402541:	e8 a4 42 04 00       	callq  4467ea <aes_calloc>
  402546:	48 8b 8d 28 fc ff ff 	mov    -0x3d8(%rbp),%rcx
  40254d:	48 89 81 98 00 00 00 	mov    %rax,0x98(%rcx)
  402554:	48 8b 85 28 fc ff ff 	mov    -0x3d8(%rbp),%rax
  40255b:	48 83 b8 98 00 00 00 	cmpq   $0x0,0x98(%rax)
  402562:	00 
  402563:	75 0c                	jne    402571 <main+0x1181>
  402565:	c7 85 1c fc ff ff 00 	movl   $0xffff8100,-0x3e4(%rbp)
  40256c:	81 ff ff 
  40256f:	eb 72                	jmp    4025e3 <main+0x11f3>
  402571:	b8 01 00 00 00       	mov    $0x1,%eax
  402576:	89 c7                	mov    %eax,%edi
  402578:	b8 3d 41 00 00       	mov    $0x413d,%eax
  40257d:	89 c6                	mov    %eax,%esi
  40257f:	e8 66 42 04 00       	callq  4467ea <aes_calloc>
  402584:	48 8b b5 28 fc ff ff 	mov    -0x3d8(%rbp),%rsi
  40258b:	48 89 86 f8 00 00 00 	mov    %rax,0xf8(%rsi)
  402592:	48 8b 85 28 fc ff ff 	mov    -0x3d8(%rbp),%rax
  402599:	48 83 b8 f8 00 00 00 	cmpq   $0x0,0xf8(%rax)
  4025a0:	00 
  4025a1:	75 0c                	jne    4025af <main+0x11bf>
  4025a3:	c7 85 1c fc ff ff 00 	movl   $0xffff8100,-0x3e4(%rbp)
  4025aa:	81 ff ff 
  4025ad:	eb 34                	jmp    4025e3 <main+0x11f3>
  4025af:	48 8b bd 28 fc ff ff 	mov    -0x3d8(%rbp),%rdi
  4025b6:	e8 c5 96 00 00       	callq  40bc80 <ssl_reset_in_out_pointers>
  4025bb:	48 8b bd 28 fc ff ff 	mov    -0x3d8(%rbp),%rdi
  4025c2:	e8 79 98 00 00       	callq  40be40 <ssl_handshake_init>
  4025c7:	89 85 1c fc ff ff    	mov    %eax,-0x3e4(%rbp)
  4025cd:	83 f8 00             	cmp    $0x0,%eax
  4025d0:	74 02                	je     4025d4 <main+0x11e4>
  4025d2:	eb 0f                	jmp    4025e3 <main+0x11f3>
  4025d4:	c7 85 34 fc ff ff 00 	movl   $0x0,-0x3cc(%rbp)
  4025db:	00 00 00 
  4025de:	e9 18 01 00 00       	jmpq   4026fb <main+0x130b>
  4025e3:	48 8b 85 28 fc ff ff 	mov    -0x3d8(%rbp),%rax
  4025ea:	48 8b b8 98 00 00 00 	mov    0x98(%rax),%rdi
  4025f1:	e8 ea ea ff ff       	callq  4010e0 <free@plt>
  4025f6:	48 8b 85 28 fc ff ff 	mov    -0x3d8(%rbp),%rax
  4025fd:	48 8b b8 f8 00 00 00 	mov    0xf8(%rax),%rdi
  402604:	e8 d7 ea ff ff       	callq  4010e0 <free@plt>
  402609:	48 8b 85 28 fc ff ff 	mov    -0x3d8(%rbp),%rax
  402610:	48 c7 00 00 00 00 00 	movq   $0x0,(%rax)
  402617:	48 8b 85 28 fc ff ff 	mov    -0x3d8(%rbp),%rax
  40261e:	48 c7 80 98 00 00 00 	movq   $0x0,0x98(%rax)
  402625:	00 00 00 00 
  402629:	48 8b 85 28 fc ff ff 	mov    -0x3d8(%rbp),%rax
  402630:	48 c7 80 f8 00 00 00 	movq   $0x0,0xf8(%rax)
  402637:	00 00 00 00 
  40263b:	48 8b 85 28 fc ff ff 	mov    -0x3d8(%rbp),%rax
  402642:	48 c7 80 a8 00 00 00 	movq   $0x0,0xa8(%rax)
  402649:	00 00 00 00 
  40264d:	48 8b 85 28 fc ff ff 	mov    -0x3d8(%rbp),%rax
  402654:	48 c7 80 a0 00 00 00 	movq   $0x0,0xa0(%rax)
  40265b:	00 00 00 00 
  40265f:	48 8b 85 28 fc ff ff 	mov    -0x3d8(%rbp),%rax
  402666:	48 c7 80 b0 00 00 00 	movq   $0x0,0xb0(%rax)
  40266d:	00 00 00 00 
  402671:	48 8b 85 28 fc ff ff 	mov    -0x3d8(%rbp),%rax
  402678:	48 c7 80 b8 00 00 00 	movq   $0x0,0xb8(%rax)
  40267f:	00 00 00 00 
  402683:	48 8b 85 28 fc ff ff 	mov    -0x3d8(%rbp),%rax
  40268a:	48 c7 80 c0 00 00 00 	movq   $0x0,0xc0(%rax)
  402691:	00 00 00 00 
  402695:	48 8b 85 28 fc ff ff 	mov    -0x3d8(%rbp),%rax
  40269c:	48 c7 80 08 01 00 00 	movq   $0x0,0x108(%rax)
  4026a3:	00 00 00 00 
  4026a7:	48 8b 85 28 fc ff ff 	mov    -0x3d8(%rbp),%rax
  4026ae:	48 c7 80 00 01 00 00 	movq   $0x0,0x100(%rax)
  4026b5:	00 00 00 00 
  4026b9:	48 8b 85 28 fc ff ff 	mov    -0x3d8(%rbp),%rax
  4026c0:	48 c7 80 10 01 00 00 	movq   $0x0,0x110(%rax)
  4026c7:	00 00 00 00 
  4026cb:	48 8b 85 28 fc ff ff 	mov    -0x3d8(%rbp),%rax
  4026d2:	48 c7 80 18 01 00 00 	movq   $0x0,0x118(%rax)
  4026d9:	00 00 00 00 
  4026dd:	48 8b 85 28 fc ff ff 	mov    -0x3d8(%rbp),%rax
  4026e4:	48 c7 80 20 01 00 00 	movq   $0x0,0x120(%rax)
  4026eb:	00 00 00 00 
  4026ef:	8b 8d 1c fc ff ff    	mov    -0x3e4(%rbp),%ecx
  4026f5:	89 8d 34 fc ff ff    	mov    %ecx,-0x3cc(%rbp)
  4026fb:	8b 85 34 fc ff ff    	mov    -0x3cc(%rbp),%eax
  402701:	89 85 c0 f7 ff ff    	mov    %eax,-0x840(%rbp)
  402707:	83 f8 00             	cmp    $0x0,%eax
  40270a:	74 22                	je     40272e <main+0x133e>
  40270c:	48 bf 00 70 44 00 00 	movabs $0x447000,%rdi
  402713:	00 00 00 
  402716:	8b b5 c0 f7 ff ff    	mov    -0x840(%rbp),%esi
  40271c:	b0 00                	mov    $0x0,%al
  40271e:	e8 0d e9 ff ff       	callq  401030 <printf@plt>
  402723:	89 85 18 e9 ff ff    	mov    %eax,-0x16e8(%rbp)
  402729:	e9 af 18 00 00       	jmpq   403fdd <main+0x2bed>
  40272e:	48 bf 80 6e 44 00 00 	movabs $0x446e80,%rdi
  402735:	00 00 00 
  402738:	b0 00                	mov    $0x0,%al
  40273a:	e8 f1 e8 ff ff       	callq  401030 <printf@plt>
  40273f:	89 85 14 e9 ff ff    	mov    %eax,-0x16ec(%rbp)
  402745:	48 8d 85 b0 f7 ff ff 	lea    -0x850(%rbp),%rax
  40274c:	48 89 85 38 fc ff ff 	mov    %rax,-0x3c8(%rbp)
  402753:	48 8b 85 38 fc ff ff 	mov    -0x3c8(%rbp),%rax
  40275a:	83 38 ff             	cmpl   $0xffffffff,(%rax)
  40275d:	75 02                	jne    402761 <main+0x1371>
  40275f:	eb 3a                	jmp    40279b <main+0x13ab>
  402761:	48 8b 85 38 fc ff ff 	mov    -0x3c8(%rbp),%rax
  402768:	8b 38                	mov    (%rax),%edi
  40276a:	be 02 00 00 00       	mov    $0x2,%esi
  40276f:	e8 7c e9 ff ff       	callq  4010f0 <shutdown@plt>
  402774:	48 8b 8d 38 fc ff ff 	mov    -0x3c8(%rbp),%rcx
  40277b:	8b 39                	mov    (%rcx),%edi
  40277d:	89 85 10 e9 ff ff    	mov    %eax,-0x16f0(%rbp)
  402783:	e8 08 e9 ff ff       	callq  401090 <close@plt>
  402788:	48 8b 8d 38 fc ff ff 	mov    -0x3c8(%rbp),%rcx
  40278f:	c7 01 ff ff ff ff    	movl   $0xffffffff,(%rcx)
  402795:	89 85 0c e9 ff ff    	mov    %eax,-0x16f4(%rbp)
  40279b:	48 8d 85 58 ed ff ff 	lea    -0x12a8(%rbp),%rax
  4027a2:	48 89 85 40 fc ff ff 	mov    %rax,-0x3c0(%rbp)
  4027a9:	48 8b 85 40 fc ff ff 	mov    -0x3c0(%rbp),%rax
  4027b0:	48 89 85 50 fc ff ff 	mov    %rax,-0x3b0(%rbp)
  4027b7:	c7 85 4c fc ff ff 00 	movl   $0x0,-0x3b4(%rbp)
  4027be:	00 00 00 
  4027c1:	48 8b 85 50 fc ff ff 	mov    -0x3b0(%rbp),%rax
  4027c8:	c7 40 08 00 00 00 00 	movl   $0x0,0x8(%rax)
  4027cf:	48 8b 85 50 fc ff ff 	mov    -0x3b0(%rbp),%rax
  4027d6:	48 89 85 60 fc ff ff 	mov    %rax,-0x3a0(%rbp)
  4027dd:	c7 85 5c fc ff ff 00 	movl   $0x0,-0x3a4(%rbp)
  4027e4:	00 00 00 
  4027e7:	48 8b 85 60 fc ff ff 	mov    -0x3a0(%rbp),%rax
  4027ee:	48 83 b8 88 00 00 00 	cmpq   $0x0,0x88(%rax)
  4027f5:	00 
  4027f6:	75 02                	jne    4027fa <main+0x140a>
  4027f8:	eb 3b                	jmp    402835 <main+0x1445>
  4027fa:	48 8b 85 60 fc ff ff 	mov    -0x3a0(%rbp),%rax
  402801:	48 8b 80 88 00 00 00 	mov    0x88(%rax),%rax
  402808:	48 8b 8d 60 fc ff ff 	mov    -0x3a0(%rbp),%rcx
  40280f:	48 8b b9 80 00 00 00 	mov    0x80(%rcx),%rdi
  402816:	8b 95 5c fc ff ff    	mov    -0x3a4(%rbp),%edx
  40281c:	c1 ea 02             	shr    $0x2,%edx
  40281f:	8b b5 5c fc ff ff    	mov    -0x3a4(%rbp),%esi
  402825:	89 b5 08 e9 ff ff    	mov    %esi,-0x16f8(%rbp)
  40282b:	89 d6                	mov    %edx,%esi
  40282d:	8b 95 08 e9 ff ff    	mov    -0x16f8(%rbp),%edx
  402833:	ff d0                	callq  *%rax
  402835:	48 8b 85 50 fc ff ff 	mov    -0x3b0(%rbp),%rax
  40283c:	c7 80 58 01 00 00 00 	movl   $0x0,0x158(%rax)
  402843:	00 00 00 
  402846:	48 8b 85 50 fc ff ff 	mov    -0x3b0(%rbp),%rax
  40284d:	48 c7 80 c8 00 00 00 	movq   $0x0,0xc8(%rax)
  402854:	00 00 00 00 
  402858:	48 8b bd 50 fc ff ff 	mov    -0x3b0(%rbp),%rdi
  40285f:	e8 1c 94 00 00       	callq  40bc80 <ssl_reset_in_out_pointers>
  402864:	31 c9                	xor    %ecx,%ecx
  402866:	ba 3d 41 00 00       	mov    $0x413d,%edx
  40286b:	89 d0                	mov    %edx,%eax
  40286d:	ba 08 00 00 00       	mov    $0x8,%edx
  402872:	48 8b bd 50 fc ff ff 	mov    -0x3b0(%rbp),%rdi
  402879:	c7 87 d0 00 00 00 00 	movl   $0x0,0xd0(%rdi)
  402880:	00 00 00 
  402883:	48 8b bd 50 fc ff ff 	mov    -0x3b0(%rbp),%rdi
  40288a:	48 c7 87 d8 00 00 00 	movq   $0x0,0xd8(%rdi)
  402891:	00 00 00 00 
  402895:	48 8b bd 50 fc ff ff 	mov    -0x3b0(%rbp),%rdi
  40289c:	48 c7 87 e8 00 00 00 	movq   $0x0,0xe8(%rdi)
  4028a3:	00 00 00 00 
  4028a7:	48 8b bd 50 fc ff ff 	mov    -0x3b0(%rbp),%rdi
  4028ae:	c7 87 f0 00 00 00 00 	movl   $0x0,0xf0(%rdi)
  4028b5:	00 00 00 
  4028b8:	48 8b bd 50 fc ff ff 	mov    -0x3b0(%rbp),%rdi
  4028bf:	c7 87 f4 00 00 00 00 	movl   $0x0,0xf4(%rdi)
  4028c6:	00 00 00 
  4028c9:	48 8b bd 50 fc ff ff 	mov    -0x3b0(%rbp),%rdi
  4028d0:	c7 87 28 01 00 00 00 	movl   $0x0,0x128(%rdi)
  4028d7:	00 00 00 
  4028da:	48 8b bd 50 fc ff ff 	mov    -0x3b0(%rbp),%rdi
  4028e1:	48 c7 87 30 01 00 00 	movq   $0x0,0x130(%rdi)
  4028e8:	00 00 00 00 
  4028ec:	48 8b bd 50 fc ff ff 	mov    -0x3b0(%rbp),%rdi
  4028f3:	48 c7 87 38 01 00 00 	movq   $0x0,0x138(%rdi)
  4028fa:	00 00 00 00 
  4028fe:	48 8b bd 50 fc ff ff 	mov    -0x3b0(%rbp),%rdi
  402905:	48 81 c7 40 01 00 00 	add    $0x140,%rdi
  40290c:	89 ce                	mov    %ecx,%esi
  40290e:	89 8d 04 e9 ff ff    	mov    %ecx,-0x16fc(%rbp)
  402914:	48 89 85 f8 e8 ff ff 	mov    %rax,-0x1708(%rbp)
  40291b:	e8 00 e7 ff ff       	callq  401020 <memset@plt>
  402920:	48 8b 85 50 fc ff ff 	mov    -0x3b0(%rbp),%rax
  402927:	48 c7 40 60 00 00 00 	movq   $0x0,0x60(%rax)
  40292e:	00 
  40292f:	48 8b 85 50 fc ff ff 	mov    -0x3b0(%rbp),%rax
  402936:	48 c7 40 68 00 00 00 	movq   $0x0,0x68(%rax)
  40293d:	00 
  40293e:	48 8b 85 50 fc ff ff 	mov    -0x3b0(%rbp),%rax
  402945:	48 c7 40 38 00 00 00 	movq   $0x0,0x38(%rax)
  40294c:	00 
  40294d:	48 8b 85 50 fc ff ff 	mov    -0x3b0(%rbp),%rax
  402954:	48 c7 40 40 00 00 00 	movq   $0x0,0x40(%rax)
  40295b:	00 
  40295c:	48 8b 85 50 fc ff ff 	mov    -0x3b0(%rbp),%rax
  402963:	48 8b b8 f8 00 00 00 	mov    0xf8(%rax),%rdi
  40296a:	8b b5 04 e9 ff ff    	mov    -0x16fc(%rbp),%esi
  402970:	48 8b 95 f8 e8 ff ff 	mov    -0x1708(%rbp),%rdx
  402977:	e8 a4 e6 ff ff       	callq  401020 <memset@plt>
  40297c:	48 8b 85 50 fc ff ff 	mov    -0x3b0(%rbp),%rax
  402983:	48 c7 80 e0 00 00 00 	movq   $0x0,0xe0(%rax)
  40298a:	00 00 00 00 
  40298e:	48 8b 85 50 fc ff ff 	mov    -0x3b0(%rbp),%rax
  402995:	48 8b b8 98 00 00 00 	mov    0x98(%rax),%rdi
  40299c:	8b b5 04 e9 ff ff    	mov    -0x16fc(%rbp),%esi
  4029a2:	48 8b 95 f8 e8 ff ff 	mov    -0x1708(%rbp),%rdx
  4029a9:	e8 72 e6 ff ff       	callq  401020 <memset@plt>
  4029ae:	48 8b 85 50 fc ff ff 	mov    -0x3b0(%rbp),%rax
  4029b5:	48 83 78 70 00       	cmpq   $0x0,0x70(%rax)
  4029ba:	0f 84 b1 01 00 00    	je     402b71 <main+0x1781>
  4029c0:	48 8b 85 50 fc ff ff 	mov    -0x3b0(%rbp),%rax
  4029c7:	48 8b 40 70          	mov    0x70(%rax),%rax
  4029cb:	48 89 85 68 fc ff ff 	mov    %rax,-0x398(%rbp)
  4029d2:	48 83 bd 68 fc ff ff 	cmpq   $0x0,-0x398(%rbp)
  4029d9:	00 
  4029da:	75 05                	jne    4029e1 <main+0x15f1>
  4029dc:	e9 6e 01 00 00       	jmpq   402b4f <main+0x175f>
  4029e1:	48 8b 85 68 fc ff ff 	mov    -0x398(%rbp),%rax
  4029e8:	48 05 80 00 00 00    	add    $0x80,%rax
  4029ee:	48 89 85 98 fc ff ff 	mov    %rax,-0x368(%rbp)
  4029f5:	48 83 bd 98 fc ff ff 	cmpq   $0x0,-0x368(%rbp)
  4029fc:	00 
  4029fd:	75 02                	jne    402a01 <main+0x1611>
  4029ff:	eb 67                	jmp    402a68 <main+0x1678>
  402a01:	48 8b 85 98 fc ff ff 	mov    -0x368(%rbp),%rax
  402a08:	48 83 78 50 00       	cmpq   $0x0,0x50(%rax)
  402a0d:	74 1f                	je     402a2e <main+0x163e>
  402a0f:	48 8b 85 98 fc ff ff 	mov    -0x368(%rbp),%rax
  402a16:	48 8b 00             	mov    (%rax),%rax
  402a19:	48 8b 40 28          	mov    0x28(%rax),%rax
  402a1d:	48 8b 40 30          	mov    0x30(%rax),%rax
  402a21:	48 8b 8d 98 fc ff ff 	mov    -0x368(%rbp),%rcx
  402a28:	48 8b 79 50          	mov    0x50(%rcx),%rdi
  402a2c:	ff d0                	callq  *%rax
  402a2e:	31 f6                	xor    %esi,%esi
  402a30:	48 8b 85 98 fc ff ff 	mov    -0x368(%rbp),%rax
  402a37:	48 89 85 a8 fc ff ff 	mov    %rax,-0x358(%rbp)
  402a3e:	48 c7 85 a0 fc ff ff 	movq   $0x58,-0x360(%rbp)
  402a45:	58 00 00 00 
  402a49:	48 8b 04 25 70 e3 44 	mov    0x44e370,%rax
  402a50:	00 
  402a51:	48 8b bd a8 fc ff ff 	mov    -0x358(%rbp),%rdi
  402a58:	48 8b 95 a0 fc ff ff 	mov    -0x360(%rbp),%rdx
  402a5f:	ff d0                	callq  *%rax
  402a61:	48 89 85 f0 e8 ff ff 	mov    %rax,-0x1710(%rbp)
  402a68:	48 8b 85 68 fc ff ff 	mov    -0x398(%rbp),%rax
  402a6f:	48 05 d8 00 00 00    	add    $0xd8,%rax
  402a75:	48 89 85 b0 fc ff ff 	mov    %rax,-0x350(%rbp)
  402a7c:	48 83 bd b0 fc ff ff 	cmpq   $0x0,-0x350(%rbp)
  402a83:	00 
  402a84:	75 02                	jne    402a88 <main+0x1698>
  402a86:	eb 67                	jmp    402aef <main+0x16ff>
  402a88:	48 8b 85 b0 fc ff ff 	mov    -0x350(%rbp),%rax
  402a8f:	48 83 78 50 00       	cmpq   $0x0,0x50(%rax)
  402a94:	74 1f                	je     402ab5 <main+0x16c5>
  402a96:	48 8b 85 b0 fc ff ff 	mov    -0x350(%rbp),%rax
  402a9d:	48 8b 00             	mov    (%rax),%rax
  402aa0:	48 8b 40 28          	mov    0x28(%rax),%rax
  402aa4:	48 8b 40 30          	mov    0x30(%rax),%rax
  402aa8:	48 8b 8d b0 fc ff ff 	mov    -0x350(%rbp),%rcx
  402aaf:	48 8b 79 50          	mov    0x50(%rcx),%rdi
  402ab3:	ff d0                	callq  *%rax
  402ab5:	31 f6                	xor    %esi,%esi
  402ab7:	48 8b 85 b0 fc ff ff 	mov    -0x350(%rbp),%rax
  402abe:	48 89 85 c0 fc ff ff 	mov    %rax,-0x340(%rbp)
  402ac5:	48 c7 85 b8 fc ff ff 	movq   $0x58,-0x348(%rbp)
  402acc:	58 00 00 00 
  402ad0:	48 8b 04 25 70 e3 44 	mov    0x44e370,%rax
  402ad7:	00 
  402ad8:	48 8b bd c0 fc ff ff 	mov    -0x340(%rbp),%rdi
  402adf:	48 8b 95 b8 fc ff ff 	mov    -0x348(%rbp),%rdx
  402ae6:	ff d0                	callq  *%rax
  402ae8:	48 89 85 e8 e8 ff ff 	mov    %rax,-0x1718(%rbp)
  402aef:	48 8b 85 68 fc ff ff 	mov    -0x398(%rbp),%rax
  402af6:	48 83 c0 50          	add    $0x50,%rax
  402afa:	48 89 c7             	mov    %rax,%rdi
  402afd:	e8 5e 84 02 00       	callq  42af60 <mbedtls_md_free>
  402b02:	48 8b 85 68 fc ff ff 	mov    -0x398(%rbp),%rax
  402b09:	48 83 c0 68          	add    $0x68,%rax
  402b0d:	48 89 c7             	mov    %rax,%rdi
  402b10:	e8 4b 84 02 00       	callq  42af60 <mbedtls_md_free>
  402b15:	31 f6                	xor    %esi,%esi
  402b17:	48 8b 85 68 fc ff ff 	mov    -0x398(%rbp),%rax
  402b1e:	48 89 85 78 fc ff ff 	mov    %rax,-0x388(%rbp)
  402b25:	48 c7 85 70 fc ff ff 	movq   $0x130,-0x390(%rbp)
  402b2c:	30 01 00 00 
  402b30:	48 8b 04 25 70 e3 44 	mov    0x44e370,%rax
  402b37:	00 
  402b38:	48 8b bd 78 fc ff ff 	mov    -0x388(%rbp),%rdi
  402b3f:	48 8b 95 70 fc ff ff 	mov    -0x390(%rbp),%rdx
  402b46:	ff d0                	callq  *%rax
  402b48:	48 89 85 e0 e8 ff ff 	mov    %rax,-0x1720(%rbp)
  402b4f:	48 8b 85 50 fc ff ff 	mov    -0x3b0(%rbp),%rax
  402b56:	48 8b 40 70          	mov    0x70(%rax),%rax
  402b5a:	48 89 c7             	mov    %rax,%rdi
  402b5d:	e8 7e e5 ff ff       	callq  4010e0 <free@plt>
  402b62:	48 8b 85 50 fc ff ff 	mov    -0x3b0(%rbp),%rax
  402b69:	48 c7 40 70 00 00 00 	movq   $0x0,0x70(%rax)
  402b70:	00 
  402b71:	48 8b 85 50 fc ff ff 	mov    -0x3b0(%rbp),%rax
  402b78:	48 83 78 48 00       	cmpq   $0x0,0x48(%rax)
  402b7d:	0f 84 ab 00 00 00    	je     402c2e <main+0x183e>
  402b83:	48 8b 85 50 fc ff ff 	mov    -0x3b0(%rbp),%rax
  402b8a:	48 8b 40 48          	mov    0x48(%rax),%rax
  402b8e:	48 89 85 80 fc ff ff 	mov    %rax,-0x380(%rbp)
  402b95:	48 83 bd 80 fc ff ff 	cmpq   $0x0,-0x380(%rbp)
  402b9c:	00 
  402b9d:	75 02                	jne    402ba1 <main+0x17b1>
  402b9f:	eb 6b                	jmp    402c0c <main+0x181c>
  402ba1:	48 8b 85 80 fc ff ff 	mov    -0x380(%rbp),%rax
  402ba8:	48 83 78 68 00       	cmpq   $0x0,0x68(%rax)
  402bad:	74 23                	je     402bd2 <main+0x17e2>
  402baf:	48 8b 85 80 fc ff ff 	mov    -0x380(%rbp),%rax
  402bb6:	48 8b 78 68          	mov    0x68(%rax),%rdi
  402bba:	e8 b1 33 01 00       	callq  415f70 <mbedtls_x509_crt_free>
  402bbf:	48 8b 85 80 fc ff ff 	mov    -0x380(%rbp),%rax
  402bc6:	48 8b 40 68          	mov    0x68(%rax),%rax
  402bca:	48 89 c7             	mov    %rax,%rdi
  402bcd:	e8 0e e5 ff ff       	callq  4010e0 <free@plt>
  402bd2:	31 f6                	xor    %esi,%esi
  402bd4:	48 8b 85 80 fc ff ff 	mov    -0x380(%rbp),%rax
  402bdb:	48 89 85 90 fc ff ff 	mov    %rax,-0x370(%rbp)
  402be2:	48 c7 85 88 fc ff ff 	movq   $0x78,-0x378(%rbp)
  402be9:	78 00 00 00 
  402bed:	48 8b 04 25 70 e3 44 	mov    0x44e370,%rax
  402bf4:	00 
  402bf5:	48 8b bd 90 fc ff ff 	mov    -0x370(%rbp),%rdi
  402bfc:	48 8b 95 88 fc ff ff 	mov    -0x378(%rbp),%rdx
  402c03:	ff d0                	callq  *%rax
  402c05:	48 89 85 d8 e8 ff ff 	mov    %rax,-0x1728(%rbp)
  402c0c:	48 8b 85 50 fc ff ff 	mov    -0x3b0(%rbp),%rax
  402c13:	48 8b 40 48          	mov    0x48(%rax),%rax
  402c17:	48 89 c7             	mov    %rax,%rdi
  402c1a:	e8 c1 e4 ff ff       	callq  4010e0 <free@plt>
  402c1f:	48 8b 85 50 fc ff ff 	mov    -0x3b0(%rbp),%rax
  402c26:	48 c7 40 48 00 00 00 	movq   $0x0,0x48(%rax)
  402c2d:	00 
  402c2e:	48 8b bd 50 fc ff ff 	mov    -0x3b0(%rbp),%rdi
  402c35:	e8 06 92 00 00       	callq  40be40 <ssl_handshake_init>
  402c3a:	89 85 48 fc ff ff    	mov    %eax,-0x3b8(%rbp)
  402c40:	83 f8 00             	cmp    $0x0,%eax
  402c43:	74 0e                	je     402c53 <main+0x1863>
  402c45:	8b 85 48 fc ff ff    	mov    -0x3b8(%rbp),%eax
  402c4b:	89 85 58 fc ff ff    	mov    %eax,-0x3a8(%rbp)
  402c51:	eb 0a                	jmp    402c5d <main+0x186d>
  402c53:	c7 85 58 fc ff ff 00 	movl   $0x0,-0x3a8(%rbp)
  402c5a:	00 00 00 
  402c5d:	48 bf 30 70 44 00 00 	movabs $0x447030,%rdi
  402c64:	00 00 00 
  402c67:	b0 00                	mov    $0x0,%al
  402c69:	e8 c2 e3 ff ff       	callq  401030 <printf@plt>
  402c6e:	48 8b 3c 25 68 57 45 	mov    0x455768,%rdi
  402c75:	00 
  402c76:	89 85 d4 e8 ff ff    	mov    %eax,-0x172c(%rbp)
  402c7c:	e8 bf e3 ff ff       	callq  401040 <fflush@plt>
  402c81:	48 8d bd b8 f7 ff ff 	lea    -0x848(%rbp),%rdi
  402c88:	48 89 bd 18 fe ff ff 	mov    %rdi,-0x1e8(%rbp)
  402c8f:	48 8d bd b0 f7 ff ff 	lea    -0x850(%rbp),%rdi
  402c96:	48 89 bd 10 fe ff ff 	mov    %rdi,-0x1f0(%rbp)
  402c9d:	48 c7 85 08 fe ff ff 	movq   $0x0,-0x1f8(%rbp)
  402ca4:	00 00 00 00 
  402ca8:	48 c7 85 00 fe ff ff 	movq   $0x0,-0x200(%rbp)
  402caf:	00 00 00 00 
  402cb3:	48 c7 85 f8 fd ff ff 	movq   $0x0,-0x208(%rbp)
  402cba:	00 00 00 00 
  402cbe:	c7 85 6c fd ff ff 80 	movl   $0x80,-0x294(%rbp)
  402cc5:	00 00 00 
  402cc8:	c7 85 68 fd ff ff 04 	movl   $0x4,-0x298(%rbp)
  402ccf:	00 00 00 
  402cd2:	48 8b bd 18 fe ff ff 	mov    -0x1e8(%rbp),%rdi
  402cd9:	8b 3f                	mov    (%rdi),%edi
  402cdb:	48 8d 8d f0 fd ff ff 	lea    -0x210(%rbp),%rcx
  402ce2:	be 01 00 00 00       	mov    $0x1,%esi
  402ce7:	ba 03 00 00 00       	mov    $0x3,%edx
  402cec:	4c 8d 85 68 fd ff ff 	lea    -0x298(%rbp),%r8
  402cf3:	89 85 d0 e8 ff ff    	mov    %eax,-0x1730(%rbp)
  402cf9:	e8 02 e4 ff ff       	callq  401100 <getsockopt@plt>
  402cfe:	83 f8 00             	cmp    $0x0,%eax
  402d01:	75 12                	jne    402d15 <main+0x1925>
  402d03:	83 bd f0 fd ff ff 01 	cmpl   $0x1,-0x210(%rbp)
  402d0a:	74 18                	je     402d24 <main+0x1934>
  402d0c:	83 bd f0 fd ff ff 02 	cmpl   $0x2,-0x210(%rbp)
  402d13:	74 0f                	je     402d24 <main+0x1934>
  402d15:	c7 85 20 fe ff ff b6 	movl   $0xffffffb6,-0x1e0(%rbp)
  402d1c:	ff ff ff 
  402d1f:	e9 87 03 00 00       	jmpq   4030ab <main+0x1cbb>
  402d24:	83 bd f0 fd ff ff 01 	cmpl   $0x1,-0x210(%rbp)
  402d2b:	75 30                	jne    402d5d <main+0x196d>
  402d2d:	48 8b 85 18 fe ff ff 	mov    -0x1e8(%rbp),%rax
  402d34:	8b 38                	mov    (%rax),%edi
  402d36:	48 8d 85 70 fd ff ff 	lea    -0x290(%rbp),%rax
  402d3d:	48 89 c6             	mov    %rax,%rsi
  402d40:	48 8d 95 6c fd ff ff 	lea    -0x294(%rbp),%rdx
  402d47:	e8 c4 e3 ff ff       	callq  401110 <accept@plt>
  402d4c:	48 8b 95 10 fe ff ff 	mov    -0x1f0(%rbp),%rdx
  402d53:	89 02                	mov    %eax,(%rdx)
  402d55:	89 85 f4 fd ff ff    	mov    %eax,-0x20c(%rbp)
  402d5b:	eb 70                	jmp    402dcd <main+0x19dd>
  402d5d:	b8 01 00 00 00       	mov    $0x1,%eax
  402d62:	89 c1                	mov    %eax,%ecx
  402d64:	48 8d 95 67 fd ff ff 	lea    -0x299(%rbp),%rdx
  402d6b:	31 f6                	xor    %esi,%esi
  402d6d:	48 89 d7             	mov    %rdx,%rdi
  402d70:	48 89 95 c8 e8 ff ff 	mov    %rdx,-0x1738(%rbp)
  402d77:	48 89 ca             	mov    %rcx,%rdx
  402d7a:	48 89 8d c0 e8 ff ff 	mov    %rcx,-0x1740(%rbp)
  402d81:	e8 9a e2 ff ff       	callq  401020 <memset@plt>
  402d86:	48 8b 8d 18 fe ff ff 	mov    -0x1e8(%rbp),%rcx
  402d8d:	8b 39                	mov    (%rcx),%edi
  402d8f:	48 8d 8d 70 fd ff ff 	lea    -0x290(%rbp),%rcx
  402d96:	48 8b b5 c8 e8 ff ff 	mov    -0x1738(%rbp),%rsi
  402d9d:	48 8b 95 c0 e8 ff ff 	mov    -0x1740(%rbp),%rdx
  402da4:	b8 02 00 00 00       	mov    $0x2,%eax
  402da9:	48 89 8d b8 e8 ff ff 	mov    %rcx,-0x1748(%rbp)
  402db0:	89 c1                	mov    %eax,%ecx
  402db2:	4c 8b 85 b8 e8 ff ff 	mov    -0x1748(%rbp),%r8
  402db9:	4c 8d 8d 6c fd ff ff 	lea    -0x294(%rbp),%r9
  402dc0:	e8 5b e3 ff ff       	callq  401120 <recvfrom@plt>
  402dc5:	89 c1                	mov    %eax,%ecx
  402dc7:	89 8d f4 fd ff ff    	mov    %ecx,-0x20c(%rbp)
  402dcd:	83 bd f4 fd ff ff 00 	cmpl   $0x0,-0x20c(%rbp)
  402dd4:	0f 8d be 00 00 00    	jge    402e98 <main+0x1aa8>
  402dda:	48 8b 85 18 fe ff ff 	mov    -0x1e8(%rbp),%rax
  402de1:	48 89 85 28 fe ff ff 	mov    %rax,-0x1d8(%rbp)
  402de8:	e8 43 e3 ff ff       	callq  401130 <__errno_location@plt>
  402ded:	8b 08                	mov    (%rax),%ecx
  402def:	89 8d 24 fe ff ff    	mov    %ecx,-0x1dc(%rbp)
  402df5:	48 8b 85 28 fe ff ff 	mov    -0x1d8(%rbp),%rax
  402dfc:	8b 38                	mov    (%rax),%edi
  402dfe:	be 03 00 00 00       	mov    $0x3,%esi
  402e03:	b0 00                	mov    $0x0,%al
  402e05:	e8 36 e3 ff ff       	callq  401140 <fcntl@plt>
  402e0a:	25 00 08 00 00       	and    $0x800,%eax
  402e0f:	3d 00 08 00 00       	cmp    $0x800,%eax
  402e14:	74 25                	je     402e3b <main+0x1a4b>
  402e16:	8b 85 24 fe ff ff    	mov    -0x1dc(%rbp),%eax
  402e1c:	89 85 b4 e8 ff ff    	mov    %eax,-0x174c(%rbp)
  402e22:	e8 09 e3 ff ff       	callq  401130 <__errno_location@plt>
  402e27:	8b 8d b4 e8 ff ff    	mov    -0x174c(%rbp),%ecx
  402e2d:	89 08                	mov    %ecx,(%rax)
  402e2f:	c7 85 34 fe ff ff 00 	movl   $0x0,-0x1cc(%rbp)
  402e36:	00 00 00 
  402e39:	eb 34                	jmp    402e6f <main+0x1a7f>
  402e3b:	8b 85 24 fe ff ff    	mov    -0x1dc(%rbp),%eax
  402e41:	89 85 b0 e8 ff ff    	mov    %eax,-0x1750(%rbp)
  402e47:	e8 e4 e2 ff ff       	callq  401130 <__errno_location@plt>
  402e4c:	8b 8d b0 e8 ff ff    	mov    -0x1750(%rbp),%ecx
  402e52:	89 08                	mov    %ecx,(%rax)
  402e54:	83 f9 0b             	cmp    $0xb,%ecx
  402e57:	75 0c                	jne    402e65 <main+0x1a75>
  402e59:	c7 85 34 fe ff ff 01 	movl   $0x1,-0x1cc(%rbp)
  402e60:	00 00 00 
  402e63:	eb 0a                	jmp    402e6f <main+0x1a7f>
  402e65:	c7 85 34 fe ff ff 00 	movl   $0x0,-0x1cc(%rbp)
  402e6c:	00 00 00 
  402e6f:	8b 85 34 fe ff ff    	mov    -0x1cc(%rbp),%eax
  402e75:	83 f8 00             	cmp    $0x0,%eax
  402e78:	74 0f                	je     402e89 <main+0x1a99>
  402e7a:	c7 85 20 fe ff ff 00 	movl   $0xffff9700,-0x1e0(%rbp)
  402e81:	97 ff ff 
  402e84:	e9 22 02 00 00       	jmpq   4030ab <main+0x1cbb>
  402e89:	c7 85 20 fe ff ff b6 	movl   $0xffffffb6,-0x1e0(%rbp)
  402e90:	ff ff ff 
  402e93:	e9 13 02 00 00       	jmpq   4030ab <main+0x1cbb>
  402e98:	83 bd f0 fd ff ff 01 	cmpl   $0x1,-0x210(%rbp)
  402e9f:	0f 84 1d 01 00 00    	je     402fc2 <main+0x1bd2>
  402ea5:	c7 85 dc fc ff ff 01 	movl   $0x1,-0x324(%rbp)
  402eac:	00 00 00 
  402eaf:	48 8b 85 18 fe ff ff 	mov    -0x1e8(%rbp),%rax
  402eb6:	8b 38                	mov    (%rax),%edi
  402eb8:	48 8d 85 70 fd ff ff 	lea    -0x290(%rbp),%rax
  402ebf:	8b 95 6c fd ff ff    	mov    -0x294(%rbp),%edx
  402ec5:	48 89 c6             	mov    %rax,%rsi
  402ec8:	e8 83 e2 ff ff       	callq  401150 <connect@plt>
  402ecd:	83 f8 00             	cmp    $0x0,%eax
  402ed0:	74 0f                	je     402ee1 <main+0x1af1>
  402ed2:	c7 85 20 fe ff ff b6 	movl   $0xffffffb6,-0x1e0(%rbp)
  402ed9:	ff ff ff 
  402edc:	e9 ca 01 00 00       	jmpq   4030ab <main+0x1cbb>
  402ee1:	48 8b 85 18 fe ff ff 	mov    -0x1e8(%rbp),%rax
  402ee8:	8b 08                	mov    (%rax),%ecx
  402eea:	48 8b 85 10 fe ff ff 	mov    -0x1f0(%rbp),%rax
  402ef1:	89 08                	mov    %ecx,(%rax)
  402ef3:	48 8b 85 18 fe ff ff 	mov    -0x1e8(%rbp),%rax
  402efa:	c7 00 ff ff ff ff    	movl   $0xffffffff,(%rax)
  402f00:	c7 85 6c fd ff ff 80 	movl   $0x80,-0x294(%rbp)
  402f07:	00 00 00 
  402f0a:	48 8b 85 10 fe ff ff 	mov    -0x1f0(%rbp),%rax
  402f11:	8b 38                	mov    (%rax),%edi
  402f13:	48 8d 85 e0 fc ff ff 	lea    -0x320(%rbp),%rax
  402f1a:	48 89 c6             	mov    %rax,%rsi
  402f1d:	48 8d 95 6c fd ff ff 	lea    -0x294(%rbp),%rdx
  402f24:	e8 37 e2 ff ff       	callq  401160 <getsockname@plt>
  402f29:	83 f8 00             	cmp    $0x0,%eax
  402f2c:	75 51                	jne    402f7f <main+0x1b8f>
  402f2e:	0f b7 bd e0 fc ff ff 	movzwl -0x320(%rbp),%edi
  402f35:	be 02 00 00 00       	mov    $0x2,%esi
  402f3a:	ba 11 00 00 00       	mov    $0x11,%edx
  402f3f:	e8 2c e1 ff ff       	callq  401070 <socket@plt>
  402f44:	48 8b 8d 18 fe ff ff 	mov    -0x1e8(%rbp),%rcx
  402f4b:	89 01                	mov    %eax,(%rcx)
  402f4d:	83 f8 00             	cmp    $0x0,%eax
  402f50:	7c 2d                	jl     402f7f <main+0x1b8f>
  402f52:	48 8b 85 18 fe ff ff 	mov    -0x1e8(%rbp),%rax
  402f59:	8b 38                	mov    (%rax),%edi
  402f5b:	48 8d 85 dc fc ff ff 	lea    -0x324(%rbp),%rax
  402f62:	be 01 00 00 00       	mov    $0x1,%esi
  402f67:	ba 02 00 00 00       	mov    $0x2,%edx
  402f6c:	48 89 c1             	mov    %rax,%rcx
  402f6f:	41 b8 04 00 00 00    	mov    $0x4,%r8d
  402f75:	e8 06 e1 ff ff       	callq  401080 <setsockopt@plt>
  402f7a:	83 f8 00             	cmp    $0x0,%eax
  402f7d:	74 0f                	je     402f8e <main+0x1b9e>
  402f7f:	c7 85 20 fe ff ff be 	movl   $0xffffffbe,-0x1e0(%rbp)
  402f86:	ff ff ff 
  402f89:	e9 1d 01 00 00       	jmpq   4030ab <main+0x1cbb>
  402f8e:	48 8b 85 18 fe ff ff 	mov    -0x1e8(%rbp),%rax
  402f95:	8b 38                	mov    (%rax),%edi
  402f97:	48 8d 85 e0 fc ff ff 	lea    -0x320(%rbp),%rax
  402f9e:	8b 95 6c fd ff ff    	mov    -0x294(%rbp),%edx
  402fa4:	48 89 c6             	mov    %rax,%rsi
  402fa7:	e8 f4 e0 ff ff       	callq  4010a0 <bind@plt>
  402fac:	83 f8 00             	cmp    $0x0,%eax
  402faf:	74 0f                	je     402fc0 <main+0x1bd0>
  402fb1:	c7 85 20 fe ff ff ba 	movl   $0xffffffba,-0x1e0(%rbp)
  402fb8:	ff ff ff 
  402fbb:	e9 eb 00 00 00       	jmpq   4030ab <main+0x1cbb>
  402fc0:	eb 00                	jmp    402fc2 <main+0x1bd2>
  402fc2:	48 83 bd 08 fe ff ff 	cmpq   $0x0,-0x1f8(%rbp)
  402fc9:	00 
  402fca:	0f 84 d1 00 00 00    	je     4030a1 <main+0x1cb1>
  402fd0:	0f b7 85 70 fd ff ff 	movzwl -0x290(%rbp),%eax
  402fd7:	83 f8 02             	cmp    $0x2,%eax
  402fda:	75 64                	jne    403040 <main+0x1c50>
  402fdc:	48 8d 85 70 fd ff ff 	lea    -0x290(%rbp),%rax
  402fe3:	48 89 85 d0 fc ff ff 	mov    %rax,-0x330(%rbp)
  402fea:	48 8b 85 f8 fd ff ff 	mov    -0x208(%rbp),%rax
  402ff1:	48 c7 00 04 00 00 00 	movq   $0x4,(%rax)
  402ff8:	48 8b 85 00 fe ff ff 	mov    -0x200(%rbp),%rax
  402fff:	48 8b 8d f8 fd ff ff 	mov    -0x208(%rbp),%rcx
  403006:	48 3b 01             	cmp    (%rcx),%rax
  403009:	73 0f                	jae    40301a <main+0x1c2a>
  40300b:	c7 85 20 fe ff ff bd 	movl   $0xffffffbd,-0x1e0(%rbp)
  403012:	ff ff ff 
  403015:	e9 91 00 00 00       	jmpq   4030ab <main+0x1cbb>
  40301a:	48 8b bd 08 fe ff ff 	mov    -0x1f8(%rbp),%rdi
  403021:	48 8b 85 d0 fc ff ff 	mov    -0x330(%rbp),%rax
  403028:	48 83 c0 04          	add    $0x4,%rax
  40302c:	48 8b 8d f8 fd ff ff 	mov    -0x208(%rbp),%rcx
  403033:	48 8b 11             	mov    (%rcx),%rdx
  403036:	48 89 c6             	mov    %rax,%rsi
  403039:	e8 32 e1 ff ff       	callq  401170 <memcpy@plt>
  40303e:	eb 5f                	jmp    40309f <main+0x1caf>
  403040:	48 8d 85 70 fd ff ff 	lea    -0x290(%rbp),%rax
  403047:	48 89 85 c8 fc ff ff 	mov    %rax,-0x338(%rbp)
  40304e:	48 8b 85 f8 fd ff ff 	mov    -0x208(%rbp),%rax
  403055:	48 c7 00 10 00 00 00 	movq   $0x10,(%rax)
  40305c:	48 8b 85 00 fe ff ff 	mov    -0x200(%rbp),%rax
  403063:	48 8b 8d f8 fd ff ff 	mov    -0x208(%rbp),%rcx
  40306a:	48 3b 01             	cmp    (%rcx),%rax
  40306d:	73 0c                	jae    40307b <main+0x1c8b>
  40306f:	c7 85 20 fe ff ff bd 	movl   $0xffffffbd,-0x1e0(%rbp)
  403076:	ff ff ff 
  403079:	eb 30                	jmp    4030ab <main+0x1cbb>
  40307b:	48 8b bd 08 fe ff ff 	mov    -0x1f8(%rbp),%rdi
  403082:	48 8b 85 c8 fc ff ff 	mov    -0x338(%rbp),%rax
  403089:	48 83 c0 08          	add    $0x8,%rax
  40308d:	48 8b 8d f8 fd ff ff 	mov    -0x208(%rbp),%rcx
  403094:	48 8b 11             	mov    (%rcx),%rdx
  403097:	48 89 c6             	mov    %rax,%rsi
  40309a:	e8 d1 e0 ff ff       	callq  401170 <memcpy@plt>
  40309f:	eb 00                	jmp    4030a1 <main+0x1cb1>
  4030a1:	c7 85 20 fe ff ff 00 	movl   $0x0,-0x1e0(%rbp)
  4030a8:	00 00 00 
  4030ab:	8b 85 20 fe ff ff    	mov    -0x1e0(%rbp),%eax
  4030b1:	89 85 c0 f7 ff ff    	mov    %eax,-0x840(%rbp)
  4030b7:	83 f8 00             	cmp    $0x0,%eax
  4030ba:	74 22                	je     4030de <main+0x1cee>
  4030bc:	48 bf 60 70 44 00 00 	movabs $0x447060,%rdi
  4030c3:	00 00 00 
  4030c6:	8b b5 c0 f7 ff ff    	mov    -0x840(%rbp),%esi
  4030cc:	b0 00                	mov    $0x0,%al
  4030ce:	e8 5d df ff ff       	callq  401030 <printf@plt>
  4030d3:	89 85 ac e8 ff ff    	mov    %eax,-0x1754(%rbp)
  4030d9:	e9 ff 0e 00 00       	jmpq   403fdd <main+0x2bed>
  4030de:	48 bf 80 6e 44 00 00 	movabs $0x446e80,%rdi
  4030e5:	00 00 00 
  4030e8:	48 8d 85 b0 f7 ff ff 	lea    -0x850(%rbp),%rax
  4030ef:	48 8d 8d 58 ed ff ff 	lea    -0x12a8(%rbp),%rcx
  4030f6:	48 89 8d 58 fe ff ff 	mov    %rcx,-0x1a8(%rbp)
  4030fd:	48 89 85 50 fe ff ff 	mov    %rax,-0x1b0(%rbp)
  403104:	48 b8 e0 4c 40 00 00 	movabs $0x404ce0,%rax
  40310b:	00 00 00 
  40310e:	48 89 85 48 fe ff ff 	mov    %rax,-0x1b8(%rbp)
  403115:	48 b8 c0 4b 40 00 00 	movabs $0x404bc0,%rax
  40311c:	00 00 00 
  40311f:	48 89 85 40 fe ff ff 	mov    %rax,-0x1c0(%rbp)
  403126:	48 c7 85 38 fe ff ff 	movq   $0x0,-0x1c8(%rbp)
  40312d:	00 00 00 00 
  403131:	48 8b 85 50 fe ff ff 	mov    -0x1b0(%rbp),%rax
  403138:	48 8b 8d 58 fe ff ff 	mov    -0x1a8(%rbp),%rcx
  40313f:	48 89 41 30          	mov    %rax,0x30(%rcx)
  403143:	48 8b 85 48 fe ff ff 	mov    -0x1b8(%rbp),%rax
  40314a:	48 8b 8d 58 fe ff ff 	mov    -0x1a8(%rbp),%rcx
  403151:	48 89 41 18          	mov    %rax,0x18(%rcx)
  403155:	48 8b 85 40 fe ff ff 	mov    -0x1c0(%rbp),%rax
  40315c:	48 8b 8d 58 fe ff ff 	mov    -0x1a8(%rbp),%rcx
  403163:	48 89 41 20          	mov    %rax,0x20(%rcx)
  403167:	48 8b 85 38 fe ff ff 	mov    -0x1c8(%rbp),%rax
  40316e:	48 8b 8d 58 fe ff ff 	mov    -0x1a8(%rbp),%rcx
  403175:	48 89 41 28          	mov    %rax,0x28(%rcx)
  403179:	b0 00                	mov    $0x0,%al
  40317b:	e8 b0 de ff ff       	callq  401030 <printf@plt>
  403180:	48 bf 90 70 44 00 00 	movabs $0x447090,%rdi
  403187:	00 00 00 
  40318a:	89 85 a8 e8 ff ff    	mov    %eax,-0x1758(%rbp)
  403190:	b0 00                	mov    $0x0,%al
  403192:	e8 99 de ff ff       	callq  401030 <printf@plt>
  403197:	48 8b 3c 25 68 57 45 	mov    0x455768,%rdi
  40319e:	00 
  40319f:	89 85 a4 e8 ff ff    	mov    %eax,-0x175c(%rbp)
  4031a5:	e8 96 de ff ff       	callq  401040 <fflush@plt>
  4031aa:	89 85 a0 e8 ff ff    	mov    %eax,-0x1760(%rbp)
  4031b0:	48 8d 85 58 ed ff ff 	lea    -0x12a8(%rbp),%rax
  4031b7:	48 89 85 68 fe ff ff 	mov    %rax,-0x198(%rbp)
  4031be:	c7 85 64 fe ff ff 00 	movl   $0x0,-0x19c(%rbp)
  4031c5:	00 00 00 
  4031c8:	48 83 bd 68 fe ff ff 	cmpq   $0x0,-0x198(%rbp)
  4031cf:	00 
  4031d0:	74 0d                	je     4031df <main+0x1def>
  4031d2:	48 8b 85 68 fe ff ff 	mov    -0x198(%rbp),%rax
  4031d9:	48 83 38 00          	cmpq   $0x0,(%rax)
  4031dd:	75 0c                	jne    4031eb <main+0x1dfb>
  4031df:	c7 85 74 fe ff ff 00 	movl   $0xffff8f00,-0x18c(%rbp)
  4031e6:	8f ff ff 
  4031e9:	eb 3a                	jmp    403225 <main+0x1e35>
  4031eb:	eb 00                	jmp    4031ed <main+0x1dfd>
  4031ed:	48 8b 85 68 fe ff ff 	mov    -0x198(%rbp),%rax
  4031f4:	83 78 08 10          	cmpl   $0x10,0x8(%rax)
  4031f8:	74 1f                	je     403219 <main+0x1e29>
  4031fa:	48 8b bd 68 fe ff ff 	mov    -0x198(%rbp),%rdi
  403201:	e8 5a 95 00 00       	callq  40c760 <mbedtls_ssl_handshake_step>
  403206:	89 85 64 fe ff ff    	mov    %eax,-0x19c(%rbp)
  40320c:	83 bd 64 fe ff ff 00 	cmpl   $0x0,-0x19c(%rbp)
  403213:	74 02                	je     403217 <main+0x1e27>
  403215:	eb 02                	jmp    403219 <main+0x1e29>
  403217:	eb d4                	jmp    4031ed <main+0x1dfd>
  403219:	8b 85 64 fe ff ff    	mov    -0x19c(%rbp),%eax
  40321f:	89 85 74 fe ff ff    	mov    %eax,-0x18c(%rbp)
  403225:	8b 85 74 fe ff ff    	mov    -0x18c(%rbp),%eax
  40322b:	89 85 c0 f7 ff ff    	mov    %eax,-0x840(%rbp)
  403231:	83 f8 00             	cmp    $0x0,%eax
  403234:	74 3f                	je     403275 <main+0x1e85>
  403236:	81 bd c0 f7 ff ff 00 	cmpl   $0xffff9700,-0x840(%rbp)
  40323d:	97 ff ff 
  403240:	74 2e                	je     403270 <main+0x1e80>
  403242:	81 bd c0 f7 ff ff 80 	cmpl   $0xffff9780,-0x840(%rbp)
  403249:	97 ff ff 
  40324c:	74 22                	je     403270 <main+0x1e80>
  40324e:	48 bf c0 70 44 00 00 	movabs $0x4470c0,%rdi
  403255:	00 00 00 
  403258:	8b b5 c0 f7 ff ff    	mov    -0x840(%rbp),%esi
  40325e:	b0 00                	mov    $0x0,%al
  403260:	e8 cb dd ff ff       	callq  401030 <printf@plt>
  403265:	89 85 9c e8 ff ff    	mov    %eax,-0x1764(%rbp)
  40326b:	e9 d5 f4 ff ff       	jmpq   402745 <main+0x1355>
  403270:	e9 3b ff ff ff       	jmpq   4031b0 <main+0x1dc0>
  403275:	48 bf 80 6e 44 00 00 	movabs $0x446e80,%rdi
  40327c:	00 00 00 
  40327f:	b0 00                	mov    $0x0,%al
  403281:	e8 aa dd ff ff       	callq  401030 <printf@plt>
  403286:	48 bf f0 70 44 00 00 	movabs $0x4470f0,%rdi
  40328d:	00 00 00 
  403290:	89 85 98 e8 ff ff    	mov    %eax,-0x1768(%rbp)
  403296:	b0 00                	mov    $0x0,%al
  403298:	e8 93 dd ff ff       	callq  401030 <printf@plt>
  40329d:	48 8b 3c 25 68 57 45 	mov    0x455768,%rdi
  4032a4:	00 
  4032a5:	89 85 94 e8 ff ff    	mov    %eax,-0x176c(%rbp)
  4032ab:	e8 90 dd ff ff       	callq  401040 <fflush@plt>
  4032b0:	89 85 90 e8 ff ff    	mov    %eax,-0x1770(%rbp)
  4032b6:	48 8d 85 b0 f3 ff ff 	lea    -0xc50(%rbp),%rax
  4032bd:	31 f6                	xor    %esi,%esi
  4032bf:	b9 00 04 00 00       	mov    $0x400,%ecx
  4032c4:	89 ca                	mov    %ecx,%edx
  4032c6:	c7 85 bc f7 ff ff ff 	movl   $0x3ff,-0x844(%rbp)
  4032cd:	03 00 00 
  4032d0:	48 89 c7             	mov    %rax,%rdi
  4032d3:	48 89 85 88 e8 ff ff 	mov    %rax,-0x1778(%rbp)
  4032da:	e8 41 dd ff ff       	callq  401020 <memset@plt>
  4032df:	48 63 85 bc f7 ff ff 	movslq -0x844(%rbp),%rax
  4032e6:	48 8d 95 58 ed ff ff 	lea    -0x12a8(%rbp),%rdx
  4032ed:	48 89 95 98 fe ff ff 	mov    %rdx,-0x168(%rbp)
  4032f4:	48 8b 95 88 e8 ff ff 	mov    -0x1778(%rbp),%rdx
  4032fb:	48 89 95 90 fe ff ff 	mov    %rdx,-0x170(%rbp)
  403302:	48 89 85 88 fe ff ff 	mov    %rax,-0x178(%rbp)
  403309:	48 83 bd 98 fe ff ff 	cmpq   $0x0,-0x168(%rbp)
  403310:	00 
  403311:	74 0d                	je     403320 <main+0x1f30>
  403313:	48 8b 85 98 fe ff ff 	mov    -0x168(%rbp),%rax
  40331a:	48 83 38 00          	cmpq   $0x0,(%rax)
  40331e:	75 0f                	jne    40332f <main+0x1f3f>
  403320:	c7 85 a0 fe ff ff 00 	movl   $0xffff8f00,-0x160(%rbp)
  403327:	8f ff ff 
  40332a:	e9 ae 05 00 00       	jmpq   4038dd <main+0x24ed>
  40332f:	48 8b 85 98 fe ff ff 	mov    -0x168(%rbp),%rax
  403336:	83 78 08 10          	cmpl   $0x10,0x8(%rax)
  40333a:	0f 84 a9 00 00 00    	je     4033e9 <main+0x1ff9>
  403340:	48 8b 85 98 fe ff ff 	mov    -0x168(%rbp),%rax
  403347:	48 89 85 a8 fe ff ff 	mov    %rax,-0x158(%rbp)
  40334e:	c7 85 a4 fe ff ff 00 	movl   $0x0,-0x15c(%rbp)
  403355:	00 00 00 
  403358:	48 83 bd a8 fe ff ff 	cmpq   $0x0,-0x158(%rbp)
  40335f:	00 
  403360:	74 0d                	je     40336f <main+0x1f7f>
  403362:	48 8b 85 a8 fe ff ff 	mov    -0x158(%rbp),%rax
  403369:	48 83 38 00          	cmpq   $0x0,(%rax)
  40336d:	75 0c                	jne    40337b <main+0x1f8b>
  40336f:	c7 85 b0 fe ff ff 00 	movl   $0xffff8f00,-0x150(%rbp)
  403376:	8f ff ff 
  403379:	eb 3a                	jmp    4033b5 <main+0x1fc5>
  40337b:	eb 00                	jmp    40337d <main+0x1f8d>
  40337d:	48 8b 85 a8 fe ff ff 	mov    -0x158(%rbp),%rax
  403384:	83 78 08 10          	cmpl   $0x10,0x8(%rax)
  403388:	74 1f                	je     4033a9 <main+0x1fb9>
  40338a:	48 8b bd a8 fe ff ff 	mov    -0x158(%rbp),%rdi
  403391:	e8 ca 93 00 00       	callq  40c760 <mbedtls_ssl_handshake_step>
  403396:	89 85 a4 fe ff ff    	mov    %eax,-0x15c(%rbp)
  40339c:	83 bd a4 fe ff ff 00 	cmpl   $0x0,-0x15c(%rbp)
  4033a3:	74 02                	je     4033a7 <main+0x1fb7>
  4033a5:	eb 02                	jmp    4033a9 <main+0x1fb9>
  4033a7:	eb d4                	jmp    40337d <main+0x1f8d>
  4033a9:	8b 85 a4 fe ff ff    	mov    -0x15c(%rbp),%eax
  4033af:	89 85 b0 fe ff ff    	mov    %eax,-0x150(%rbp)
  4033b5:	8b 85 b0 fe ff ff    	mov    -0x150(%rbp),%eax
  4033bb:	89 85 84 fe ff ff    	mov    %eax,-0x17c(%rbp)
  4033c1:	81 bd 84 fe ff ff 00 	cmpl   $0xffff9500,-0x17c(%rbp)
  4033c8:	95 ff ff 
  4033cb:	74 1a                	je     4033e7 <main+0x1ff7>
  4033cd:	83 bd 84 fe ff ff 00 	cmpl   $0x0,-0x17c(%rbp)
  4033d4:	74 11                	je     4033e7 <main+0x1ff7>
  4033d6:	8b 85 84 fe ff ff    	mov    -0x17c(%rbp),%eax
  4033dc:	89 85 a0 fe ff ff    	mov    %eax,-0x160(%rbp)
  4033e2:	e9 f6 04 00 00       	jmpq   4038dd <main+0x24ed>
  4033e7:	eb 00                	jmp    4033e9 <main+0x1ff9>
  4033e9:	eb 00                	jmp    4033eb <main+0x1ffb>
  4033eb:	48 8b 85 98 fe ff ff 	mov    -0x168(%rbp),%rax
  4033f2:	48 83 b8 c8 00 00 00 	cmpq   $0x0,0xc8(%rax)
  4033f9:	00 
  4033fa:	0f 85 f2 03 00 00    	jne    4037f2 <main+0x2402>
  403400:	48 8b 85 98 fe ff ff 	mov    -0x168(%rbp),%rax
  403407:	48 83 b8 90 00 00 00 	cmpq   $0x0,0x90(%rax)
  40340e:	00 
  40340f:	0f 84 95 00 00 00    	je     4034aa <main+0x20ba>
  403415:	48 8b 85 98 fe ff ff 	mov    -0x168(%rbp),%rax
  40341c:	48 8b 80 90 00 00 00 	mov    0x90(%rax),%rax
  403423:	48 8b 8d 98 fe ff ff 	mov    -0x168(%rbp),%rcx
  40342a:	48 8b b9 80 00 00 00 	mov    0x80(%rcx),%rdi
  403431:	ff d0                	callq  *%rax
  403433:	83 f8 ff             	cmp    $0xffffffff,%eax
  403436:	75 72                	jne    4034aa <main+0x20ba>
  403438:	48 8b 85 98 fe ff ff 	mov    -0x168(%rbp),%rax
  40343f:	48 8b 8d 98 fe ff ff 	mov    -0x168(%rbp),%rcx
  403446:	48 8b 09             	mov    (%rcx),%rcx
  403449:	8b 91 90 00 00 00    	mov    0x90(%rcx),%edx
  40344f:	48 89 85 b8 fe ff ff 	mov    %rax,-0x148(%rbp)
  403456:	89 95 b4 fe ff ff    	mov    %edx,-0x14c(%rbp)
  40345c:	48 8b 85 b8 fe ff ff 	mov    -0x148(%rbp),%rax
  403463:	48 83 b8 88 00 00 00 	cmpq   $0x0,0x88(%rax)
  40346a:	00 
  40346b:	75 02                	jne    40346f <main+0x207f>
  40346d:	eb 3b                	jmp    4034aa <main+0x20ba>
  40346f:	48 8b 85 b8 fe ff ff 	mov    -0x148(%rbp),%rax
  403476:	48 8b 80 88 00 00 00 	mov    0x88(%rax),%rax
  40347d:	48 8b 8d b8 fe ff ff 	mov    -0x148(%rbp),%rcx
  403484:	48 8b b9 80 00 00 00 	mov    0x80(%rcx),%rdi
  40348b:	8b 95 b4 fe ff ff    	mov    -0x14c(%rbp),%edx
  403491:	c1 ea 02             	shr    $0x2,%edx
  403494:	8b b5 b4 fe ff ff    	mov    -0x14c(%rbp),%esi
  40349a:	89 b5 84 e8 ff ff    	mov    %esi,-0x177c(%rbp)
  4034a0:	89 d6                	mov    %edx,%esi
  4034a2:	8b 95 84 e8 ff ff    	mov    -0x177c(%rbp),%edx
  4034a8:	ff d0                	callq  *%rax
  4034aa:	48 8b bd 98 fe ff ff 	mov    -0x168(%rbp),%rdi
  4034b1:	be 01 00 00 00       	mov    $0x1,%esi
  4034b6:	e8 75 4d 00 00       	callq  408230 <mbedtls_ssl_read_record>
  4034bb:	89 85 84 fe ff ff    	mov    %eax,-0x17c(%rbp)
  4034c1:	83 f8 00             	cmp    $0x0,%eax
  4034c4:	74 2c                	je     4034f2 <main+0x2102>
  4034c6:	81 bd 84 fe ff ff 80 	cmpl   $0xffff8d80,-0x17c(%rbp)
  4034cd:	8d ff ff 
  4034d0:	75 0f                	jne    4034e1 <main+0x20f1>
  4034d2:	c7 85 a0 fe ff ff 00 	movl   $0x0,-0x160(%rbp)
  4034d9:	00 00 00 
  4034dc:	e9 fc 03 00 00       	jmpq   4038dd <main+0x24ed>
  4034e1:	8b 85 84 fe ff ff    	mov    -0x17c(%rbp),%eax
  4034e7:	89 85 a0 fe ff ff    	mov    %eax,-0x160(%rbp)
  4034ed:	e9 eb 03 00 00       	jmpq   4038dd <main+0x24ed>
  4034f2:	48 8b 85 98 fe ff ff 	mov    -0x168(%rbp),%rax
  4034f9:	48 83 b8 d8 00 00 00 	cmpq   $0x0,0xd8(%rax)
  403500:	00 
  403501:	75 5a                	jne    40355d <main+0x216d>
  403503:	48 8b 85 98 fe ff ff 	mov    -0x168(%rbp),%rax
  40350a:	83 b8 d0 00 00 00 17 	cmpl   $0x17,0xd0(%rax)
  403511:	75 4a                	jne    40355d <main+0x216d>
  403513:	48 8b bd 98 fe ff ff 	mov    -0x168(%rbp),%rdi
  40351a:	be 01 00 00 00       	mov    $0x1,%esi
  40351f:	e8 0c 4d 00 00       	callq  408230 <mbedtls_ssl_read_record>
  403524:	89 85 84 fe ff ff    	mov    %eax,-0x17c(%rbp)
  40352a:	83 f8 00             	cmp    $0x0,%eax
  40352d:	74 2c                	je     40355b <main+0x216b>
  40352f:	81 bd 84 fe ff ff 80 	cmpl   $0xffff8d80,-0x17c(%rbp)
  403536:	8d ff ff 
  403539:	75 0f                	jne    40354a <main+0x215a>
  40353b:	c7 85 a0 fe ff ff 00 	movl   $0x0,-0x160(%rbp)
  403542:	00 00 00 
  403545:	e9 93 03 00 00       	jmpq   4038dd <main+0x24ed>
  40354a:	8b 85 84 fe ff ff    	mov    -0x17c(%rbp),%eax
  403550:	89 85 a0 fe ff ff    	mov    %eax,-0x160(%rbp)
  403556:	e9 82 03 00 00       	jmpq   4038dd <main+0x24ed>
  40355b:	eb 00                	jmp    40355d <main+0x216d>
  40355d:	48 8b 85 98 fe ff ff 	mov    -0x168(%rbp),%rax
  403564:	83 b8 d0 00 00 00 16 	cmpl   $0x16,0xd0(%rax)
  40356b:	0f 85 af 01 00 00    	jne    403720 <main+0x2330>
  403571:	48 8b 85 98 fe ff ff 	mov    -0x168(%rbp),%rax
  403578:	48 8b 00             	mov    (%rax),%rax
  40357b:	8a 88 98 00 00 00    	mov    0x98(%rax),%cl
  403581:	80 e1 01             	and    $0x1,%cl
  403584:	0f b6 d1             	movzbl %cl,%edx
  403587:	83 fa 00             	cmp    $0x0,%edx
  40358a:	75 47                	jne    4035d3 <main+0x21e3>
  40358c:	48 8b 85 98 fe ff ff 	mov    -0x168(%rbp),%rax
  403593:	48 8b 80 c0 00 00 00 	mov    0xc0(%rax),%rax
  40359a:	0f b6 08             	movzbl (%rax),%ecx
  40359d:	83 f9 00             	cmp    $0x0,%ecx
  4035a0:	75 22                	jne    4035c4 <main+0x21d4>
  4035a2:	48 8b 85 98 fe ff ff 	mov    -0x168(%rbp),%rax
  4035a9:	48 8b 80 e8 00 00 00 	mov    0xe8(%rax),%rax
  4035b0:	48 8b 8d 98 fe ff ff 	mov    -0x168(%rbp),%rcx
  4035b7:	48 89 8d c0 fe ff ff 	mov    %rcx,-0x140(%rbp)
  4035be:	48 83 f8 04          	cmp    $0x4,%rax
  4035c2:	74 0f                	je     4035d3 <main+0x21e3>
  4035c4:	c7 85 a0 fe ff ff 00 	movl   $0xffff8900,-0x160(%rbp)
  4035cb:	89 ff ff 
  4035ce:	e9 0a 03 00 00       	jmpq   4038dd <main+0x24ed>
  4035d3:	48 8b 85 98 fe ff ff 	mov    -0x168(%rbp),%rax
  4035da:	48 8b 00             	mov    (%rax),%rax
  4035dd:	8a 88 98 00 00 00    	mov    0x98(%rax),%cl
  4035e3:	80 e1 01             	and    $0x1,%cl
  4035e6:	0f b6 d1             	movzbl %cl,%edx
  4035e9:	83 fa 01             	cmp    $0x1,%edx
  4035ec:	75 25                	jne    403613 <main+0x2223>
  4035ee:	48 8b 85 98 fe ff ff 	mov    -0x168(%rbp),%rax
  4035f5:	48 8b 80 c0 00 00 00 	mov    0xc0(%rax),%rax
  4035fc:	0f b6 08             	movzbl (%rax),%ecx
  4035ff:	83 f9 01             	cmp    $0x1,%ecx
  403602:	74 0f                	je     403613 <main+0x2223>
  403604:	c7 85 a0 fe ff ff 00 	movl   $0xffff8900,-0x160(%rbp)
  40360b:	89 ff ff 
  40360e:	e9 ca 02 00 00       	jmpq   4038dd <main+0x24ed>
  403613:	48 8b 85 98 fe ff ff 	mov    -0x168(%rbp),%rax
  40361a:	83 78 10 01          	cmpl   $0x1,0x10(%rax)
  40361e:	0f 8c ed 00 00 00    	jl     403711 <main+0x2321>
  403624:	48 8b 85 98 fe ff ff 	mov    -0x168(%rbp),%rax
  40362b:	48 89 85 e0 fe ff ff 	mov    %rax,-0x120(%rbp)
  403632:	c6 85 df fe ff ff 01 	movb   $0x1,-0x121(%rbp)
  403639:	c6 85 de fe ff ff 64 	movb   $0x64,-0x122(%rbp)
  403640:	48 83 bd e0 fe ff ff 	cmpq   $0x0,-0x120(%rbp)
  403647:	00 
  403648:	74 0d                	je     403657 <main+0x2267>
  40364a:	48 8b 85 e0 fe ff ff 	mov    -0x120(%rbp),%rax
  403651:	48 83 38 00          	cmpq   $0x0,(%rax)
  403655:	75 0f                	jne    403666 <main+0x2276>
  403657:	c7 85 ec fe ff ff 00 	movl   $0xffff8f00,-0x114(%rbp)
  40365e:	8f ff ff 
  403661:	e9 84 00 00 00       	jmpq   4036ea <main+0x22fa>
  403666:	48 8b 85 e0 fe ff ff 	mov    -0x120(%rbp),%rax
  40366d:	c7 80 28 01 00 00 15 	movl   $0x15,0x128(%rax)
  403674:	00 00 00 
  403677:	48 8b 85 e0 fe ff ff 	mov    -0x120(%rbp),%rax
  40367e:	48 c7 80 30 01 00 00 	movq   $0x2,0x130(%rax)
  403685:	02 00 00 00 
  403689:	8a 8d df fe ff ff    	mov    -0x121(%rbp),%cl
  40368f:	48 8b 85 e0 fe ff ff 	mov    -0x120(%rbp),%rax
  403696:	48 8b 80 20 01 00 00 	mov    0x120(%rax),%rax
  40369d:	88 08                	mov    %cl,(%rax)
  40369f:	8a 8d de fe ff ff    	mov    -0x122(%rbp),%cl
  4036a5:	48 8b 85 e0 fe ff ff 	mov    -0x120(%rbp),%rax
  4036ac:	48 8b 80 20 01 00 00 	mov    0x120(%rax),%rax
  4036b3:	88 48 01             	mov    %cl,0x1(%rax)
  4036b6:	48 8b bd e0 fe ff ff 	mov    -0x120(%rbp),%rdi
  4036bd:	be 01 00 00 00       	mov    $0x1,%esi
  4036c2:	e8 09 40 00 00       	callq  4076d0 <mbedtls_ssl_write_record>
  4036c7:	89 85 d8 fe ff ff    	mov    %eax,-0x128(%rbp)
  4036cd:	83 f8 00             	cmp    $0x0,%eax
  4036d0:	74 0e                	je     4036e0 <main+0x22f0>
  4036d2:	8b 85 d8 fe ff ff    	mov    -0x128(%rbp),%eax
  4036d8:	89 85 ec fe ff ff    	mov    %eax,-0x114(%rbp)
  4036de:	eb 0a                	jmp    4036ea <main+0x22fa>
  4036e0:	c7 85 ec fe ff ff 00 	movl   $0x0,-0x114(%rbp)
  4036e7:	00 00 00 
  4036ea:	8b 85 ec fe ff ff    	mov    -0x114(%rbp),%eax
  4036f0:	89 85 84 fe ff ff    	mov    %eax,-0x17c(%rbp)
  4036f6:	83 f8 00             	cmp    $0x0,%eax
  4036f9:	74 11                	je     40370c <main+0x231c>
  4036fb:	8b 85 84 fe ff ff    	mov    -0x17c(%rbp),%eax
  403701:	89 85 a0 fe ff ff    	mov    %eax,-0x160(%rbp)
  403707:	e9 d1 01 00 00       	jmpq   4038dd <main+0x24ed>
  40370c:	e9 da fc ff ff       	jmpq   4033eb <main+0x1ffb>
  403711:	c7 85 a0 fe ff ff 00 	movl   $0xffff9400,-0x160(%rbp)
  403718:	94 ff ff 
  40371b:	e9 bd 01 00 00       	jmpq   4038dd <main+0x24ed>
  403720:	48 8b 85 98 fe ff ff 	mov    -0x168(%rbp),%rax
  403727:	83 b8 d0 00 00 00 15 	cmpl   $0x15,0xd0(%rax)
  40372e:	75 0f                	jne    40373f <main+0x234f>
  403730:	c7 85 a0 fe ff ff 00 	movl   $0xffff9700,-0x160(%rbp)
  403737:	97 ff ff 
  40373a:	e9 9e 01 00 00       	jmpq   4038dd <main+0x24ed>
  40373f:	48 8b 85 98 fe ff ff 	mov    -0x168(%rbp),%rax
  403746:	83 b8 d0 00 00 00 17 	cmpl   $0x17,0xd0(%rax)
  40374d:	74 0f                	je     40375e <main+0x236e>
  40374f:	c7 85 a0 fe ff ff 00 	movl   $0xffff8900,-0x160(%rbp)
  403756:	89 ff ff 
  403759:	e9 7f 01 00 00       	jmpq   4038dd <main+0x24ed>
  40375e:	48 8b 85 98 fe ff ff 	mov    -0x168(%rbp),%rax
  403765:	48 8b 80 c0 00 00 00 	mov    0xc0(%rax),%rax
  40376c:	48 8b 8d 98 fe ff ff 	mov    -0x168(%rbp),%rcx
  403773:	48 89 81 c8 00 00 00 	mov    %rax,0xc8(%rcx)
  40377a:	48 8b 85 98 fe ff ff 	mov    -0x168(%rbp),%rax
  403781:	83 78 08 10          	cmpl   $0x10,0x8(%rax)
  403785:	75 66                	jne    4037ed <main+0x23fd>
  403787:	48 8b 85 98 fe ff ff 	mov    -0x168(%rbp),%rax
  40378e:	48 89 85 d0 fe ff ff 	mov    %rax,-0x130(%rbp)
  403795:	c7 85 cc fe ff ff 00 	movl   $0x0,-0x134(%rbp)
  40379c:	00 00 00 
  40379f:	48 8b 85 d0 fe ff ff 	mov    -0x130(%rbp),%rax
  4037a6:	48 83 b8 88 00 00 00 	cmpq   $0x0,0x88(%rax)
  4037ad:	00 
  4037ae:	75 02                	jne    4037b2 <main+0x23c2>
  4037b0:	eb 3b                	jmp    4037ed <main+0x23fd>
  4037b2:	48 8b 85 d0 fe ff ff 	mov    -0x130(%rbp),%rax
  4037b9:	48 8b 80 88 00 00 00 	mov    0x88(%rax),%rax
  4037c0:	48 8b 8d d0 fe ff ff 	mov    -0x130(%rbp),%rcx
  4037c7:	48 8b b9 80 00 00 00 	mov    0x80(%rcx),%rdi
  4037ce:	8b 95 cc fe ff ff    	mov    -0x134(%rbp),%edx
  4037d4:	c1 ea 02             	shr    $0x2,%edx
  4037d7:	8b b5 cc fe ff ff    	mov    -0x134(%rbp),%esi
  4037dd:	89 b5 80 e8 ff ff    	mov    %esi,-0x1780(%rbp)
  4037e3:	89 d6                	mov    %edx,%esi
  4037e5:	8b 95 80 e8 ff ff    	mov    -0x1780(%rbp),%edx
  4037eb:	ff d0                	callq  *%rax
  4037ed:	e9 f9 fb ff ff       	jmpq   4033eb <main+0x1ffb>
  4037f2:	48 8b 85 88 fe ff ff 	mov    -0x178(%rbp),%rax
  4037f9:	48 8b 8d 98 fe ff ff 	mov    -0x168(%rbp),%rcx
  403800:	48 3b 81 d8 00 00 00 	cmp    0xd8(%rcx),%rax
  403807:	73 10                	jae    403819 <main+0x2429>
  403809:	48 8b 85 88 fe ff ff 	mov    -0x178(%rbp),%rax
  403810:	48 89 85 78 e8 ff ff 	mov    %rax,-0x1788(%rbp)
  403817:	eb 15                	jmp    40382e <main+0x243e>
  403819:	48 8b 85 98 fe ff ff 	mov    -0x168(%rbp),%rax
  403820:	48 8b 80 d8 00 00 00 	mov    0xd8(%rax),%rax
  403827:	48 89 85 78 e8 ff ff 	mov    %rax,-0x1788(%rbp)
  40382e:	48 8b 85 78 e8 ff ff 	mov    -0x1788(%rbp),%rax
  403835:	48 89 85 78 fe ff ff 	mov    %rax,-0x188(%rbp)
  40383c:	48 8b bd 90 fe ff ff 	mov    -0x170(%rbp),%rdi
  403843:	48 8b 85 98 fe ff ff 	mov    -0x168(%rbp),%rax
  40384a:	48 8b b0 c8 00 00 00 	mov    0xc8(%rax),%rsi
  403851:	48 8b 95 78 fe ff ff 	mov    -0x188(%rbp),%rdx
  403858:	e8 13 d9 ff ff       	callq  401170 <memcpy@plt>
  40385d:	48 8b 85 78 fe ff ff 	mov    -0x188(%rbp),%rax
  403864:	48 8b 95 98 fe ff ff 	mov    -0x168(%rbp),%rdx
  40386b:	48 8b b2 d8 00 00 00 	mov    0xd8(%rdx),%rsi
  403872:	48 29 c6             	sub    %rax,%rsi
  403875:	48 89 b2 d8 00 00 00 	mov    %rsi,0xd8(%rdx)
  40387c:	48 8b 85 98 fe ff ff 	mov    -0x168(%rbp),%rax
  403883:	48 83 b8 d8 00 00 00 	cmpq   $0x0,0xd8(%rax)
  40388a:	00 
  40388b:	75 25                	jne    4038b2 <main+0x24c2>
  40388d:	48 8b 85 98 fe ff ff 	mov    -0x168(%rbp),%rax
  403894:	48 c7 80 c8 00 00 00 	movq   $0x0,0xc8(%rax)
  40389b:	00 00 00 00 
  40389f:	48 8b 85 98 fe ff ff 	mov    -0x168(%rbp),%rax
  4038a6:	c7 80 f4 00 00 00 00 	movl   $0x0,0xf4(%rax)
  4038ad:	00 00 00 
  4038b0:	eb 1c                	jmp    4038ce <main+0x24de>
  4038b2:	48 8b 85 78 fe ff ff 	mov    -0x188(%rbp),%rax
  4038b9:	48 8b 8d 98 fe ff ff 	mov    -0x168(%rbp),%rcx
  4038c0:	48 03 81 c8 00 00 00 	add    0xc8(%rcx),%rax
  4038c7:	48 89 81 c8 00 00 00 	mov    %rax,0xc8(%rcx)
  4038ce:	48 8b 85 78 fe ff ff 	mov    -0x188(%rbp),%rax
  4038d5:	89 c1                	mov    %eax,%ecx
  4038d7:	89 8d a0 fe ff ff    	mov    %ecx,-0x160(%rbp)
  4038dd:	8b 85 a0 fe ff ff    	mov    -0x160(%rbp),%eax
  4038e3:	89 85 c0 f7 ff ff    	mov    %eax,-0x840(%rbp)
  4038e9:	81 bd c0 f7 ff ff 00 	cmpl   $0xffff9700,-0x840(%rbp)
  4038f0:	97 ff ff 
  4038f3:	74 0c                	je     403901 <main+0x2511>
  4038f5:	81 bd c0 f7 ff ff 80 	cmpl   $0xffff9780,-0x840(%rbp)
  4038fc:	97 ff ff 
  4038ff:	75 05                	jne    403906 <main+0x2516>
  403901:	e9 d0 00 00 00       	jmpq   4039d6 <main+0x25e6>
  403906:	83 bd c0 f7 ff ff 00 	cmpl   $0x0,-0x840(%rbp)
  40390d:	0f 8f 86 00 00 00    	jg     403999 <main+0x25a9>
  403913:	8b 85 c0 f7 ff ff    	mov    -0x840(%rbp),%eax
  403919:	89 c1                	mov    %eax,%ecx
  40391b:	81 e9 80 87 ff ff    	sub    $0xffff8780,%ecx
  403921:	89 85 74 e8 ff ff    	mov    %eax,-0x178c(%rbp)
  403927:	89 8d 70 e8 ff ff    	mov    %ecx,-0x1790(%rbp)
  40392d:	74 15                	je     403944 <main+0x2554>
  40392f:	eb 00                	jmp    403931 <main+0x2541>
  403931:	8b 85 74 e8 ff ff    	mov    -0x178c(%rbp),%eax
  403937:	83 e8 b0             	sub    $0xffffffb0,%eax
  40393a:	89 85 6c e8 ff ff    	mov    %eax,-0x1794(%rbp)
  403940:	74 1b                	je     40395d <main+0x256d>
  403942:	eb 32                	jmp    403976 <main+0x2586>
  403944:	48 bf 10 71 44 00 00 	movabs $0x447110,%rdi
  40394b:	00 00 00 
  40394e:	b0 00                	mov    $0x0,%al
  403950:	e8 db d6 ff ff       	callq  401030 <printf@plt>
  403955:	89 85 68 e8 ff ff    	mov    %eax,-0x1798(%rbp)
  40395b:	eb 3a                	jmp    403997 <main+0x25a7>
  40395d:	48 bf 40 71 44 00 00 	movabs $0x447140,%rdi
  403964:	00 00 00 
  403967:	b0 00                	mov    $0x0,%al
  403969:	e8 c2 d6 ff ff       	callq  401030 <printf@plt>
  40396e:	89 85 64 e8 ff ff    	mov    %eax,-0x179c(%rbp)
  403974:	eb 21                	jmp    403997 <main+0x25a7>
  403976:	48 bf 60 71 44 00 00 	movabs $0x447160,%rdi
  40397d:	00 00 00 
  403980:	31 c0                	xor    %eax,%eax
  403982:	2b 85 c0 f7 ff ff    	sub    -0x840(%rbp),%eax
  403988:	89 c6                	mov    %eax,%esi
  40398a:	b0 00                	mov    $0x0,%al
  40398c:	e8 9f d6 ff ff       	callq  401030 <printf@plt>
  403991:	89 85 60 e8 ff ff    	mov    %eax,-0x17a0(%rbp)
  403997:	eb 49                	jmp    4039e2 <main+0x25f2>
  403999:	48 bf 90 71 44 00 00 	movabs $0x447190,%rdi
  4039a0:	00 00 00 
  4039a3:	48 8d 95 b0 f3 ff ff 	lea    -0xc50(%rbp),%rdx
  4039aa:	8b 85 c0 f7 ff ff    	mov    -0x840(%rbp),%eax
  4039b0:	89 85 bc f7 ff ff    	mov    %eax,-0x844(%rbp)
  4039b6:	8b b5 bc f7 ff ff    	mov    -0x844(%rbp),%esi
  4039bc:	b0 00                	mov    $0x0,%al
  4039be:	e8 6d d6 ff ff       	callq  401030 <printf@plt>
  4039c3:	83 bd c0 f7 ff ff 00 	cmpl   $0x0,-0x840(%rbp)
  4039ca:	89 85 5c e8 ff ff    	mov    %eax,-0x17a4(%rbp)
  4039d0:	7e 02                	jle    4039d4 <main+0x25e4>
  4039d2:	eb 0e                	jmp    4039e2 <main+0x25f2>
  4039d4:	eb 00                	jmp    4039d6 <main+0x25e6>
  4039d6:	b0 01                	mov    $0x1,%al
  4039d8:	a8 01                	test   $0x1,%al
  4039da:	0f 85 d6 f8 ff ff    	jne    4032b6 <main+0x1ec6>
  4039e0:	eb 00                	jmp    4039e2 <main+0x25f2>
  4039e2:	48 bf b0 71 44 00 00 	movabs $0x4471b0,%rdi
  4039e9:	00 00 00 
  4039ec:	b0 00                	mov    $0x0,%al
  4039ee:	e8 3d d6 ff ff       	callq  401030 <printf@plt>
  4039f3:	48 8b 3c 25 68 57 45 	mov    0x455768,%rdi
  4039fa:	00 
  4039fb:	89 85 58 e8 ff ff    	mov    %eax,-0x17a8(%rbp)
  403a01:	e8 3a d6 ff ff       	callq  401040 <fflush@plt>
  403a06:	48 8d bd b0 f3 ff ff 	lea    -0xc50(%rbp),%rdi
  403a0d:	48 8d 8d 58 ed ff ff 	lea    -0x12a8(%rbp),%rcx
  403a14:	48 89 8d f0 fe ff ff 	mov    %rcx,-0x110(%rbp)
  403a1b:	48 83 bd f0 fe ff ff 	cmpq   $0x0,-0x110(%rbp)
  403a22:	00 
  403a23:	89 85 54 e8 ff ff    	mov    %eax,-0x17ac(%rbp)
  403a29:	48 89 bd 48 e8 ff ff 	mov    %rdi,-0x17b8(%rbp)
  403a30:	74 0e                	je     403a40 <main+0x2650>
  403a32:	48 8b 85 f0 fe ff ff 	mov    -0x110(%rbp),%rax
  403a39:	48 83 78 48 00       	cmpq   $0x0,0x48(%rax)
  403a3e:	75 10                	jne    403a50 <main+0x2660>
  403a40:	48 c7 85 f8 fe ff ff 	movq   $0x0,-0x108(%rbp)
  403a47:	00 00 00 00 
  403a4b:	e9 c8 00 00 00       	jmpq   403b18 <main+0x2728>
  403a50:	48 b8 70 90 44 00 00 	movabs $0x449070,%rax
  403a57:	00 00 00 
  403a5a:	48 8b 8d f0 fe ff ff 	mov    -0x110(%rbp),%rcx
  403a61:	48 8b 49 48          	mov    0x48(%rcx),%rcx
  403a65:	8b 51 08             	mov    0x8(%rcx),%edx
  403a68:	89 95 0c ff ff ff    	mov    %edx,-0xf4(%rbp)
  403a6e:	8b 95 0c ff ff ff    	mov    -0xf4(%rbp),%edx
  403a74:	89 95 24 ff ff ff    	mov    %edx,-0xdc(%rbp)
  403a7a:	48 89 85 18 ff ff ff 	mov    %rax,-0xe8(%rbp)
  403a81:	48 8b 85 18 ff ff ff 	mov    -0xe8(%rbp),%rax
  403a88:	83 38 00             	cmpl   $0x0,(%rax)
  403a8b:	74 35                	je     403ac2 <main+0x26d2>
  403a8d:	48 8b 85 18 ff ff ff 	mov    -0xe8(%rbp),%rax
  403a94:	8b 08                	mov    (%rax),%ecx
  403a96:	3b 8d 24 ff ff ff    	cmp    -0xdc(%rbp),%ecx
  403a9c:	75 10                	jne    403aae <main+0x26be>
  403a9e:	48 8b 85 18 ff ff ff 	mov    -0xe8(%rbp),%rax
  403aa5:	48 89 85 28 ff ff ff 	mov    %rax,-0xd8(%rbp)
  403aac:	eb 1f                	jmp    403acd <main+0x26dd>
  403aae:	48 8b 85 18 ff ff ff 	mov    -0xe8(%rbp),%rax
  403ab5:	48 83 c0 30          	add    $0x30,%rax
  403ab9:	48 89 85 18 ff ff ff 	mov    %rax,-0xe8(%rbp)
  403ac0:	eb bf                	jmp    403a81 <main+0x2691>
  403ac2:	48 c7 85 28 ff ff ff 	movq   $0x0,-0xd8(%rbp)
  403ac9:	00 00 00 00 
  403acd:	48 8b 85 28 ff ff ff 	mov    -0xd8(%rbp),%rax
  403ad4:	48 89 85 00 ff ff ff 	mov    %rax,-0x100(%rbp)
  403adb:	48 83 bd 00 ff ff ff 	cmpq   $0x0,-0x100(%rbp)
  403ae2:	00 
  403ae3:	75 13                	jne    403af8 <main+0x2708>
  403ae5:	48 b8 60 32 45 00 00 	movabs $0x453260,%rax
  403aec:	00 00 00 
  403aef:	48 89 85 10 ff ff ff 	mov    %rax,-0xf0(%rbp)
  403af6:	eb 12                	jmp    403b0a <main+0x271a>
  403af8:	48 8b 85 00 ff ff ff 	mov    -0x100(%rbp),%rax
  403aff:	48 8b 40 08          	mov    0x8(%rax),%rax
  403b03:	48 89 85 10 ff ff ff 	mov    %rax,-0xf0(%rbp)
  403b0a:	48 8b 85 10 ff ff ff 	mov    -0xf0(%rbp),%rax
  403b11:	48 89 85 f8 fe ff ff 	mov    %rax,-0x108(%rbp)
  403b18:	48 be d0 71 44 00 00 	movabs $0x4471d0,%rsi
  403b1f:	00 00 00 
  403b22:	48 8b 85 f8 fe ff ff 	mov    -0x108(%rbp),%rax
  403b29:	48 89 b5 40 e8 ff ff 	mov    %rsi,-0x17c0(%rbp)
  403b30:	48 89 85 38 e8 ff ff 	mov    %rax,-0x17c8(%rbp)
  403b37:	e8 1a 1e 04 00       	callq  445956 <writeback_cache>
  403b3c:	48 8b bd 38 e8 ff ff 	mov    -0x17c8(%rbp),%rdi
  403b43:	e8 39 28 04 00       	callq  446381 <decryptStringBeforeLibCall>
  403b48:	48 8b bd 48 e8 ff ff 	mov    -0x17b8(%rbp),%rdi
  403b4f:	48 8b b5 40 e8 ff ff 	mov    -0x17c0(%rbp),%rsi
  403b56:	48 8b 95 38 e8 ff ff 	mov    -0x17c8(%rbp),%rdx
  403b5d:	b0 00                	mov    $0x0,%al
  403b5f:	e8 1c d6 ff ff       	callq  401180 <sprintf@plt>
  403b64:	48 8b bd 38 e8 ff ff 	mov    -0x17c8(%rbp),%rdi
  403b6b:	89 85 34 e8 ff ff    	mov    %eax,-0x17cc(%rbp)
  403b71:	e8 33 27 04 00       	callq  4462a9 <encryptStringAfterLibCall>
  403b76:	8b 85 34 e8 ff ff    	mov    -0x17cc(%rbp),%eax
  403b7c:	89 85 bc f7 ff ff    	mov    %eax,-0x844(%rbp)
  403b82:	48 8d 85 b0 f3 ff ff 	lea    -0xc50(%rbp),%rax
  403b89:	48 63 8d bc f7 ff ff 	movslq -0x844(%rbp),%rcx
  403b90:	48 8d 95 58 ed ff ff 	lea    -0x12a8(%rbp),%rdx
  403b97:	48 89 95 48 ff ff ff 	mov    %rdx,-0xb8(%rbp)
  403b9e:	48 89 85 40 ff ff ff 	mov    %rax,-0xc0(%rbp)
  403ba5:	48 89 8d 38 ff ff ff 	mov    %rcx,-0xc8(%rbp)
  403bac:	48 83 bd 48 ff ff ff 	cmpq   $0x0,-0xb8(%rbp)
  403bb3:	00 
  403bb4:	74 0d                	je     403bc3 <main+0x27d3>
  403bb6:	48 8b 85 48 ff ff ff 	mov    -0xb8(%rbp),%rax
  403bbd:	48 83 38 00          	cmpq   $0x0,(%rax)
  403bc1:	75 0f                	jne    403bd2 <main+0x27e2>
  403bc3:	c7 85 50 ff ff ff 00 	movl   $0xffff8f00,-0xb0(%rbp)
  403bca:	8f ff ff 
  403bcd:	e9 de 01 00 00       	jmpq   403db0 <main+0x29c0>
  403bd2:	48 8b 85 48 ff ff ff 	mov    -0xb8(%rbp),%rax
  403bd9:	83 78 08 10          	cmpl   $0x10,0x8(%rax)
  403bdd:	0f 84 99 00 00 00    	je     403c7c <main+0x288c>
  403be3:	48 8b 85 48 ff ff ff 	mov    -0xb8(%rbp),%rax
  403bea:	48 89 85 58 ff ff ff 	mov    %rax,-0xa8(%rbp)
  403bf1:	c7 85 54 ff ff ff 00 	movl   $0x0,-0xac(%rbp)
  403bf8:	00 00 00 
  403bfb:	48 83 bd 58 ff ff ff 	cmpq   $0x0,-0xa8(%rbp)
  403c02:	00 
  403c03:	74 0d                	je     403c12 <main+0x2822>
  403c05:	48 8b 85 58 ff ff ff 	mov    -0xa8(%rbp),%rax
  403c0c:	48 83 38 00          	cmpq   $0x0,(%rax)
  403c10:	75 0c                	jne    403c1e <main+0x282e>
  403c12:	c7 85 64 ff ff ff 00 	movl   $0xffff8f00,-0x9c(%rbp)
  403c19:	8f ff ff 
  403c1c:	eb 3a                	jmp    403c58 <main+0x2868>
  403c1e:	eb 00                	jmp    403c20 <main+0x2830>
  403c20:	48 8b 85 58 ff ff ff 	mov    -0xa8(%rbp),%rax
  403c27:	83 78 08 10          	cmpl   $0x10,0x8(%rax)
  403c2b:	74 1f                	je     403c4c <main+0x285c>
  403c2d:	48 8b bd 58 ff ff ff 	mov    -0xa8(%rbp),%rdi
  403c34:	e8 27 8b 00 00       	callq  40c760 <mbedtls_ssl_handshake_step>
  403c39:	89 85 54 ff ff ff    	mov    %eax,-0xac(%rbp)
  403c3f:	83 bd 54 ff ff ff 00 	cmpl   $0x0,-0xac(%rbp)
  403c46:	74 02                	je     403c4a <main+0x285a>
  403c48:	eb 02                	jmp    403c4c <main+0x285c>
  403c4a:	eb d4                	jmp    403c20 <main+0x2830>
  403c4c:	8b 85 54 ff ff ff    	mov    -0xac(%rbp),%eax
  403c52:	89 85 64 ff ff ff    	mov    %eax,-0x9c(%rbp)
  403c58:	8b 85 64 ff ff ff    	mov    -0x9c(%rbp),%eax
  403c5e:	89 85 34 ff ff ff    	mov    %eax,-0xcc(%rbp)
  403c64:	83 f8 00             	cmp    $0x0,%eax
  403c67:	74 11                	je     403c7a <main+0x288a>
  403c69:	8b 85 34 ff ff ff    	mov    -0xcc(%rbp),%eax
  403c6f:	89 85 50 ff ff ff    	mov    %eax,-0xb0(%rbp)
  403c75:	e9 36 01 00 00       	jmpq   403db0 <main+0x29c0>
  403c7a:	eb 00                	jmp    403c7c <main+0x288c>
  403c7c:	48 8b 85 48 ff ff ff 	mov    -0xb8(%rbp),%rax
  403c83:	48 8b 8d 40 ff ff ff 	mov    -0xc0(%rbp),%rcx
  403c8a:	48 8b 95 38 ff ff ff 	mov    -0xc8(%rbp),%rdx
  403c91:	48 89 45 88          	mov    %rax,-0x78(%rbp)
  403c95:	48 89 4d 80          	mov    %rcx,-0x80(%rbp)
  403c99:	48 89 95 78 ff ff ff 	mov    %rdx,-0x88(%rbp)
  403ca0:	48 8b 45 88          	mov    -0x78(%rbp),%rax
  403ca4:	48 89 45 a0          	mov    %rax,-0x60(%rbp)
  403ca8:	48 c7 45 98 00 40 00 	movq   $0x4000,-0x68(%rbp)
  403caf:	00 
  403cb0:	48 8b 45 98          	mov    -0x68(%rbp),%rax
  403cb4:	89 c6                	mov    %eax,%esi
  403cb6:	89 b5 74 ff ff ff    	mov    %esi,-0x8c(%rbp)
  403cbc:	48 63 85 74 ff ff ff 	movslq -0x8c(%rbp),%rax
  403cc3:	48 89 85 68 ff ff ff 	mov    %rax,-0x98(%rbp)
  403cca:	83 bd 74 ff ff ff 00 	cmpl   $0x0,-0x8c(%rbp)
  403cd1:	7d 0e                	jge    403ce1 <main+0x28f1>
  403cd3:	8b 85 74 ff ff ff    	mov    -0x8c(%rbp),%eax
  403cd9:	89 45 94             	mov    %eax,-0x6c(%rbp)
  403cdc:	e9 ba 00 00 00       	jmpq   403d9b <main+0x29ab>
  403ce1:	48 8b 85 78 ff ff ff 	mov    -0x88(%rbp),%rax
  403ce8:	48 3b 85 68 ff ff ff 	cmp    -0x98(%rbp),%rax
  403cef:	76 0e                	jbe    403cff <main+0x290f>
  403cf1:	48 8b 85 68 ff ff ff 	mov    -0x98(%rbp),%rax
  403cf8:	48 89 85 78 ff ff ff 	mov    %rax,-0x88(%rbp)
  403cff:	48 8b 45 88          	mov    -0x78(%rbp),%rax
  403d03:	48 83 b8 38 01 00 00 	cmpq   $0x0,0x138(%rax)
  403d0a:	00 
  403d0b:	74 21                	je     403d2e <main+0x293e>
  403d0d:	48 8b 7d 88          	mov    -0x78(%rbp),%rdi
  403d11:	e8 4a 36 00 00       	callq  407360 <mbedtls_ssl_flush_output>
  403d16:	89 85 74 ff ff ff    	mov    %eax,-0x8c(%rbp)
  403d1c:	83 f8 00             	cmp    $0x0,%eax
  403d1f:	74 0b                	je     403d2c <main+0x293c>
  403d21:	8b 85 74 ff ff ff    	mov    -0x8c(%rbp),%eax
  403d27:	89 45 94             	mov    %eax,-0x6c(%rbp)
  403d2a:	eb 6f                	jmp    403d9b <main+0x29ab>
  403d2c:	eb 61                	jmp    403d8f <main+0x299f>
  403d2e:	48 8b 85 78 ff ff ff 	mov    -0x88(%rbp),%rax
  403d35:	48 8b 4d 88          	mov    -0x78(%rbp),%rcx
  403d39:	48 89 81 30 01 00 00 	mov    %rax,0x130(%rcx)
  403d40:	48 8b 45 88          	mov    -0x78(%rbp),%rax
  403d44:	c7 80 28 01 00 00 17 	movl   $0x17,0x128(%rax)
  403d4b:	00 00 00 
  403d4e:	48 8b 45 88          	mov    -0x78(%rbp),%rax
  403d52:	48 8b b8 20 01 00 00 	mov    0x120(%rax),%rdi
  403d59:	48 8b 75 80          	mov    -0x80(%rbp),%rsi
  403d5d:	48 8b 95 78 ff ff ff 	mov    -0x88(%rbp),%rdx
  403d64:	e8 07 d4 ff ff       	callq  401170 <memcpy@plt>
  403d69:	48 8b 7d 88          	mov    -0x78(%rbp),%rdi
  403d6d:	be 01 00 00 00       	mov    $0x1,%esi
  403d72:	e8 59 39 00 00       	callq  4076d0 <mbedtls_ssl_write_record>
  403d77:	89 85 74 ff ff ff    	mov    %eax,-0x8c(%rbp)
  403d7d:	83 f8 00             	cmp    $0x0,%eax
  403d80:	74 0b                	je     403d8d <main+0x299d>
  403d82:	8b 85 74 ff ff ff    	mov    -0x8c(%rbp),%eax
  403d88:	89 45 94             	mov    %eax,-0x6c(%rbp)
  403d8b:	eb 0e                	jmp    403d9b <main+0x29ab>
  403d8d:	eb 00                	jmp    403d8f <main+0x299f>
  403d8f:	48 8b 85 78 ff ff ff 	mov    -0x88(%rbp),%rax
  403d96:	89 c1                	mov    %eax,%ecx
  403d98:	89 4d 94             	mov    %ecx,-0x6c(%rbp)
  403d9b:	8b 45 94             	mov    -0x6c(%rbp),%eax
  403d9e:	89 85 34 ff ff ff    	mov    %eax,-0xcc(%rbp)
  403da4:	8b 85 34 ff ff ff    	mov    -0xcc(%rbp),%eax
  403daa:	89 85 50 ff ff ff    	mov    %eax,-0xb0(%rbp)
  403db0:	8b 85 50 ff ff ff    	mov    -0xb0(%rbp),%eax
  403db6:	89 85 c0 f7 ff ff    	mov    %eax,-0x840(%rbp)
  403dbc:	83 f8 00             	cmp    $0x0,%eax
  403dbf:	7f 64                	jg     403e25 <main+0x2a35>
  403dc1:	83 bd c0 f7 ff ff b0 	cmpl   $0xffffffb0,-0x840(%rbp)
  403dc8:	75 1c                	jne    403de6 <main+0x29f6>
  403dca:	48 bf 50 72 44 00 00 	movabs $0x447250,%rdi
  403dd1:	00 00 00 
  403dd4:	b0 00                	mov    $0x0,%al
  403dd6:	e8 55 d2 ff ff       	callq  401030 <printf@plt>
  403ddb:	89 85 30 e8 ff ff    	mov    %eax,-0x17d0(%rbp)
  403de1:	e9 5f e9 ff ff       	jmpq   402745 <main+0x1355>
  403de6:	81 bd c0 f7 ff ff 00 	cmpl   $0xffff9700,-0x840(%rbp)
  403ded:	97 ff ff 
  403df0:	74 2e                	je     403e20 <main+0x2a30>
  403df2:	81 bd c0 f7 ff ff 80 	cmpl   $0xffff9780,-0x840(%rbp)
  403df9:	97 ff ff 
  403dfc:	74 22                	je     403e20 <main+0x2a30>
  403dfe:	48 bf 80 72 44 00 00 	movabs $0x447280,%rdi
  403e05:	00 00 00 
  403e08:	8b b5 c0 f7 ff ff    	mov    -0x840(%rbp),%esi
  403e0e:	b0 00                	mov    $0x0,%al
  403e10:	e8 1b d2 ff ff       	callq  401030 <printf@plt>
  403e15:	89 85 2c e8 ff ff    	mov    %eax,-0x17d4(%rbp)
  403e1b:	e9 bd 01 00 00       	jmpq   403fdd <main+0x2bed>
  403e20:	e9 5d fd ff ff       	jmpq   403b82 <main+0x2792>
  403e25:	48 bf b0 72 44 00 00 	movabs $0x4472b0,%rdi
  403e2c:	00 00 00 
  403e2f:	48 8d 95 b0 f3 ff ff 	lea    -0xc50(%rbp),%rdx
  403e36:	8b 85 c0 f7 ff ff    	mov    -0x840(%rbp),%eax
  403e3c:	89 85 bc f7 ff ff    	mov    %eax,-0x844(%rbp)
  403e42:	8b b5 bc f7 ff ff    	mov    -0x844(%rbp),%esi
  403e48:	b0 00                	mov    $0x0,%al
  403e4a:	e8 e1 d1 ff ff       	callq  401030 <printf@plt>
  403e4f:	48 bf d0 72 44 00 00 	movabs $0x4472d0,%rdi
  403e56:	00 00 00 
  403e59:	89 85 28 e8 ff ff    	mov    %eax,-0x17d8(%rbp)
  403e5f:	b0 00                	mov    $0x0,%al
  403e61:	e8 ca d1 ff ff       	callq  401030 <printf@plt>
  403e66:	89 85 24 e8 ff ff    	mov    %eax,-0x17dc(%rbp)
  403e6c:	48 8d 85 58 ed ff ff 	lea    -0x12a8(%rbp),%rax
  403e73:	48 89 45 b0          	mov    %rax,-0x50(%rbp)
  403e77:	48 83 7d b0 00       	cmpq   $0x0,-0x50(%rbp)
  403e7c:	74 0a                	je     403e88 <main+0x2a98>
  403e7e:	48 8b 45 b0          	mov    -0x50(%rbp),%rax
  403e82:	48 83 38 00          	cmpq   $0x0,(%rax)
  403e86:	75 0c                	jne    403e94 <main+0x2aa4>
  403e88:	c7 45 bc 00 8f ff ff 	movl   $0xffff8f00,-0x44(%rbp)
  403e8f:	e9 d6 00 00 00       	jmpq   403f6a <main+0x2b7a>
  403e94:	48 8b 45 b0          	mov    -0x50(%rbp),%rax
  403e98:	48 83 b8 38 01 00 00 	cmpq   $0x0,0x138(%rax)
  403e9f:	00 
  403ea0:	74 11                	je     403eb3 <main+0x2ac3>
  403ea2:	48 8b 7d b0          	mov    -0x50(%rbp),%rdi
  403ea6:	e8 b5 34 00 00       	callq  407360 <mbedtls_ssl_flush_output>
  403eab:	89 45 bc             	mov    %eax,-0x44(%rbp)
  403eae:	e9 b7 00 00 00       	jmpq   403f6a <main+0x2b7a>
  403eb3:	48 8b 45 b0          	mov    -0x50(%rbp),%rax
  403eb7:	83 78 08 10          	cmpl   $0x10,0x8(%rax)
  403ebb:	0f 85 a2 00 00 00    	jne    403f63 <main+0x2b73>
  403ec1:	48 8b 45 b0          	mov    -0x50(%rbp),%rax
  403ec5:	48 89 45 c8          	mov    %rax,-0x38(%rbp)
  403ec9:	c6 45 c7 01          	movb   $0x1,-0x39(%rbp)
  403ecd:	c6 45 c6 00          	movb   $0x0,-0x3a(%rbp)
  403ed1:	48 83 7d c8 00       	cmpq   $0x0,-0x38(%rbp)
  403ed6:	74 0a                	je     403ee2 <main+0x2af2>
  403ed8:	48 8b 45 c8          	mov    -0x38(%rbp),%rax
  403edc:	48 83 38 00          	cmpq   $0x0,(%rax)
  403ee0:	75 09                	jne    403eeb <main+0x2afb>
  403ee2:	c7 45 d4 00 8f ff ff 	movl   $0xffff8f00,-0x2c(%rbp)
  403ee9:	eb 63                	jmp    403f4e <main+0x2b5e>
  403eeb:	48 8b 45 c8          	mov    -0x38(%rbp),%rax
  403eef:	c7 80 28 01 00 00 15 	movl   $0x15,0x128(%rax)
  403ef6:	00 00 00 
  403ef9:	48 8b 45 c8          	mov    -0x38(%rbp),%rax
  403efd:	48 c7 80 30 01 00 00 	movq   $0x2,0x130(%rax)
  403f04:	02 00 00 00 
  403f08:	8a 4d c7             	mov    -0x39(%rbp),%cl
  403f0b:	48 8b 45 c8          	mov    -0x38(%rbp),%rax
  403f0f:	48 8b 80 20 01 00 00 	mov    0x120(%rax),%rax
  403f16:	88 08                	mov    %cl,(%rax)
  403f18:	8a 4d c6             	mov    -0x3a(%rbp),%cl
  403f1b:	48 8b 45 c8          	mov    -0x38(%rbp),%rax
  403f1f:	48 8b 80 20 01 00 00 	mov    0x120(%rax),%rax
  403f26:	88 48 01             	mov    %cl,0x1(%rax)
  403f29:	48 8b 7d c8          	mov    -0x38(%rbp),%rdi
  403f2d:	be 01 00 00 00       	mov    $0x1,%esi
  403f32:	e8 99 37 00 00       	callq  4076d0 <mbedtls_ssl_write_record>
  403f37:	89 45 c0             	mov    %eax,-0x40(%rbp)
  403f3a:	83 f8 00             	cmp    $0x0,%eax
  403f3d:	74 08                	je     403f47 <main+0x2b57>
  403f3f:	8b 45 c0             	mov    -0x40(%rbp),%eax
  403f42:	89 45 d4             	mov    %eax,-0x2c(%rbp)
  403f45:	eb 07                	jmp    403f4e <main+0x2b5e>
  403f47:	c7 45 d4 00 00 00 00 	movl   $0x0,-0x2c(%rbp)
  403f4e:	8b 45 d4             	mov    -0x2c(%rbp),%eax
  403f51:	89 45 ac             	mov    %eax,-0x54(%rbp)
  403f54:	83 f8 00             	cmp    $0x0,%eax
  403f57:	74 08                	je     403f61 <main+0x2b71>
  403f59:	8b 45 ac             	mov    -0x54(%rbp),%eax
  403f5c:	89 45 bc             	mov    %eax,-0x44(%rbp)
  403f5f:	eb 09                	jmp    403f6a <main+0x2b7a>
  403f61:	eb 00                	jmp    403f63 <main+0x2b73>
  403f63:	c7 45 bc 00 00 00 00 	movl   $0x0,-0x44(%rbp)
  403f6a:	8b 45 bc             	mov    -0x44(%rbp),%eax
  403f6d:	89 85 c0 f7 ff ff    	mov    %eax,-0x840(%rbp)
  403f73:	83 f8 00             	cmp    $0x0,%eax
  403f76:	7d 3f                	jge    403fb7 <main+0x2bc7>
  403f78:	81 bd c0 f7 ff ff 00 	cmpl   $0xffff9700,-0x840(%rbp)
  403f7f:	97 ff ff 
  403f82:	74 2e                	je     403fb2 <main+0x2bc2>
  403f84:	81 bd c0 f7 ff ff 80 	cmpl   $0xffff9780,-0x840(%rbp)
  403f8b:	97 ff ff 
  403f8e:	74 22                	je     403fb2 <main+0x2bc2>
  403f90:	48 bf f0 72 44 00 00 	movabs $0x4472f0,%rdi
  403f97:	00 00 00 
  403f9a:	8b b5 c0 f7 ff ff    	mov    -0x840(%rbp),%esi
  403fa0:	b0 00                	mov    $0x0,%al
  403fa2:	e8 89 d0 ff ff       	callq  401030 <printf@plt>
  403fa7:	89 85 20 e8 ff ff    	mov    %eax,-0x17e0(%rbp)
  403fad:	e9 93 e7 ff ff       	jmpq   402745 <main+0x1355>
  403fb2:	e9 b5 fe ff ff       	jmpq   403e6c <main+0x2a7c>
  403fb7:	48 bf 80 6e 44 00 00 	movabs $0x446e80,%rdi
  403fbe:	00 00 00 
  403fc1:	b0 00                	mov    $0x0,%al
  403fc3:	e8 68 d0 ff ff       	callq  401030 <printf@plt>
  403fc8:	c7 85 c0 f7 ff ff 00 	movl   $0x0,-0x840(%rbp)
  403fcf:	00 00 00 
  403fd2:	89 85 1c e8 ff ff    	mov    %eax,-0x17e4(%rbp)
  403fd8:	e9 68 e7 ff ff       	jmpq   402745 <main+0x1355>
  403fdd:	48 8d 85 b0 f7 ff ff 	lea    -0x850(%rbp),%rax
  403fe4:	48 89 45 d8          	mov    %rax,-0x28(%rbp)
  403fe8:	48 8b 45 d8          	mov    -0x28(%rbp),%rax
  403fec:	83 38 ff             	cmpl   $0xffffffff,(%rax)
  403fef:	75 02                	jne    403ff3 <main+0x2c03>
  403ff1:	eb 31                	jmp    404024 <main+0x2c34>
  403ff3:	48 8b 45 d8          	mov    -0x28(%rbp),%rax
  403ff7:	8b 38                	mov    (%rax),%edi
  403ff9:	be 02 00 00 00       	mov    $0x2,%esi
  403ffe:	e8 ed d0 ff ff       	callq  4010f0 <shutdown@plt>
  404003:	48 8b 4d d8          	mov    -0x28(%rbp),%rcx
  404007:	8b 39                	mov    (%rcx),%edi
  404009:	89 85 18 e8 ff ff    	mov    %eax,-0x17e8(%rbp)
  40400f:	e8 7c d0 ff ff       	callq  401090 <close@plt>
  404014:	48 8b 4d d8          	mov    -0x28(%rbp),%rcx
  404018:	c7 01 ff ff ff ff    	movl   $0xffffffff,(%rcx)
  40401e:	89 85 14 e8 ff ff    	mov    %eax,-0x17ec(%rbp)
  404024:	48 8d 85 b8 f7 ff ff 	lea    -0x848(%rbp),%rax
  40402b:	48 89 45 e0          	mov    %rax,-0x20(%rbp)
  40402f:	48 8b 45 e0          	mov    -0x20(%rbp),%rax
  404033:	83 38 ff             	cmpl   $0xffffffff,(%rax)
  404036:	75 02                	jne    40403a <main+0x2c4a>
  404038:	eb 31                	jmp    40406b <main+0x2c7b>
  40403a:	48 8b 45 e0          	mov    -0x20(%rbp),%rax
  40403e:	8b 38                	mov    (%rax),%edi
  404040:	be 02 00 00 00       	mov    $0x2,%esi
  404045:	e8 a6 d0 ff ff       	callq  4010f0 <shutdown@plt>
  40404a:	48 8b 4d e0          	mov    -0x20(%rbp),%rcx
  40404e:	8b 39                	mov    (%rcx),%edi
  404050:	89 85 10 e8 ff ff    	mov    %eax,-0x17f0(%rbp)
  404056:	e8 35 d0 ff ff       	callq  401090 <close@plt>
  40405b:	48 8b 4d e0          	mov    -0x20(%rbp),%rcx
  40405f:	c7 01 ff ff ff ff    	movl   $0xffffffff,(%rcx)
  404065:	89 85 0c e8 ff ff    	mov    %eax,-0x17f4(%rbp)
  40406b:	48 8d bd 90 ea ff ff 	lea    -0x1570(%rbp),%rdi
  404072:	e8 f9 1e 01 00       	callq  415f70 <mbedtls_x509_crt_free>
  404077:	48 8d bd 50 ea ff ff 	lea    -0x15b0(%rbp),%rdi
  40407e:	48 89 7d e8          	mov    %rdi,-0x18(%rbp)
  404082:	48 83 7d e8 00       	cmpq   $0x0,-0x18(%rbp)
  404087:	75 05                	jne    40408e <main+0x2c9e>
  404089:	e9 cc 00 00 00       	jmpq   40415a <main+0x2d6a>
  40408e:	48 8b 45 e8          	mov    -0x18(%rbp),%rax
  404092:	48 89 c7             	mov    %rax,%rdi
  404095:	e8 ae 20 04 00       	callq  446148 <getDecryptedValueQWord>
  40409a:	48 83 f8 00          	cmp    $0x0,%rax
  40409e:	74 3a                	je     4040da <main+0x2cea>
  4040a0:	48 8b 45 e8          	mov    -0x18(%rbp),%rax
  4040a4:	48 89 c7             	mov    %rax,%rdi
  4040a7:	e8 9c 20 04 00       	callq  446148 <getDecryptedValueQWord>
  4040ac:	48 05 a0 00 00 00    	add    $0xa0,%rax
  4040b2:	48 89 c7             	mov    %rax,%rdi
  4040b5:	e8 8e 20 04 00       	callq  446148 <getDecryptedValueQWord>
  4040ba:	48 8b 7d e8          	mov    -0x18(%rbp),%rdi
  4040be:	48 83 c7 08          	add    $0x8,%rdi
  4040c2:	48 89 85 00 e8 ff ff 	mov    %rax,-0x1800(%rbp)
  4040c9:	e8 7a 20 04 00       	callq  446148 <getDecryptedValueQWord>
  4040ce:	48 89 c7             	mov    %rax,%rdi
  4040d1:	48 8b 85 00 e8 ff ff 	mov    -0x1800(%rbp),%rax
  4040d8:	ff d0                	callq  *%rax
  4040da:	48 8b 45 e8          	mov    -0x18(%rbp),%rax
  4040de:	48 89 45 f8          	mov    %rax,-0x8(%rbp)
  4040e2:	48 c7 45 f0 10 00 00 	movq   $0x10,-0x10(%rbp)
  4040e9:	00 
  4040ea:	48 8b 04 25 70 e3 44 	mov    0x44e370,%rax
  4040f1:	00 
  4040f2:	48 8b 4d f8          	mov    -0x8(%rbp),%rcx
  4040f6:	48 8b 55 f0          	mov    -0x10(%rbp),%rdx
  4040fa:	48 89 85 f8 e7 ff ff 	mov    %rax,-0x1808(%rbp)
  404101:	48 89 8d f0 e7 ff ff 	mov    %rcx,-0x1810(%rbp)
  404108:	48 89 95 e8 e7 ff ff 	mov    %rdx,-0x1818(%rbp)
  40410f:	e8 42 18 04 00       	callq  445956 <writeback_cache>
  404114:	48 8b bd f0 e7 ff ff 	mov    -0x1810(%rbp),%rdi
  40411b:	48 8b b5 e8 e7 ff ff 	mov    -0x1818(%rbp),%rsi
  404122:	e8 be 25 04 00       	callq  4466e5 <decryptArrayForLibCall>
  404127:	31 f6                	xor    %esi,%esi
  404129:	48 8b bd f0 e7 ff ff 	mov    -0x1810(%rbp),%rdi
  404130:	48 8b 95 e8 e7 ff ff 	mov    -0x1818(%rbp),%rdx
  404137:	48 8b 85 f8 e7 ff ff 	mov    -0x1808(%rbp),%rax
  40413e:	ff d0                	callq  *%rax
  404140:	48 8b bd f0 e7 ff ff 	mov    -0x1810(%rbp),%rdi
  404147:	48 8b b5 e8 e7 ff ff 	mov    -0x1818(%rbp),%rsi
  40414e:	48 89 85 e0 e7 ff ff 	mov    %rax,-0x1820(%rbp)
  404155:	e8 fc 22 04 00       	callq  446456 <encryptArrayForLibCall>
  40415a:	48 8d 85 58 ed ff ff 	lea    -0x12a8(%rbp),%rax
  404161:	48 89 85 c8 f8 ff ff 	mov    %rax,-0x738(%rbp)
  404168:	48 83 bd c8 f8 ff ff 	cmpq   $0x0,-0x738(%rbp)
  40416f:	00 
  404170:	75 05                	jne    404177 <main+0x2d87>
  404172:	e9 70 07 00 00       	jmpq   4048e7 <main+0x34f7>
  404177:	48 8b 85 c8 f8 ff ff 	mov    -0x738(%rbp),%rax
  40417e:	48 83 b8 f8 00 00 00 	cmpq   $0x0,0xf8(%rax)
  404185:	00 
  404186:	74 54                	je     4041dc <main+0x2dec>
  404188:	31 f6                	xor    %esi,%esi
  40418a:	48 8b 85 c8 f8 ff ff 	mov    -0x738(%rbp),%rax
  404191:	48 8b 80 f8 00 00 00 	mov    0xf8(%rax),%rax
  404198:	48 89 85 d8 f8 ff ff 	mov    %rax,-0x728(%rbp)
  40419f:	48 c7 85 d0 f8 ff ff 	movq   $0x413d,-0x730(%rbp)
  4041a6:	3d 41 00 00 
  4041aa:	48 8b 04 25 70 e3 44 	mov    0x44e370,%rax
  4041b1:	00 
  4041b2:	48 8b bd d8 f8 ff ff 	mov    -0x728(%rbp),%rdi
  4041b9:	48 8b 95 d0 f8 ff ff 	mov    -0x730(%rbp),%rdx
  4041c0:	ff d0                	callq  *%rax
  4041c2:	48 8b 95 c8 f8 ff ff 	mov    -0x738(%rbp),%rdx
  4041c9:	48 8b ba f8 00 00 00 	mov    0xf8(%rdx),%rdi
  4041d0:	48 89 85 d8 e7 ff ff 	mov    %rax,-0x1828(%rbp)
  4041d7:	e8 04 cf ff ff       	callq  4010e0 <free@plt>
  4041dc:	48 8b 85 c8 f8 ff ff 	mov    -0x738(%rbp),%rax
  4041e3:	48 83 b8 98 00 00 00 	cmpq   $0x0,0x98(%rax)
  4041ea:	00 
  4041eb:	74 54                	je     404241 <main+0x2e51>
  4041ed:	31 f6                	xor    %esi,%esi
  4041ef:	48 8b 85 c8 f8 ff ff 	mov    -0x738(%rbp),%rax
  4041f6:	48 8b 80 98 00 00 00 	mov    0x98(%rax),%rax
  4041fd:	48 89 85 e8 f8 ff ff 	mov    %rax,-0x718(%rbp)
  404204:	48 c7 85 e0 f8 ff ff 	movq   $0x413d,-0x720(%rbp)
  40420b:	3d 41 00 00 
  40420f:	48 8b 04 25 70 e3 44 	mov    0x44e370,%rax
  404216:	00 
  404217:	48 8b bd e8 f8 ff ff 	mov    -0x718(%rbp),%rdi
  40421e:	48 8b 95 e0 f8 ff ff 	mov    -0x720(%rbp),%rdx
  404225:	ff d0                	callq  *%rax
  404227:	48 8b 95 c8 f8 ff ff 	mov    -0x738(%rbp),%rdx
  40422e:	48 8b ba 98 00 00 00 	mov    0x98(%rdx),%rdi
  404235:	48 89 85 d0 e7 ff ff 	mov    %rax,-0x1830(%rbp)
  40423c:	e8 9f ce ff ff       	callq  4010e0 <free@plt>
  404241:	48 8b 85 c8 f8 ff ff 	mov    -0x738(%rbp),%rax
  404248:	48 83 78 70 00       	cmpq   $0x0,0x70(%rax)
  40424d:	0f 84 a2 01 00 00    	je     4043f5 <main+0x3005>
  404253:	48 8b 85 c8 f8 ff ff 	mov    -0x738(%rbp),%rax
  40425a:	48 8b 40 70          	mov    0x70(%rax),%rax
  40425e:	48 89 85 f0 f8 ff ff 	mov    %rax,-0x710(%rbp)
  404265:	48 83 bd f0 f8 ff ff 	cmpq   $0x0,-0x710(%rbp)
  40426c:	00 
  40426d:	75 05                	jne    404274 <main+0x2e84>
  40426f:	e9 6e 01 00 00       	jmpq   4043e2 <main+0x2ff2>
  404274:	48 8b 85 f0 f8 ff ff 	mov    -0x710(%rbp),%rax
  40427b:	48 05 80 00 00 00    	add    $0x80,%rax
  404281:	48 89 85 a8 f9 ff ff 	mov    %rax,-0x658(%rbp)
  404288:	48 83 bd a8 f9 ff ff 	cmpq   $0x0,-0x658(%rbp)
  40428f:	00 
  404290:	75 02                	jne    404294 <main+0x2ea4>
  404292:	eb 67                	jmp    4042fb <main+0x2f0b>
  404294:	48 8b 85 a8 f9 ff ff 	mov    -0x658(%rbp),%rax
  40429b:	48 83 78 50 00       	cmpq   $0x0,0x50(%rax)
  4042a0:	74 1f                	je     4042c1 <main+0x2ed1>
  4042a2:	48 8b 85 a8 f9 ff ff 	mov    -0x658(%rbp),%rax
  4042a9:	48 8b 00             	mov    (%rax),%rax
  4042ac:	48 8b 40 28          	mov    0x28(%rax),%rax
  4042b0:	48 8b 40 30          	mov    0x30(%rax),%rax
  4042b4:	48 8b 8d a8 f9 ff ff 	mov    -0x658(%rbp),%rcx
  4042bb:	48 8b 79 50          	mov    0x50(%rcx),%rdi
  4042bf:	ff d0                	callq  *%rax
  4042c1:	31 f6                	xor    %esi,%esi
  4042c3:	48 8b 85 a8 f9 ff ff 	mov    -0x658(%rbp),%rax
  4042ca:	48 89 85 b8 f9 ff ff 	mov    %rax,-0x648(%rbp)
  4042d1:	48 c7 85 b0 f9 ff ff 	movq   $0x58,-0x650(%rbp)
  4042d8:	58 00 00 00 
  4042dc:	48 8b 04 25 70 e3 44 	mov    0x44e370,%rax
  4042e3:	00 
  4042e4:	48 8b bd b8 f9 ff ff 	mov    -0x648(%rbp),%rdi
  4042eb:	48 8b 95 b0 f9 ff ff 	mov    -0x650(%rbp),%rdx
  4042f2:	ff d0                	callq  *%rax
  4042f4:	48 89 85 c8 e7 ff ff 	mov    %rax,-0x1838(%rbp)
  4042fb:	48 8b 85 f0 f8 ff ff 	mov    -0x710(%rbp),%rax
  404302:	48 05 d8 00 00 00    	add    $0xd8,%rax
  404308:	48 89 85 c0 f9 ff ff 	mov    %rax,-0x640(%rbp)
  40430f:	48 83 bd c0 f9 ff ff 	cmpq   $0x0,-0x640(%rbp)
  404316:	00 
  404317:	75 02                	jne    40431b <main+0x2f2b>
  404319:	eb 67                	jmp    404382 <main+0x2f92>
  40431b:	48 8b 85 c0 f9 ff ff 	mov    -0x640(%rbp),%rax
  404322:	48 83 78 50 00       	cmpq   $0x0,0x50(%rax)
  404327:	74 1f                	je     404348 <main+0x2f58>
  404329:	48 8b 85 c0 f9 ff ff 	mov    -0x640(%rbp),%rax
  404330:	48 8b 00             	mov    (%rax),%rax
  404333:	48 8b 40 28          	mov    0x28(%rax),%rax
  404337:	48 8b 40 30          	mov    0x30(%rax),%rax
  40433b:	48 8b 8d c0 f9 ff ff 	mov    -0x640(%rbp),%rcx
  404342:	48 8b 79 50          	mov    0x50(%rcx),%rdi
  404346:	ff d0                	callq  *%rax
  404348:	31 f6                	xor    %esi,%esi
  40434a:	48 8b 85 c0 f9 ff ff 	mov    -0x640(%rbp),%rax
  404351:	48 89 85 d0 f9 ff ff 	mov    %rax,-0x630(%rbp)
  404358:	48 c7 85 c8 f9 ff ff 	movq   $0x58,-0x638(%rbp)
  40435f:	58 00 00 00 
  404363:	48 8b 04 25 70 e3 44 	mov    0x44e370,%rax
  40436a:	00 
  40436b:	48 8b bd d0 f9 ff ff 	mov    -0x630(%rbp),%rdi
  404372:	48 8b 95 c8 f9 ff ff 	mov    -0x638(%rbp),%rdx
  404379:	ff d0                	callq  *%rax
  40437b:	48 89 85 c0 e7 ff ff 	mov    %rax,-0x1840(%rbp)
  404382:	48 8b 85 f0 f8 ff ff 	mov    -0x710(%rbp),%rax
  404389:	48 83 c0 50          	add    $0x50,%rax
  40438d:	48 89 c7             	mov    %rax,%rdi
  404390:	e8 cb 6b 02 00       	callq  42af60 <mbedtls_md_free>
  404395:	48 8b 85 f0 f8 ff ff 	mov    -0x710(%rbp),%rax
  40439c:	48 83 c0 68          	add    $0x68,%rax
  4043a0:	48 89 c7             	mov    %rax,%rdi
  4043a3:	e8 b8 6b 02 00       	callq  42af60 <mbedtls_md_free>
  4043a8:	31 f6                	xor    %esi,%esi
  4043aa:	48 8b 85 f0 f8 ff ff 	mov    -0x710(%rbp),%rax
  4043b1:	48 89 85 00 f9 ff ff 	mov    %rax,-0x700(%rbp)
  4043b8:	48 c7 85 f8 f8 ff ff 	movq   $0x130,-0x708(%rbp)
  4043bf:	30 01 00 00 
  4043c3:	48 8b 04 25 70 e3 44 	mov    0x44e370,%rax
  4043ca:	00 
  4043cb:	48 8b bd 00 f9 ff ff 	mov    -0x700(%rbp),%rdi
  4043d2:	48 8b 95 f8 f8 ff ff 	mov    -0x708(%rbp),%rdx
  4043d9:	ff d0                	callq  *%rax
  4043db:	48 89 85 b8 e7 ff ff 	mov    %rax,-0x1848(%rbp)
  4043e2:	48 8b 85 c8 f8 ff ff 	mov    -0x738(%rbp),%rax
  4043e9:	48 8b 40 70          	mov    0x70(%rax),%rax
  4043ed:	48 89 c7             	mov    %rax,%rdi
  4043f0:	e8 eb cc ff ff       	callq  4010e0 <free@plt>
  4043f5:	48 8b 85 c8 f8 ff ff 	mov    -0x738(%rbp),%rax
  4043fc:	48 83 78 58 00       	cmpq   $0x0,0x58(%rax)
  404401:	0f 84 6a 03 00 00    	je     404771 <main+0x3381>
  404407:	48 8b 85 c8 f8 ff ff 	mov    -0x738(%rbp),%rax
  40440e:	48 89 85 10 f9 ff ff 	mov    %rax,-0x6f0(%rbp)
  404415:	48 8b 85 10 f9 ff ff 	mov    -0x6f0(%rbp),%rax
  40441c:	48 8b 40 58          	mov    0x58(%rax),%rax
  404420:	48 89 85 08 f9 ff ff 	mov    %rax,-0x6f8(%rbp)
  404427:	48 83 bd 08 f9 ff ff 	cmpq   $0x0,-0x6f8(%rbp)
  40442e:	00 
  40442f:	75 05                	jne    404436 <main+0x3046>
  404431:	e9 ea 00 00 00       	jmpq   404520 <main+0x3130>
  404436:	48 8b 85 08 f9 ff ff 	mov    -0x6f8(%rbp),%rax
  40443d:	48 83 c0 08          	add    $0x8,%rax
  404441:	48 89 85 18 f9 ff ff 	mov    %rax,-0x6e8(%rbp)
  404448:	48 83 bd 18 f9 ff ff 	cmpq   $0x0,-0x6e8(%rbp)
  40444f:	00 
  404450:	75 02                	jne    404454 <main+0x3064>
  404452:	eb 3a                	jmp    40448e <main+0x309e>
  404454:	31 f6                	xor    %esi,%esi
  404456:	48 8b 85 18 f9 ff ff 	mov    -0x6e8(%rbp),%rax
  40445d:	48 89 85 28 f9 ff ff 	mov    %rax,-0x6d8(%rbp)
  404464:	48 c7 85 20 f9 ff ff 	movq   $0x58,-0x6e0(%rbp)
  40446b:	58 00 00 00 
  40446f:	48 8b 04 25 70 e3 44 	mov    0x44e370,%rax
  404476:	00 
  404477:	48 8b bd 28 f9 ff ff 	mov    -0x6d8(%rbp),%rdi
  40447e:	48 8b 95 20 f9 ff ff 	mov    -0x6e0(%rbp),%rdx
  404485:	ff d0                	callq  *%rax
  404487:	48 89 85 b0 e7 ff ff 	mov    %rax,-0x1850(%rbp)
  40448e:	48 8b 85 08 f9 ff ff 	mov    -0x6f8(%rbp),%rax
  404495:	48 83 c0 60          	add    $0x60,%rax
  404499:	48 89 85 d8 f9 ff ff 	mov    %rax,-0x628(%rbp)
  4044a0:	48 83 bd d8 f9 ff ff 	cmpq   $0x0,-0x628(%rbp)
  4044a7:	00 
  4044a8:	75 02                	jne    4044ac <main+0x30bc>
  4044aa:	eb 3a                	jmp    4044e6 <main+0x30f6>
  4044ac:	31 f6                	xor    %esi,%esi
  4044ae:	48 8b 85 d8 f9 ff ff 	mov    -0x628(%rbp),%rax
  4044b5:	48 89 85 e8 f9 ff ff 	mov    %rax,-0x618(%rbp)
  4044bc:	48 c7 85 e0 f9 ff ff 	movq   $0x5c,-0x620(%rbp)
  4044c3:	5c 00 00 00 
  4044c7:	48 8b 04 25 70 e3 44 	mov    0x44e370,%rax
  4044ce:	00 
  4044cf:	48 8b bd e8 f9 ff ff 	mov    -0x618(%rbp),%rdi
  4044d6:	48 8b 95 e0 f9 ff ff 	mov    -0x620(%rbp),%rdx
  4044dd:	ff d0                	callq  *%rax
  4044df:	48 89 85 a8 e7 ff ff 	mov    %rax,-0x1858(%rbp)
  4044e6:	31 f6                	xor    %esi,%esi
  4044e8:	48 8b 85 08 f9 ff ff 	mov    -0x6f8(%rbp),%rax
  4044ef:	48 89 85 38 f9 ff ff 	mov    %rax,-0x6c8(%rbp)
  4044f6:	48 c7 85 30 f9 ff ff 	movq   $0x168,-0x6d0(%rbp)
  4044fd:	68 01 00 00 
  404501:	48 8b 04 25 70 e3 44 	mov    0x44e370,%rax
  404508:	00 
  404509:	48 8b bd 38 f9 ff ff 	mov    -0x6c8(%rbp),%rdi
  404510:	48 8b 95 30 f9 ff ff 	mov    -0x6d0(%rbp),%rdx
  404517:	ff d0                	callq  *%rax
  404519:	48 89 85 a0 e7 ff ff 	mov    %rax,-0x1860(%rbp)
  404520:	48 8b 85 c8 f8 ff ff 	mov    -0x738(%rbp),%rax
  404527:	48 8b 40 78          	mov    0x78(%rax),%rax
  40452b:	48 89 85 40 f9 ff ff 	mov    %rax,-0x6c0(%rbp)
  404532:	48 83 bd 40 f9 ff ff 	cmpq   $0x0,-0x6c0(%rbp)
  404539:	00 
  40453a:	75 05                	jne    404541 <main+0x3151>
  40453c:	e9 6e 01 00 00       	jmpq   4046af <main+0x32bf>
  404541:	48 8b 85 40 f9 ff ff 	mov    -0x6c0(%rbp),%rax
  404548:	48 05 80 00 00 00    	add    $0x80,%rax
  40454e:	48 89 85 f0 f9 ff ff 	mov    %rax,-0x610(%rbp)
  404555:	48 83 bd f0 f9 ff ff 	cmpq   $0x0,-0x610(%rbp)
  40455c:	00 
  40455d:	75 02                	jne    404561 <main+0x3171>
  40455f:	eb 67                	jmp    4045c8 <main+0x31d8>
  404561:	48 8b 85 f0 f9 ff ff 	mov    -0x610(%rbp),%rax
  404568:	48 83 78 50 00       	cmpq   $0x0,0x50(%rax)
  40456d:	74 1f                	je     40458e <main+0x319e>
  40456f:	48 8b 85 f0 f9 ff ff 	mov    -0x610(%rbp),%rax
  404576:	48 8b 00             	mov    (%rax),%rax
  404579:	48 8b 40 28          	mov    0x28(%rax),%rax
  40457d:	48 8b 40 30          	mov    0x30(%rax),%rax
  404581:	48 8b 8d f0 f9 ff ff 	mov    -0x610(%rbp),%rcx
  404588:	48 8b 79 50          	mov    0x50(%rcx),%rdi
  40458c:	ff d0                	callq  *%rax
  40458e:	31 f6                	xor    %esi,%esi
  404590:	48 8b 85 f0 f9 ff ff 	mov    -0x610(%rbp),%rax
  404597:	48 89 85 00 fa ff ff 	mov    %rax,-0x600(%rbp)
  40459e:	48 c7 85 f8 f9 ff ff 	movq   $0x58,-0x608(%rbp)
  4045a5:	58 00 00 00 
  4045a9:	48 8b 04 25 70 e3 44 	mov    0x44e370,%rax
  4045b0:	00 
  4045b1:	48 8b bd 00 fa ff ff 	mov    -0x600(%rbp),%rdi
  4045b8:	48 8b 95 f8 f9 ff ff 	mov    -0x608(%rbp),%rdx
  4045bf:	ff d0                	callq  *%rax
  4045c1:	48 89 85 98 e7 ff ff 	mov    %rax,-0x1868(%rbp)
  4045c8:	48 8b 85 40 f9 ff ff 	mov    -0x6c0(%rbp),%rax
  4045cf:	48 05 d8 00 00 00    	add    $0xd8,%rax
  4045d5:	48 89 85 08 fa ff ff 	mov    %rax,-0x5f8(%rbp)
  4045dc:	48 83 bd 08 fa ff ff 	cmpq   $0x0,-0x5f8(%rbp)
  4045e3:	00 
  4045e4:	75 02                	jne    4045e8 <main+0x31f8>
  4045e6:	eb 67                	jmp    40464f <main+0x325f>
  4045e8:	48 8b 85 08 fa ff ff 	mov    -0x5f8(%rbp),%rax
  4045ef:	48 83 78 50 00       	cmpq   $0x0,0x50(%rax)
  4045f4:	74 1f                	je     404615 <main+0x3225>
  4045f6:	48 8b 85 08 fa ff ff 	mov    -0x5f8(%rbp),%rax
  4045fd:	48 8b 00             	mov    (%rax),%rax
  404600:	48 8b 40 28          	mov    0x28(%rax),%rax
  404604:	48 8b 40 30          	mov    0x30(%rax),%rax
  404608:	48 8b 8d 08 fa ff ff 	mov    -0x5f8(%rbp),%rcx
  40460f:	48 8b 79 50          	mov    0x50(%rcx),%rdi
  404613:	ff d0                	callq  *%rax
  404615:	31 f6                	xor    %esi,%esi
  404617:	48 8b 85 08 fa ff ff 	mov    -0x5f8(%rbp),%rax
  40461e:	48 89 85 18 fa ff ff 	mov    %rax,-0x5e8(%rbp)
  404625:	48 c7 85 10 fa ff ff 	movq   $0x58,-0x5f0(%rbp)
  40462c:	58 00 00 00 
  404630:	48 8b 04 25 70 e3 44 	mov    0x44e370,%rax
  404637:	00 
  404638:	48 8b bd 18 fa ff ff 	mov    -0x5e8(%rbp),%rdi
  40463f:	48 8b 95 10 fa ff ff 	mov    -0x5f0(%rbp),%rdx
  404646:	ff d0                	callq  *%rax
  404648:	48 89 85 90 e7 ff ff 	mov    %rax,-0x1870(%rbp)
  40464f:	48 8b 85 40 f9 ff ff 	mov    -0x6c0(%rbp),%rax
  404656:	48 83 c0 50          	add    $0x50,%rax
  40465a:	48 89 c7             	mov    %rax,%rdi
  40465d:	e8 fe 68 02 00       	callq  42af60 <mbedtls_md_free>
  404662:	48 8b 85 40 f9 ff ff 	mov    -0x6c0(%rbp),%rax
  404669:	48 83 c0 68          	add    $0x68,%rax
  40466d:	48 89 c7             	mov    %rax,%rdi
  404670:	e8 eb 68 02 00       	callq  42af60 <mbedtls_md_free>
  404675:	31 f6                	xor    %esi,%esi
  404677:	48 8b 85 40 f9 ff ff 	mov    -0x6c0(%rbp),%rax
  40467e:	48 89 85 50 f9 ff ff 	mov    %rax,-0x6b0(%rbp)
  404685:	48 c7 85 48 f9 ff ff 	movq   $0x130,-0x6b8(%rbp)
  40468c:	30 01 00 00 
  404690:	48 8b 04 25 70 e3 44 	mov    0x44e370,%rax
  404697:	00 
  404698:	48 8b bd 50 f9 ff ff 	mov    -0x6b0(%rbp),%rdi
  40469f:	48 8b 95 48 f9 ff ff 	mov    -0x6b8(%rbp),%rdx
  4046a6:	ff d0                	callq  *%rax
  4046a8:	48 89 85 88 e7 ff ff 	mov    %rax,-0x1878(%rbp)
  4046af:	48 8b 85 c8 f8 ff ff 	mov    -0x738(%rbp),%rax
  4046b6:	48 8b 40 50          	mov    0x50(%rax),%rax
  4046ba:	48 89 85 58 f9 ff ff 	mov    %rax,-0x6a8(%rbp)
  4046c1:	48 83 bd 58 f9 ff ff 	cmpq   $0x0,-0x6a8(%rbp)
  4046c8:	00 
  4046c9:	75 02                	jne    4046cd <main+0x32dd>
  4046cb:	eb 6b                	jmp    404738 <main+0x3348>
  4046cd:	48 8b 85 58 f9 ff ff 	mov    -0x6a8(%rbp),%rax
  4046d4:	48 83 78 68 00       	cmpq   $0x0,0x68(%rax)
  4046d9:	74 23                	je     4046fe <main+0x330e>
  4046db:	48 8b 85 58 f9 ff ff 	mov    -0x6a8(%rbp),%rax
  4046e2:	48 8b 78 68          	mov    0x68(%rax),%rdi
  4046e6:	e8 85 18 01 00       	callq  415f70 <mbedtls_x509_crt_free>
  4046eb:	48 8b 85 58 f9 ff ff 	mov    -0x6a8(%rbp),%rax
  4046f2:	48 8b 40 68          	mov    0x68(%rax),%rax
  4046f6:	48 89 c7             	mov    %rax,%rdi
  4046f9:	e8 e2 c9 ff ff       	callq  4010e0 <free@plt>
  4046fe:	31 f6                	xor    %esi,%esi
  404700:	48 8b 85 58 f9 ff ff 	mov    -0x6a8(%rbp),%rax
  404707:	48 89 85 68 f9 ff ff 	mov    %rax,-0x698(%rbp)
  40470e:	48 c7 85 60 f9 ff ff 	movq   $0x78,-0x6a0(%rbp)
  404715:	78 00 00 00 
  404719:	48 8b 04 25 70 e3 44 	mov    0x44e370,%rax
  404720:	00 
  404721:	48 8b bd 68 f9 ff ff 	mov    -0x698(%rbp),%rdi
  404728:	48 8b 95 60 f9 ff ff 	mov    -0x6a0(%rbp),%rdx
  40472f:	ff d0                	callq  *%rax
  404731:	48 89 85 80 e7 ff ff 	mov    %rax,-0x1880(%rbp)
  404738:	48 8b 85 c8 f8 ff ff 	mov    -0x738(%rbp),%rax
  40473f:	48 8b 40 58          	mov    0x58(%rax),%rax
  404743:	48 89 c7             	mov    %rax,%rdi
  404746:	e8 95 c9 ff ff       	callq  4010e0 <free@plt>
  40474b:	48 8b 85 c8 f8 ff ff 	mov    -0x738(%rbp),%rax
  404752:	48 8b 40 78          	mov    0x78(%rax),%rax
  404756:	48 89 c7             	mov    %rax,%rdi
  404759:	e8 82 c9 ff ff       	callq  4010e0 <free@plt>
  40475e:	48 8b 85 c8 f8 ff ff 	mov    -0x738(%rbp),%rax
  404765:	48 8b 40 50          	mov    0x50(%rax),%rax
  404769:	48 89 c7             	mov    %rax,%rdi
  40476c:	e8 6f c9 ff ff       	callq  4010e0 <free@plt>
  404771:	48 8b 85 c8 f8 ff ff 	mov    -0x738(%rbp),%rax
  404778:	48 83 78 48 00       	cmpq   $0x0,0x48(%rax)
  40477d:	0f 84 9c 00 00 00    	je     40481f <main+0x342f>
  404783:	48 8b 85 c8 f8 ff ff 	mov    -0x738(%rbp),%rax
  40478a:	48 8b 40 48          	mov    0x48(%rax),%rax
  40478e:	48 89 85 70 f9 ff ff 	mov    %rax,-0x690(%rbp)
  404795:	48 83 bd 70 f9 ff ff 	cmpq   $0x0,-0x690(%rbp)
  40479c:	00 
  40479d:	75 02                	jne    4047a1 <main+0x33b1>
  40479f:	eb 6b                	jmp    40480c <main+0x341c>
  4047a1:	48 8b 85 70 f9 ff ff 	mov    -0x690(%rbp),%rax
  4047a8:	48 83 78 68 00       	cmpq   $0x0,0x68(%rax)
  4047ad:	74 23                	je     4047d2 <main+0x33e2>
  4047af:	48 8b 85 70 f9 ff ff 	mov    -0x690(%rbp),%rax
  4047b6:	48 8b 78 68          	mov    0x68(%rax),%rdi
  4047ba:	e8 b1 17 01 00       	callq  415f70 <mbedtls_x509_crt_free>
  4047bf:	48 8b 85 70 f9 ff ff 	mov    -0x690(%rbp),%rax
  4047c6:	48 8b 40 68          	mov    0x68(%rax),%rax
  4047ca:	48 89 c7             	mov    %rax,%rdi
  4047cd:	e8 0e c9 ff ff       	callq  4010e0 <free@plt>
  4047d2:	31 f6                	xor    %esi,%esi
  4047d4:	48 8b 85 70 f9 ff ff 	mov    -0x690(%rbp),%rax
  4047db:	48 89 85 80 f9 ff ff 	mov    %rax,-0x680(%rbp)
  4047e2:	48 c7 85 78 f9 ff ff 	movq   $0x78,-0x688(%rbp)
  4047e9:	78 00 00 00 
  4047ed:	48 8b 04 25 70 e3 44 	mov    0x44e370,%rax
  4047f4:	00 
  4047f5:	48 8b bd 80 f9 ff ff 	mov    -0x680(%rbp),%rdi
  4047fc:	48 8b 95 78 f9 ff ff 	mov    -0x688(%rbp),%rdx
  404803:	ff d0                	callq  *%rax
  404805:	48 89 85 78 e7 ff ff 	mov    %rax,-0x1888(%rbp)
  40480c:	48 8b 85 c8 f8 ff ff 	mov    -0x738(%rbp),%rax
  404813:	48 8b 40 48          	mov    0x48(%rax),%rax
  404817:	48 89 c7             	mov    %rax,%rdi
  40481a:	e8 c1 c8 ff ff       	callq  4010e0 <free@plt>
  40481f:	48 8b 85 c8 f8 ff ff 	mov    -0x738(%rbp),%rax
  404826:	48 83 b8 50 01 00 00 	cmpq   $0x0,0x150(%rax)
  40482d:	00 
  40482e:	74 7d                	je     4048ad <main+0x34bd>
  404830:	31 f6                	xor    %esi,%esi
  404832:	48 8b 85 c8 f8 ff ff 	mov    -0x738(%rbp),%rax
  404839:	48 8b 80 50 01 00 00 	mov    0x150(%rax),%rax
  404840:	48 8b 8d c8 f8 ff ff 	mov    -0x738(%rbp),%rcx
  404847:	48 8b b9 50 01 00 00 	mov    0x150(%rcx),%rdi
  40484e:	89 b5 74 e7 ff ff    	mov    %esi,-0x188c(%rbp)
  404854:	48 89 85 68 e7 ff ff 	mov    %rax,-0x1898(%rbp)
  40485b:	e8 70 c8 ff ff       	callq  4010d0 <strlen@plt>
  404860:	48 8b 8d 68 e7 ff ff 	mov    -0x1898(%rbp),%rcx
  404867:	48 89 8d 90 f9 ff ff 	mov    %rcx,-0x670(%rbp)
  40486e:	48 89 85 88 f9 ff ff 	mov    %rax,-0x678(%rbp)
  404875:	48 8b 04 25 70 e3 44 	mov    0x44e370,%rax
  40487c:	00 
  40487d:	48 8b bd 90 f9 ff ff 	mov    -0x670(%rbp),%rdi
  404884:	48 8b 95 88 f9 ff ff 	mov    -0x678(%rbp),%rdx
  40488b:	8b b5 74 e7 ff ff    	mov    -0x188c(%rbp),%esi
  404891:	ff d0                	callq  *%rax
  404893:	48 8b 8d c8 f8 ff ff 	mov    -0x738(%rbp),%rcx
  40489a:	48 8b b9 50 01 00 00 	mov    0x150(%rcx),%rdi
  4048a1:	48 89 85 60 e7 ff ff 	mov    %rax,-0x18a0(%rbp)
  4048a8:	e8 33 c8 ff ff       	callq  4010e0 <free@plt>
  4048ad:	31 f6                	xor    %esi,%esi
  4048af:	48 8b 85 c8 f8 ff ff 	mov    -0x738(%rbp),%rax
  4048b6:	48 89 85 a0 f9 ff ff 	mov    %rax,-0x660(%rbp)
  4048bd:	48 c7 85 98 f9 ff ff 	movq   $0x160,-0x668(%rbp)
  4048c4:	60 01 00 00 
  4048c8:	48 8b 04 25 70 e3 44 	mov    0x44e370,%rax
  4048cf:	00 
  4048d0:	48 8b bd a0 f9 ff ff 	mov    -0x660(%rbp),%rdi
  4048d7:	48 8b 95 98 f9 ff ff 	mov    -0x668(%rbp),%rdx
  4048de:	ff d0                	callq  *%rax
  4048e0:	48 89 85 58 e7 ff ff 	mov    %rax,-0x18a8(%rbp)
  4048e7:	48 8d 85 b8 ec ff ff 	lea    -0x1348(%rbp),%rax
  4048ee:	48 89 85 50 f8 ff ff 	mov    %rax,-0x7b0(%rbp)
  4048f5:	48 8b 85 50 f8 ff ff 	mov    -0x7b0(%rbp),%rax
  4048fc:	48 8b 40 70          	mov    0x70(%rax),%rax
  404900:	48 89 85 68 f8 ff ff 	mov    %rax,-0x798(%rbp)
  404907:	48 8b 85 68 f8 ff ff 	mov    -0x798(%rbp),%rax
  40490e:	48 89 85 60 f8 ff ff 	mov    %rax,-0x7a0(%rbp)
  404915:	48 83 bd 60 f8 ff ff 	cmpq   $0x0,-0x7a0(%rbp)
  40491c:	00 
  40491d:	74 31                	je     404950 <main+0x3560>
  40491f:	48 8b 85 60 f8 ff ff 	mov    -0x7a0(%rbp),%rax
  404926:	48 8b 40 10          	mov    0x10(%rax),%rax
  40492a:	48 89 85 58 f8 ff ff 	mov    %rax,-0x7a8(%rbp)
  404931:	48 8b 85 60 f8 ff ff 	mov    -0x7a0(%rbp),%rax
  404938:	48 89 c7             	mov    %rax,%rdi
  40493b:	e8 a0 c7 ff ff       	callq  4010e0 <free@plt>
  404940:	48 8b 85 58 f8 ff ff 	mov    -0x7a8(%rbp),%rax
  404947:	48 89 85 60 f8 ff ff 	mov    %rax,-0x7a0(%rbp)
  40494e:	eb c5                	jmp    404915 <main+0x3525>
  404950:	31 f6                	xor    %esi,%esi
  404952:	48 8b 85 50 f8 ff ff 	mov    -0x7b0(%rbp),%rax
  404959:	48 89 85 78 f8 ff ff 	mov    %rax,-0x788(%rbp)
  404960:	48 c7 85 70 f8 ff ff 	movq   $0xa0,-0x790(%rbp)
  404967:	a0 00 00 00 
  40496b:	48 8b 04 25 70 e3 44 	mov    0x44e370,%rax
  404972:	00 
  404973:	48 8b bd 78 f8 ff ff 	mov    -0x788(%rbp),%rdi
  40497a:	48 8b 95 70 f8 ff ff 	mov    -0x790(%rbp),%rdx
  404981:	ff d0                	callq  *%rax
  404983:	48 8d 95 b8 ee ff ff 	lea    -0x1148(%rbp),%rdx
  40498a:	48 89 95 10 f8 ff ff 	mov    %rdx,-0x7f0(%rbp)
  404991:	48 83 bd 10 f8 ff ff 	cmpq   $0x0,-0x7f0(%rbp)
  404998:	00 
  404999:	48 89 85 50 e7 ff ff 	mov    %rax,-0x18b0(%rbp)
  4049a0:	75 05                	jne    4049a7 <main+0x35b7>
  4049a2:	e9 92 00 00 00       	jmpq   404a39 <main+0x3649>
  4049a7:	48 8b 85 10 f8 ff ff 	mov    -0x7f0(%rbp),%rax
  4049ae:	48 83 c0 28          	add    $0x28,%rax
  4049b2:	48 89 85 18 f8 ff ff 	mov    %rax,-0x7e8(%rbp)
  4049b9:	48 83 bd 18 f8 ff ff 	cmpq   $0x0,-0x7e8(%rbp)
  4049c0:	00 
  4049c1:	75 02                	jne    4049c5 <main+0x35d5>
  4049c3:	eb 3a                	jmp    4049ff <main+0x360f>
  4049c5:	31 f6                	xor    %esi,%esi
  4049c7:	48 8b 85 18 f8 ff ff 	mov    -0x7e8(%rbp),%rax
  4049ce:	48 89 85 28 f8 ff ff 	mov    %rax,-0x7d8(%rbp)
  4049d5:	48 c7 85 20 f8 ff ff 	movq   $0x120,-0x7e0(%rbp)
  4049dc:	20 01 00 00 
  4049e0:	48 8b 04 25 70 e3 44 	mov    0x44e370,%rax
  4049e7:	00 
  4049e8:	48 8b bd 28 f8 ff ff 	mov    -0x7d8(%rbp),%rdi
  4049ef:	48 8b 95 20 f8 ff ff 	mov    -0x7e0(%rbp),%rdx
  4049f6:	ff d0                	callq  *%rax
  4049f8:	48 89 85 48 e7 ff ff 	mov    %rax,-0x18b8(%rbp)
  4049ff:	31 f6                	xor    %esi,%esi
  404a01:	48 8b 85 10 f8 ff ff 	mov    -0x7f0(%rbp),%rax
  404a08:	48 89 85 38 f8 ff ff 	mov    %rax,-0x7c8(%rbp)
  404a0f:	48 c7 85 30 f8 ff ff 	movq   $0x158,-0x7d0(%rbp)
  404a16:	58 01 00 00 
  404a1a:	48 8b 04 25 70 e3 44 	mov    0x44e370,%rax
  404a21:	00 
  404a22:	48 8b bd 38 f8 ff ff 	mov    -0x7c8(%rbp),%rdi
  404a29:	48 8b 95 30 f8 ff ff 	mov    -0x7d0(%rbp),%rdx
  404a30:	ff d0                	callq  *%rax
  404a32:	48 89 85 40 e7 ff ff 	mov    %rax,-0x18c0(%rbp)
  404a39:	48 8d 85 10 f0 ff ff 	lea    -0xff0(%rbp),%rax
  404a40:	48 89 85 d0 f7 ff ff 	mov    %rax,-0x830(%rbp)
  404a47:	48 8b 85 d0 f7 ff ff 	mov    -0x830(%rbp),%rax
  404a4e:	48 83 c0 04          	add    $0x4,%rax
  404a52:	48 89 85 d8 f7 ff ff 	mov    %rax,-0x828(%rbp)
  404a59:	48 83 bd d8 f7 ff ff 	cmpq   $0x0,-0x828(%rbp)
  404a60:	00 
  404a61:	75 02                	jne    404a65 <main+0x3675>
  404a63:	eb 3a                	jmp    404a9f <main+0x36af>
  404a65:	31 f6                	xor    %esi,%esi
  404a67:	48 8b 85 d8 f7 ff ff 	mov    -0x828(%rbp),%rax
  404a6e:	48 89 85 e8 f7 ff ff 	mov    %rax,-0x818(%rbp)
  404a75:	48 c7 85 e0 f7 ff ff 	movq   $0x6c,-0x820(%rbp)
  404a7c:	6c 00 00 00 
  404a80:	48 8b 04 25 70 e3 44 	mov    0x44e370,%rax
  404a87:	00 
  404a88:	48 8b bd e8 f7 ff ff 	mov    -0x818(%rbp),%rdi
  404a8f:	48 8b 95 e0 f7 ff ff 	mov    -0x820(%rbp),%rdx
  404a96:	ff d0                	callq  *%rax
  404a98:	48 89 85 38 e7 ff ff 	mov    %rax,-0x18c8(%rbp)
  404a9f:	31 f6                	xor    %esi,%esi
  404aa1:	48 8b 85 d0 f7 ff ff 	mov    -0x830(%rbp),%rax
  404aa8:	c7 40 70 00 00 00 00 	movl   $0x0,0x70(%rax)
  404aaf:	48 8b 85 d0 f7 ff ff 	mov    -0x830(%rbp),%rax
  404ab6:	48 83 c0 78          	add    $0x78,%rax
  404aba:	48 89 85 f8 f7 ff ff 	mov    %rax,-0x808(%rbp)
  404ac1:	48 c7 85 f0 f7 ff ff 	movq   $0x320,-0x810(%rbp)
  404ac8:	20 03 00 00 
  404acc:	48 8b 04 25 70 e3 44 	mov    0x44e370,%rax
  404ad3:	00 
  404ad4:	48 8b bd f8 f7 ff ff 	mov    -0x808(%rbp),%rdi
  404adb:	48 8b 95 f0 f7 ff ff 	mov    -0x810(%rbp),%rdx
  404ae2:	ff d0                	callq  *%rax
  404ae4:	48 8b 95 d0 f7 ff ff 	mov    -0x830(%rbp),%rdx
  404aeb:	c7 02 00 00 00 00    	movl   $0x0,(%rdx)
  404af1:	8b b5 c0 f7 ff ff    	mov    -0x840(%rbp),%esi
  404af7:	48 89 85 30 e7 ff ff 	mov    %rax,-0x18d0(%rbp)
  404afe:	89 b5 2c e7 ff ff    	mov    %esi,-0x18d4(%rbp)
  404b04:	e8 4d 0e 04 00       	callq  445956 <writeback_cache>
  404b09:	8b 85 2c e7 ff ff    	mov    -0x18d4(%rbp),%eax
  404b0f:	48 81 c4 e0 18 00 00 	add    $0x18e0,%rsp
  404b16:	5d                   	pop    %rbp
  404b17:	c3                   	retq   
  404b18:	0f 1f 84 00 00 00 00 	nopl   0x0(%rax,%rax,1)
  404b1f:	00 

0000000000404b20 <my_debug>:
  404b20:	55                   	push   %rbp
  404b21:	48 89 e5             	mov    %rsp,%rbp
  404b24:	48 83 ec 40          	sub    $0x40,%rsp
  404b28:	48 b8 30 73 44 00 00 	movabs $0x447330,%rax
  404b2f:	00 00 00 
  404b32:	48 89 7d f8          	mov    %rdi,-0x8(%rbp)
  404b36:	89 75 f4             	mov    %esi,-0xc(%rbp)
  404b39:	48 89 55 e8          	mov    %rdx,-0x18(%rbp)
  404b3d:	89 4d e4             	mov    %ecx,-0x1c(%rbp)
  404b40:	4c 89 45 d8          	mov    %r8,-0x28(%rbp)
  404b44:	48 8b 55 f8          	mov    -0x8(%rbp),%rdx
  404b48:	48 8b 7d e8          	mov    -0x18(%rbp),%rdi
  404b4c:	8b 4d e4             	mov    -0x1c(%rbp),%ecx
  404b4f:	4c 8b 45 d8          	mov    -0x28(%rbp),%r8
  404b53:	48 89 7d d0          	mov    %rdi,-0x30(%rbp)
  404b57:	48 89 d7             	mov    %rdx,%rdi
  404b5a:	48 89 c6             	mov    %rax,%rsi
  404b5d:	48 8b 55 d0          	mov    -0x30(%rbp),%rdx
  404b61:	b0 00                	mov    $0x0,%al
  404b63:	e8 28 c6 ff ff       	callq  401190 <fprintf@plt>
  404b68:	48 8b 55 f8          	mov    -0x8(%rbp),%rdx
  404b6c:	48 89 d7             	mov    %rdx,%rdi
  404b6f:	89 45 cc             	mov    %eax,-0x34(%rbp)
  404b72:	e8 c9 c4 ff ff       	callq  401040 <fflush@plt>
  404b77:	89 45 c8             	mov    %eax,-0x38(%rbp)
  404b7a:	e8 d7 0d 04 00       	callq  445956 <writeback_cache>
  404b7f:	48 83 c4 40          	add    $0x40,%rsp
  404b83:	5d                   	pop    %rbp
  404b84:	c3                   	retq   
  404b85:	66 66 2e 0f 1f 84 00 	data16 nopw %cs:0x0(%rax,%rax,1)
  404b8c:	00 00 00 00 

0000000000404b90 <net_prepare>:
  404b90:	55                   	push   %rbp
  404b91:	48 89 e5             	mov    %rsp,%rbp
  404b94:	48 83 ec 10          	sub    $0x10,%rsp
  404b98:	b8 01 00 00 00       	mov    $0x1,%eax
  404b9d:	89 c6                	mov    %eax,%esi
  404b9f:	bf 0d 00 00 00       	mov    $0xd,%edi
  404ba4:	e8 a7 c4 ff ff       	callq  401050 <__sysv_signal@plt>
  404ba9:	48 89 45 f8          	mov    %rax,-0x8(%rbp)
  404bad:	e8 a4 0d 04 00       	callq  445956 <writeback_cache>
  404bb2:	31 c0                	xor    %eax,%eax
  404bb4:	48 83 c4 10          	add    $0x10,%rsp
  404bb8:	5d                   	pop    %rbp
  404bb9:	c3                   	retq   
  404bba:	66 0f 1f 44 00 00    	nopw   0x0(%rax,%rax,1)

0000000000404bc0 <mbedtls_net_recv>:
  404bc0:	55                   	push   %rbp
  404bc1:	48 89 e5             	mov    %rsp,%rbp
  404bc4:	48 83 ec 50          	sub    $0x50,%rsp
  404bc8:	48 89 7d e0          	mov    %rdi,-0x20(%rbp)
  404bcc:	48 89 75 d8          	mov    %rsi,-0x28(%rbp)
  404bd0:	48 89 55 d0          	mov    %rdx,-0x30(%rbp)
  404bd4:	48 8b 55 e0          	mov    -0x20(%rbp),%rdx
  404bd8:	8b 02                	mov    (%rdx),%eax
  404bda:	89 45 c8             	mov    %eax,-0x38(%rbp)
  404bdd:	83 7d c8 00          	cmpl   $0x0,-0x38(%rbp)
  404be1:	7d 0c                	jge    404bef <mbedtls_net_recv+0x2f>
  404be3:	c7 45 e8 bb ff ff ff 	movl   $0xffffffbb,-0x18(%rbp)
  404bea:	e9 dd 00 00 00       	jmpq   404ccc <mbedtls_net_recv+0x10c>
  404bef:	8b 7d c8             	mov    -0x38(%rbp),%edi
  404bf2:	48 8b 75 d8          	mov    -0x28(%rbp),%rsi
  404bf6:	48 8b 55 d0          	mov    -0x30(%rbp),%rdx
  404bfa:	e8 a1 c5 ff ff       	callq  4011a0 <read@plt>
  404bff:	89 c7                	mov    %eax,%edi
  404c01:	89 7d cc             	mov    %edi,-0x34(%rbp)
  404c04:	83 7d cc 00          	cmpl   $0x0,-0x34(%rbp)
  404c08:	0f 8d b8 00 00 00    	jge    404cc6 <mbedtls_net_recv+0x106>
  404c0e:	48 8b 45 e0          	mov    -0x20(%rbp),%rax
  404c12:	48 89 45 f0          	mov    %rax,-0x10(%rbp)
  404c16:	e8 15 c5 ff ff       	callq  401130 <__errno_location@plt>
  404c1b:	8b 08                	mov    (%rax),%ecx
  404c1d:	89 4d ec             	mov    %ecx,-0x14(%rbp)
  404c20:	48 8b 45 f0          	mov    -0x10(%rbp),%rax
  404c24:	8b 38                	mov    (%rax),%edi
  404c26:	be 03 00 00 00       	mov    $0x3,%esi
  404c2b:	b0 00                	mov    $0x0,%al
  404c2d:	e8 0e c5 ff ff       	callq  401140 <fcntl@plt>
  404c32:	25 00 08 00 00       	and    $0x800,%eax
  404c37:	3d 00 08 00 00       	cmp    $0x800,%eax
  404c3c:	74 19                	je     404c57 <mbedtls_net_recv+0x97>
  404c3e:	8b 45 ec             	mov    -0x14(%rbp),%eax
  404c41:	89 45 c4             	mov    %eax,-0x3c(%rbp)
  404c44:	e8 e7 c4 ff ff       	callq  401130 <__errno_location@plt>
  404c49:	8b 4d c4             	mov    -0x3c(%rbp),%ecx
  404c4c:	89 08                	mov    %ecx,(%rax)
  404c4e:	c7 45 fc 00 00 00 00 	movl   $0x0,-0x4(%rbp)
  404c55:	eb 25                	jmp    404c7c <mbedtls_net_recv+0xbc>
  404c57:	8b 45 ec             	mov    -0x14(%rbp),%eax
  404c5a:	89 45 c0             	mov    %eax,-0x40(%rbp)
  404c5d:	e8 ce c4 ff ff       	callq  401130 <__errno_location@plt>
  404c62:	8b 4d c0             	mov    -0x40(%rbp),%ecx
  404c65:	89 08                	mov    %ecx,(%rax)
  404c67:	83 f9 0b             	cmp    $0xb,%ecx
  404c6a:	75 09                	jne    404c75 <mbedtls_net_recv+0xb5>
  404c6c:	c7 45 fc 01 00 00 00 	movl   $0x1,-0x4(%rbp)
  404c73:	eb 07                	jmp    404c7c <mbedtls_net_recv+0xbc>
  404c75:	c7 45 fc 00 00 00 00 	movl   $0x0,-0x4(%rbp)
  404c7c:	8b 45 fc             	mov    -0x4(%rbp),%eax
  404c7f:	83 f8 00             	cmp    $0x0,%eax
  404c82:	74 09                	je     404c8d <mbedtls_net_recv+0xcd>
  404c84:	c7 45 e8 00 97 ff ff 	movl   $0xffff9700,-0x18(%rbp)
  404c8b:	eb 3f                	jmp    404ccc <mbedtls_net_recv+0x10c>
  404c8d:	e8 9e c4 ff ff       	callq  401130 <__errno_location@plt>
  404c92:	83 38 20             	cmpl   $0x20,(%rax)
  404c95:	74 0a                	je     404ca1 <mbedtls_net_recv+0xe1>
  404c97:	e8 94 c4 ff ff       	callq  401130 <__errno_location@plt>
  404c9c:	83 38 68             	cmpl   $0x68,(%rax)
  404c9f:	75 09                	jne    404caa <mbedtls_net_recv+0xea>
  404ca1:	c7 45 e8 b0 ff ff ff 	movl   $0xffffffb0,-0x18(%rbp)
  404ca8:	eb 22                	jmp    404ccc <mbedtls_net_recv+0x10c>
  404caa:	e8 81 c4 ff ff       	callq  401130 <__errno_location@plt>
  404caf:	83 38 04             	cmpl   $0x4,(%rax)
  404cb2:	75 09                	jne    404cbd <mbedtls_net_recv+0xfd>
  404cb4:	c7 45 e8 00 97 ff ff 	movl   $0xffff9700,-0x18(%rbp)
  404cbb:	eb 0f                	jmp    404ccc <mbedtls_net_recv+0x10c>
  404cbd:	c7 45 e8 b4 ff ff ff 	movl   $0xffffffb4,-0x18(%rbp)
  404cc4:	eb 06                	jmp    404ccc <mbedtls_net_recv+0x10c>
  404cc6:	8b 45 cc             	mov    -0x34(%rbp),%eax
  404cc9:	89 45 e8             	mov    %eax,-0x18(%rbp)
  404ccc:	8b 45 e8             	mov    -0x18(%rbp),%eax
  404ccf:	89 45 bc             	mov    %eax,-0x44(%rbp)
  404cd2:	e8 7f 0c 04 00       	callq  445956 <writeback_cache>
  404cd7:	8b 45 bc             	mov    -0x44(%rbp),%eax
  404cda:	48 83 c4 50          	add    $0x50,%rsp
  404cde:	5d                   	pop    %rbp
  404cdf:	c3                   	retq   

0000000000404ce0 <mbedtls_net_send>:
  404ce0:	55                   	push   %rbp
  404ce1:	48 89 e5             	mov    %rsp,%rbp
  404ce4:	48 83 ec 50          	sub    $0x50,%rsp
  404ce8:	48 89 7d e0          	mov    %rdi,-0x20(%rbp)
  404cec:	48 89 75 d8          	mov    %rsi,-0x28(%rbp)
  404cf0:	48 89 55 d0          	mov    %rdx,-0x30(%rbp)
  404cf4:	48 8b 55 e0          	mov    -0x20(%rbp),%rdx
  404cf8:	8b 02                	mov    (%rdx),%eax
  404cfa:	89 45 c8             	mov    %eax,-0x38(%rbp)
  404cfd:	83 7d c8 00          	cmpl   $0x0,-0x38(%rbp)
  404d01:	7d 0c                	jge    404d0f <mbedtls_net_send+0x2f>
  404d03:	c7 45 e8 bb ff ff ff 	movl   $0xffffffbb,-0x18(%rbp)
  404d0a:	e9 dd 00 00 00       	jmpq   404dec <mbedtls_net_send+0x10c>
  404d0f:	8b 7d c8             	mov    -0x38(%rbp),%edi
  404d12:	48 8b 75 d8          	mov    -0x28(%rbp),%rsi
  404d16:	48 8b 55 d0          	mov    -0x30(%rbp),%rdx
  404d1a:	e8 91 c4 ff ff       	callq  4011b0 <write@plt>
  404d1f:	89 c7                	mov    %eax,%edi
  404d21:	89 7d cc             	mov    %edi,-0x34(%rbp)
  404d24:	83 7d cc 00          	cmpl   $0x0,-0x34(%rbp)
  404d28:	0f 8d b8 00 00 00    	jge    404de6 <mbedtls_net_send+0x106>
  404d2e:	48 8b 45 e0          	mov    -0x20(%rbp),%rax
  404d32:	48 89 45 f0          	mov    %rax,-0x10(%rbp)
  404d36:	e8 f5 c3 ff ff       	callq  401130 <__errno_location@plt>
  404d3b:	8b 08                	mov    (%rax),%ecx
  404d3d:	89 4d ec             	mov    %ecx,-0x14(%rbp)
  404d40:	48 8b 45 f0          	mov    -0x10(%rbp),%rax
  404d44:	8b 38                	mov    (%rax),%edi
  404d46:	be 03 00 00 00       	mov    $0x3,%esi
  404d4b:	b0 00                	mov    $0x0,%al
  404d4d:	e8 ee c3 ff ff       	callq  401140 <fcntl@plt>
  404d52:	25 00 08 00 00       	and    $0x800,%eax
  404d57:	3d 00 08 00 00       	cmp    $0x800,%eax
  404d5c:	74 19                	je     404d77 <mbedtls_net_send+0x97>
  404d5e:	8b 45 ec             	mov    -0x14(%rbp),%eax
  404d61:	89 45 c4             	mov    %eax,-0x3c(%rbp)
  404d64:	e8 c7 c3 ff ff       	callq  401130 <__errno_location@plt>
  404d69:	8b 4d c4             	mov    -0x3c(%rbp),%ecx
  404d6c:	89 08                	mov    %ecx,(%rax)
  404d6e:	c7 45 fc 00 00 00 00 	movl   $0x0,-0x4(%rbp)
  404d75:	eb 25                	jmp    404d9c <mbedtls_net_send+0xbc>
  404d77:	8b 45 ec             	mov    -0x14(%rbp),%eax
  404d7a:	89 45 c0             	mov    %eax,-0x40(%rbp)
  404d7d:	e8 ae c3 ff ff       	callq  401130 <__errno_location@plt>
  404d82:	8b 4d c0             	mov    -0x40(%rbp),%ecx
  404d85:	89 08                	mov    %ecx,(%rax)
  404d87:	83 f9 0b             	cmp    $0xb,%ecx
  404d8a:	75 09                	jne    404d95 <mbedtls_net_send+0xb5>
  404d8c:	c7 45 fc 01 00 00 00 	movl   $0x1,-0x4(%rbp)
  404d93:	eb 07                	jmp    404d9c <mbedtls_net_send+0xbc>
  404d95:	c7 45 fc 00 00 00 00 	movl   $0x0,-0x4(%rbp)
  404d9c:	8b 45 fc             	mov    -0x4(%rbp),%eax
  404d9f:	83 f8 00             	cmp    $0x0,%eax
  404da2:	74 09                	je     404dad <mbedtls_net_send+0xcd>
  404da4:	c7 45 e8 80 97 ff ff 	movl   $0xffff9780,-0x18(%rbp)
  404dab:	eb 3f                	jmp    404dec <mbedtls_net_send+0x10c>
  404dad:	e8 7e c3 ff ff       	callq  401130 <__errno_location@plt>
  404db2:	83 38 20             	cmpl   $0x20,(%rax)
  404db5:	74 0a                	je     404dc1 <mbedtls_net_send+0xe1>
  404db7:	e8 74 c3 ff ff       	callq  401130 <__errno_location@plt>
  404dbc:	83 38 68             	cmpl   $0x68,(%rax)
  404dbf:	75 09                	jne    404dca <mbedtls_net_send+0xea>
  404dc1:	c7 45 e8 b0 ff ff ff 	movl   $0xffffffb0,-0x18(%rbp)
  404dc8:	eb 22                	jmp    404dec <mbedtls_net_send+0x10c>
  404dca:	e8 61 c3 ff ff       	callq  401130 <__errno_location@plt>
  404dcf:	83 38 04             	cmpl   $0x4,(%rax)
  404dd2:	75 09                	jne    404ddd <mbedtls_net_send+0xfd>
  404dd4:	c7 45 e8 80 97 ff ff 	movl   $0xffff9780,-0x18(%rbp)
  404ddb:	eb 0f                	jmp    404dec <mbedtls_net_send+0x10c>
  404ddd:	c7 45 e8 b2 ff ff ff 	movl   $0xffffffb2,-0x18(%rbp)
  404de4:	eb 06                	jmp    404dec <mbedtls_net_send+0x10c>
  404de6:	8b 45 cc             	mov    -0x34(%rbp),%eax
  404de9:	89 45 e8             	mov    %eax,-0x18(%rbp)
  404dec:	8b 45 e8             	mov    -0x18(%rbp),%eax
  404def:	89 45 bc             	mov    %eax,-0x44(%rbp)
  404df2:	e8 5f 0b 04 00       	callq  445956 <writeback_cache>
  404df7:	8b 45 bc             	mov    -0x44(%rbp),%eax
  404dfa:	48 83 c4 50          	add    $0x50,%rsp
  404dfe:	5d                   	pop    %rbp
  404dff:	c3                   	retq   

0000000000404e00 <mbedtls_ssl_derive_keys>:
  404e00:	55                   	push   %rbp
  404e01:	48 89 e5             	mov    %rsp,%rbp
  404e04:	53                   	push   %rbx
  404e05:	48 81 ec a8 03 00 00 	sub    $0x3a8,%rsp
  404e0c:	48 89 bd c0 fe ff ff 	mov    %rdi,-0x140(%rbp)
  404e13:	c7 85 bc fe ff ff 00 	movl   $0x0,-0x144(%rbp)
  404e1a:	00 00 00 
  404e1d:	48 8b bd c0 fe ff ff 	mov    -0x140(%rbp),%rdi
  404e24:	48 8b 7f 50          	mov    0x50(%rdi),%rdi
  404e28:	48 89 bd 28 fd ff ff 	mov    %rdi,-0x2d8(%rbp)
  404e2f:	48 8b bd c0 fe ff ff 	mov    -0x140(%rbp),%rdi
  404e36:	48 8b 7f 78          	mov    0x78(%rdi),%rdi
  404e3a:	48 89 bd 20 fd ff ff 	mov    %rdi,-0x2e0(%rbp)
  404e41:	48 8b bd c0 fe ff ff 	mov    -0x140(%rbp),%rdi
  404e48:	48 8b 7f 58          	mov    0x58(%rdi),%rdi
  404e4c:	48 89 bd 18 fd ff ff 	mov    %rdi,-0x2e8(%rbp)
  404e53:	eb 00                	jmp    404e55 <mbedtls_ssl_derive_keys+0x55>
  404e55:	48 b8 a0 cb 44 00 00 	movabs $0x44cba0,%rax
  404e5c:	00 00 00 
  404e5f:	48 8b 8d 20 fd ff ff 	mov    -0x2e0(%rbp),%rcx
  404e66:	48 8b 09             	mov    (%rcx),%rcx
  404e69:	8b 51 10             	mov    0x10(%rcx),%edx
  404e6c:	89 95 dc fe ff ff    	mov    %edx,-0x124(%rbp)
  404e72:	48 89 85 d0 fe ff ff 	mov    %rax,-0x130(%rbp)
  404e79:	48 8b 85 d0 fe ff ff 	mov    -0x130(%rbp),%rax
  404e80:	48 83 78 08 00       	cmpq   $0x0,0x8(%rax)
  404e85:	74 39                	je     404ec0 <mbedtls_ssl_derive_keys+0xc0>
  404e87:	48 8b 85 d0 fe ff ff 	mov    -0x130(%rbp),%rax
  404e8e:	8b 08                	mov    (%rax),%ecx
  404e90:	3b 8d dc fe ff ff    	cmp    -0x124(%rbp),%ecx
  404e96:	75 14                	jne    404eac <mbedtls_ssl_derive_keys+0xac>
  404e98:	48 8b 85 d0 fe ff ff 	mov    -0x130(%rbp),%rax
  404e9f:	48 8b 40 08          	mov    0x8(%rax),%rax
  404ea3:	48 89 85 e0 fe ff ff 	mov    %rax,-0x120(%rbp)
  404eaa:	eb 1f                	jmp    404ecb <mbedtls_ssl_derive_keys+0xcb>
  404eac:	48 8b 85 d0 fe ff ff 	mov    -0x130(%rbp),%rax
  404eb3:	48 83 c0 10          	add    $0x10,%rax
  404eb7:	48 89 85 d0 fe ff ff 	mov    %rax,-0x130(%rbp)
  404ebe:	eb b9                	jmp    404e79 <mbedtls_ssl_derive_keys+0x79>
  404ec0:	48 c7 85 e0 fe ff ff 	movq   $0x0,-0x120(%rbp)
  404ec7:	00 00 00 00 
  404ecb:	48 8b 85 e0 fe ff ff 	mov    -0x120(%rbp),%rax
  404ed2:	48 89 85 38 fd ff ff 	mov    %rax,-0x2c8(%rbp)
  404ed9:	48 83 bd 38 fd ff ff 	cmpq   $0x0,-0x2c8(%rbp)
  404ee0:	00 
  404ee1:	75 13                	jne    404ef6 <mbedtls_ssl_derive_keys+0xf6>
  404ee3:	eb 00                	jmp    404ee5 <mbedtls_ssl_derive_keys+0xe5>
  404ee5:	eb 00                	jmp    404ee7 <mbedtls_ssl_derive_keys+0xe7>
  404ee7:	c7 85 cc fe ff ff 00 	movl   $0xffff8f00,-0x134(%rbp)
  404eee:	8f ff ff 
  404ef1:	e9 af 0f 00 00       	jmpq   405ea5 <mbedtls_ssl_derive_keys+0x10a5>
  404ef6:	48 8b 85 20 fd ff ff 	mov    -0x2e0(%rbp),%rax
  404efd:	48 8b 00             	mov    (%rax),%rax
  404f00:	8b 48 14             	mov    0x14(%rax),%ecx
  404f03:	89 8d fc fe ff ff    	mov    %ecx,-0x104(%rbp)
  404f09:	8b 8d fc fe ff ff    	mov    -0x104(%rbp),%ecx
  404f0f:	83 c1 fd             	add    $0xfffffffd,%ecx
  404f12:	89 c8                	mov    %ecx,%eax
  404f14:	83 e9 03             	sub    $0x3,%ecx
  404f17:	48 89 85 00 fd ff ff 	mov    %rax,-0x300(%rbp)
  404f1e:	89 8d fc fc ff ff    	mov    %ecx,-0x304(%rbp)
  404f24:	77 5d                	ja     404f83 <mbedtls_ssl_derive_keys+0x183>
  404f26:	48 8b 85 00 fd ff ff 	mov    -0x300(%rbp),%rax
  404f2d:	48 8b 0c c5 98 6b 44 	mov    0x446b98(,%rax,8),%rcx
  404f34:	00 
  404f35:	ff e1                	jmpq   *%rcx
  404f37:	48 b8 50 d9 44 00 00 	movabs $0x44d950,%rax
  404f3e:	00 00 00 
  404f41:	48 89 85 00 ff ff ff 	mov    %rax,-0x100(%rbp)
  404f48:	eb 44                	jmp    404f8e <mbedtls_ssl_derive_keys+0x18e>
  404f4a:	48 b8 b0 d9 44 00 00 	movabs $0x44d9b0,%rax
  404f51:	00 00 00 
  404f54:	48 89 85 00 ff ff ff 	mov    %rax,-0x100(%rbp)
  404f5b:	eb 31                	jmp    404f8e <mbedtls_ssl_derive_keys+0x18e>
  404f5d:	48 b8 10 da 44 00 00 	movabs $0x44da10,%rax
  404f64:	00 00 00 
  404f67:	48 89 85 00 ff ff ff 	mov    %rax,-0x100(%rbp)
  404f6e:	eb 1e                	jmp    404f8e <mbedtls_ssl_derive_keys+0x18e>
  404f70:	48 b8 70 da 44 00 00 	movabs $0x44da70,%rax
  404f77:	00 00 00 
  404f7a:	48 89 85 00 ff ff ff 	mov    %rax,-0x100(%rbp)
  404f81:	eb 0b                	jmp    404f8e <mbedtls_ssl_derive_keys+0x18e>
  404f83:	48 c7 85 00 ff ff ff 	movq   $0x0,-0x100(%rbp)
  404f8a:	00 00 00 00 
  404f8e:	48 8b 85 00 ff ff ff 	mov    -0x100(%rbp),%rax
  404f95:	48 89 85 30 fd ff ff 	mov    %rax,-0x2d0(%rbp)
  404f9c:	48 83 bd 30 fd ff ff 	cmpq   $0x0,-0x2d0(%rbp)
  404fa3:	00 
  404fa4:	75 13                	jne    404fb9 <mbedtls_ssl_derive_keys+0x1b9>
  404fa6:	eb 00                	jmp    404fa8 <mbedtls_ssl_derive_keys+0x1a8>
  404fa8:	eb 00                	jmp    404faa <mbedtls_ssl_derive_keys+0x1aa>
  404faa:	c7 85 cc fe ff ff 00 	movl   $0xffff8f00,-0x134(%rbp)
  404fb1:	8f ff ff 
  404fb4:	e9 ec 0e 00 00       	jmpq   405ea5 <mbedtls_ssl_derive_keys+0x10a5>
  404fb9:	48 8b 85 c0 fe ff ff 	mov    -0x140(%rbp),%rax
  404fc0:	83 78 10 03          	cmpl   $0x3,0x10(%rax)
  404fc4:	7d 4a                	jge    405010 <mbedtls_ssl_derive_keys+0x210>
  404fc6:	48 8b 85 18 fd ff ff 	mov    -0x2e8(%rbp),%rax
  404fcd:	48 b9 d0 5e 40 00 00 	movabs $0x405ed0,%rcx
  404fd4:	00 00 00 
  404fd7:	48 89 88 d8 00 00 00 	mov    %rcx,0xd8(%rax)
  404fde:	48 8b 85 18 fd ff ff 	mov    -0x2e8(%rbp),%rax
  404fe5:	48 b9 e0 6c 40 00 00 	movabs $0x406ce0,%rcx
  404fec:	00 00 00 
  404fef:	48 89 88 c8 00 00 00 	mov    %rcx,0xc8(%rax)
  404ff6:	48 8b 85 18 fd ff ff 	mov    -0x2e8(%rbp),%rax
  404ffd:	48 b9 a0 6e 40 00 00 	movabs $0x406ea0,%rcx
  405004:	00 00 00 
  405007:	48 89 88 d0 00 00 00 	mov    %rcx,0xd0(%rax)
  40500e:	eb 13                	jmp    405023 <mbedtls_ssl_derive_keys+0x223>
  405010:	eb 00                	jmp    405012 <mbedtls_ssl_derive_keys+0x212>
  405012:	eb 00                	jmp    405014 <mbedtls_ssl_derive_keys+0x214>
  405014:	c7 85 cc fe ff ff 00 	movl   $0xffff9400,-0x134(%rbp)
  40501b:	94 ff ff 
  40501e:	e9 82 0e 00 00       	jmpq   405ea5 <mbedtls_ssl_derive_keys+0x10a5>
  405023:	48 8b 85 18 fd ff ff 	mov    -0x2e8(%rbp),%rax
  40502a:	83 b8 58 01 00 00 00 	cmpl   $0x0,0x158(%rax)
  405031:	0f 85 ef 00 00 00    	jne    405126 <mbedtls_ssl_derive_keys+0x326>
  405037:	eb 00                	jmp    405039 <mbedtls_ssl_derive_keys+0x239>
  405039:	eb 00                	jmp    40503b <mbedtls_ssl_derive_keys+0x23b>
  40503b:	b8 40 00 00 00       	mov    $0x40,%eax
  405040:	41 89 c0             	mov    %eax,%r8d
  405043:	b8 30 00 00 00       	mov    $0x30,%eax
  405048:	89 c1                	mov    %eax,%ecx
  40504a:	48 ba 40 73 44 00 00 	movabs $0x447340,%rdx
  405051:	00 00 00 
  405054:	48 8b b5 18 fd ff ff 	mov    -0x2e8(%rbp),%rsi
  40505b:	48 8b b6 d8 00 00 00 	mov    0xd8(%rsi),%rsi
  405062:	48 8b bd 18 fd ff ff 	mov    -0x2e8(%rbp),%rdi
  405069:	48 81 c7 28 01 00 00 	add    $0x128,%rdi
  405070:	4c 8b 8d 18 fd ff ff 	mov    -0x2e8(%rbp),%r9
  405077:	4d 8b 89 e0 00 00 00 	mov    0xe0(%r9),%r9
  40507e:	4c 8b 95 18 fd ff ff 	mov    -0x2e8(%rbp),%r10
  405085:	49 81 c2 e8 00 00 00 	add    $0xe8,%r10
  40508c:	4c 8b 9d 28 fd ff ff 	mov    -0x2d8(%rbp),%r11
  405093:	49 83 c3 38          	add    $0x38,%r11
  405097:	48 89 b5 f0 fc ff ff 	mov    %rsi,-0x310(%rbp)
  40509e:	4c 89 ce             	mov    %r9,%rsi
  4050a1:	48 89 8d e8 fc ff ff 	mov    %rcx,-0x318(%rbp)
  4050a8:	4c 89 d1             	mov    %r10,%rcx
  4050ab:	4d 89 d9             	mov    %r11,%r9
  4050ae:	48 c7 04 24 30 00 00 	movq   $0x30,(%rsp)
  4050b5:	00 
  4050b6:	4c 8b 95 f0 fc ff ff 	mov    -0x310(%rbp),%r10
  4050bd:	41 ff d2             	callq  *%r10
  4050c0:	89 85 bc fe ff ff    	mov    %eax,-0x144(%rbp)
  4050c6:	83 bd bc fe ff ff 00 	cmpl   $0x0,-0x144(%rbp)
  4050cd:	74 15                	je     4050e4 <mbedtls_ssl_derive_keys+0x2e4>
  4050cf:	eb 00                	jmp    4050d1 <mbedtls_ssl_derive_keys+0x2d1>
  4050d1:	eb 00                	jmp    4050d3 <mbedtls_ssl_derive_keys+0x2d3>
  4050d3:	8b 85 bc fe ff ff    	mov    -0x144(%rbp),%eax
  4050d9:	89 85 cc fe ff ff    	mov    %eax,-0x134(%rbp)
  4050df:	e9 c1 0d 00 00       	jmpq   405ea5 <mbedtls_ssl_derive_keys+0x10a5>
  4050e4:	31 f6                	xor    %esi,%esi
  4050e6:	48 8b 85 18 fd ff ff 	mov    -0x2e8(%rbp),%rax
  4050ed:	48 05 28 01 00 00    	add    $0x128,%rax
  4050f3:	48 89 85 38 ff ff ff 	mov    %rax,-0xc8(%rbp)
  4050fa:	48 c7 85 30 ff ff ff 	movq   $0x30,-0xd0(%rbp)
  405101:	30 00 00 00 
  405105:	48 8b 04 25 70 e3 44 	mov    0x44e370,%rax
  40510c:	00 
  40510d:	48 8b bd 38 ff ff ff 	mov    -0xc8(%rbp),%rdi
  405114:	48 8b 95 30 ff ff ff 	mov    -0xd0(%rbp),%rdx
  40511b:	ff d0                	callq  *%rax
  40511d:	48 89 85 e0 fc ff ff 	mov    %rax,-0x320(%rbp)
  405124:	eb 06                	jmp    40512c <mbedtls_ssl_derive_keys+0x32c>
  405126:	eb 00                	jmp    405128 <mbedtls_ssl_derive_keys+0x328>
  405128:	eb 00                	jmp    40512a <mbedtls_ssl_derive_keys+0x32a>
  40512a:	eb 00                	jmp    40512c <mbedtls_ssl_derive_keys+0x32c>
  40512c:	31 f6                	xor    %esi,%esi
  40512e:	48 8d 85 70 fe ff ff 	lea    -0x190(%rbp),%rax
  405135:	b9 40 00 00 00       	mov    $0x40,%ecx
  40513a:	89 ca                	mov    %ecx,%edx
  40513c:	48 8b bd 18 fd ff ff 	mov    -0x2e8(%rbp),%rdi
  405143:	48 81 c7 e8 00 00 00 	add    $0xe8,%rdi
  40514a:	48 89 bd d8 fc ff ff 	mov    %rdi,-0x328(%rbp)
  405151:	48 89 c7             	mov    %rax,%rdi
  405154:	4c 8b 85 d8 fc ff ff 	mov    -0x328(%rbp),%r8
  40515b:	89 b5 d4 fc ff ff    	mov    %esi,-0x32c(%rbp)
  405161:	4c 89 c6             	mov    %r8,%rsi
  405164:	48 89 85 c8 fc ff ff 	mov    %rax,-0x338(%rbp)
  40516b:	e8 00 c0 ff ff       	callq  401170 <memcpy@plt>
  405170:	48 8b 85 18 fd ff ff 	mov    -0x2e8(%rbp),%rax
  405177:	48 8b 95 90 fe ff ff 	mov    -0x170(%rbp),%rdx
  40517e:	48 89 90 e8 00 00 00 	mov    %rdx,0xe8(%rax)
  405185:	48 8b 95 98 fe ff ff 	mov    -0x168(%rbp),%rdx
  40518c:	48 89 90 f0 00 00 00 	mov    %rdx,0xf0(%rax)
  405193:	48 8b 95 a0 fe ff ff 	mov    -0x160(%rbp),%rdx
  40519a:	48 89 90 f8 00 00 00 	mov    %rdx,0xf8(%rax)
  4051a1:	48 8b 95 a8 fe ff ff 	mov    -0x158(%rbp),%rdx
  4051a8:	48 89 90 00 01 00 00 	mov    %rdx,0x100(%rax)
  4051af:	48 8b 85 18 fd ff ff 	mov    -0x2e8(%rbp),%rax
  4051b6:	48 8b 95 70 fe ff ff 	mov    -0x190(%rbp),%rdx
  4051bd:	48 89 90 08 01 00 00 	mov    %rdx,0x108(%rax)
  4051c4:	48 8b 95 78 fe ff ff 	mov    -0x188(%rbp),%rdx
  4051cb:	48 89 90 10 01 00 00 	mov    %rdx,0x110(%rax)
  4051d2:	48 8b 95 80 fe ff ff 	mov    -0x180(%rbp),%rdx
  4051d9:	48 89 90 18 01 00 00 	mov    %rdx,0x118(%rax)
  4051e0:	48 8b 95 88 fe ff ff 	mov    -0x178(%rbp),%rdx
  4051e7:	48 89 90 20 01 00 00 	mov    %rdx,0x120(%rax)
  4051ee:	48 8b 85 c8 fc ff ff 	mov    -0x338(%rbp),%rax
  4051f5:	48 89 85 48 ff ff ff 	mov    %rax,-0xb8(%rbp)
  4051fc:	48 c7 85 40 ff ff ff 	movq   $0x40,-0xc0(%rbp)
  405203:	40 00 00 00 
  405207:	48 8b 14 25 70 e3 44 	mov    0x44e370,%rdx
  40520e:	00 
  40520f:	48 8b bd 48 ff ff ff 	mov    -0xb8(%rbp),%rdi
  405216:	48 8b b5 40 ff ff ff 	mov    -0xc0(%rbp),%rsi
  40521d:	8b 8d d4 fc ff ff    	mov    -0x32c(%rbp),%ecx
  405223:	48 89 b5 c0 fc ff ff 	mov    %rsi,-0x340(%rbp)
  40522a:	89 ce                	mov    %ecx,%esi
  40522c:	4c 8b 85 c0 fc ff ff 	mov    -0x340(%rbp),%r8
  405233:	48 89 95 b8 fc ff ff 	mov    %rdx,-0x348(%rbp)
  40523a:	4c 89 c2             	mov    %r8,%rdx
  40523d:	4c 8b 8d b8 fc ff ff 	mov    -0x348(%rbp),%r9
  405244:	41 ff d1             	callq  *%r9
  405247:	b9 30 00 00 00       	mov    $0x30,%ecx
  40524c:	89 ce                	mov    %ecx,%esi
  40524e:	b9 40 00 00 00       	mov    $0x40,%ecx
  405253:	41 89 c8             	mov    %ecx,%r8d
  405256:	b9 00 01 00 00       	mov    $0x100,%ecx
  40525b:	89 ca                	mov    %ecx,%edx
  40525d:	48 bf 50 73 44 00 00 	movabs $0x447350,%rdi
  405264:	00 00 00 
  405267:	4c 8d 8d 70 fd ff ff 	lea    -0x290(%rbp),%r9
  40526e:	4c 8b 95 18 fd ff ff 	mov    -0x2e8(%rbp),%r10
  405275:	4d 8b 92 d8 00 00 00 	mov    0xd8(%r10),%r10
  40527c:	4c 8b 9d 28 fd ff ff 	mov    -0x2d8(%rbp),%r11
  405283:	49 83 c3 38          	add    $0x38,%r11
  405287:	48 8b 9d 18 fd ff ff 	mov    -0x2e8(%rbp),%rbx
  40528e:	48 81 c3 e8 00 00 00 	add    $0xe8,%rbx
  405295:	48 89 bd b0 fc ff ff 	mov    %rdi,-0x350(%rbp)
  40529c:	4c 89 df             	mov    %r11,%rdi
  40529f:	4c 8b 9d b0 fc ff ff 	mov    -0x350(%rbp),%r11
  4052a6:	48 89 95 a8 fc ff ff 	mov    %rdx,-0x358(%rbp)
  4052ad:	4c 89 da             	mov    %r11,%rdx
  4052b0:	48 89 d9             	mov    %rbx,%rcx
  4052b3:	48 c7 04 24 00 01 00 	movq   $0x100,(%rsp)
  4052ba:	00 
  4052bb:	48 89 85 a0 fc ff ff 	mov    %rax,-0x360(%rbp)
  4052c2:	41 ff d2             	callq  *%r10
  4052c5:	89 85 bc fe ff ff    	mov    %eax,-0x144(%rbp)
  4052cb:	83 bd bc fe ff ff 00 	cmpl   $0x0,-0x144(%rbp)
  4052d2:	74 15                	je     4052e9 <mbedtls_ssl_derive_keys+0x4e9>
  4052d4:	eb 00                	jmp    4052d6 <mbedtls_ssl_derive_keys+0x4d6>
  4052d6:	eb 00                	jmp    4052d8 <mbedtls_ssl_derive_keys+0x4d8>
  4052d8:	8b 85 bc fe ff ff    	mov    -0x144(%rbp),%eax
  4052de:	89 85 cc fe ff ff    	mov    %eax,-0x134(%rbp)
  4052e4:	e9 bc 0b 00 00       	jmpq   405ea5 <mbedtls_ssl_derive_keys+0x10a5>
  4052e9:	eb 00                	jmp    4052eb <mbedtls_ssl_derive_keys+0x4eb>
  4052eb:	eb 00                	jmp    4052ed <mbedtls_ssl_derive_keys+0x4ed>
  4052ed:	eb 00                	jmp    4052ef <mbedtls_ssl_derive_keys+0x4ef>
  4052ef:	eb 00                	jmp    4052f1 <mbedtls_ssl_derive_keys+0x4f1>
  4052f1:	eb 00                	jmp    4052f3 <mbedtls_ssl_derive_keys+0x4f3>
  4052f3:	eb 00                	jmp    4052f5 <mbedtls_ssl_derive_keys+0x4f5>
  4052f5:	eb 00                	jmp    4052f7 <mbedtls_ssl_derive_keys+0x4f7>
  4052f7:	eb 00                	jmp    4052f9 <mbedtls_ssl_derive_keys+0x4f9>
  4052f9:	31 f6                	xor    %esi,%esi
  4052fb:	48 8b 85 18 fd ff ff 	mov    -0x2e8(%rbp),%rax
  405302:	48 05 e8 00 00 00    	add    $0xe8,%rax
  405308:	48 89 85 58 ff ff ff 	mov    %rax,-0xa8(%rbp)
  40530f:	48 c7 85 50 ff ff ff 	movq   $0x40,-0xb0(%rbp)
  405316:	40 00 00 00 
  40531a:	48 8b 04 25 70 e3 44 	mov    0x44e370,%rax
  405321:	00 
  405322:	48 8b bd 58 ff ff ff 	mov    -0xa8(%rbp),%rdi
  405329:	48 8b 95 50 ff ff ff 	mov    -0xb0(%rbp),%rdx
  405330:	ff d0                	callq  *%rax
  405332:	48 8b 95 38 fd ff ff 	mov    -0x2c8(%rbp),%rdx
  405339:	8b 72 08             	mov    0x8(%rdx),%esi
  40533c:	c1 ee 03             	shr    $0x3,%esi
  40533f:	48 8b 95 20 fd ff ff 	mov    -0x2e0(%rbp),%rdx
  405346:	89 72 08             	mov    %esi,0x8(%rdx)
  405349:	48 8b 95 38 fd ff ff 	mov    -0x2c8(%rbp),%rdx
  405350:	83 7a 04 06          	cmpl   $0x6,0x4(%rdx)
  405354:	48 89 85 98 fc ff ff 	mov    %rax,-0x368(%rbp)
  40535b:	74 1e                	je     40537b <mbedtls_ssl_derive_keys+0x57b>
  40535d:	48 8b 85 38 fd ff ff 	mov    -0x2c8(%rbp),%rax
  405364:	83 78 04 08          	cmpl   $0x8,0x4(%rax)
  405368:	74 11                	je     40537b <mbedtls_ssl_derive_keys+0x57b>
  40536a:	48 8b 85 38 fd ff ff 	mov    -0x2c8(%rbp),%rax
  405371:	83 78 04 0a          	cmpl   $0xa,0x4(%rax)
  405375:	0f 85 bc 00 00 00    	jne    405437 <mbedtls_ssl_derive_keys+0x637>
  40537b:	48 8b 85 20 fd ff ff 	mov    -0x2e0(%rbp),%rax
  405382:	48 c7 40 28 00 00 00 	movq   $0x0,0x28(%rax)
  405389:	00 
  40538a:	48 c7 85 48 fd ff ff 	movq   $0x0,-0x2b8(%rbp)
  405391:	00 00 00 00 
  405395:	48 8b 85 20 fd ff ff 	mov    -0x2e0(%rbp),%rax
  40539c:	48 c7 40 18 0c 00 00 	movq   $0xc,0x18(%rax)
  4053a3:	00 
  4053a4:	48 8b 85 38 fd ff ff 	mov    -0x2c8(%rbp),%rax
  4053ab:	83 78 04 0a          	cmpl   $0xa,0x4(%rax)
  4053af:	75 11                	jne    4053c2 <mbedtls_ssl_derive_keys+0x5c2>
  4053b1:	48 8b 85 20 fd ff ff 	mov    -0x2e0(%rbp),%rax
  4053b8:	48 c7 40 20 0c 00 00 	movq   $0xc,0x20(%rax)
  4053bf:	00 
  4053c0:	eb 0f                	jmp    4053d1 <mbedtls_ssl_derive_keys+0x5d1>
  4053c2:	48 8b 85 20 fd ff ff 	mov    -0x2e0(%rbp),%rax
  4053c9:	48 c7 40 20 04 00 00 	movq   $0x4,0x20(%rax)
  4053d0:	00 
  4053d1:	48 8b 85 20 fd ff ff 	mov    -0x2e0(%rbp),%rax
  4053d8:	48 8b 00             	mov    (%rax),%rax
  4053db:	0f b6 48 2c          	movzbl 0x2c(%rax),%ecx
  4053df:	83 e1 02             	and    $0x2,%ecx
  4053e2:	83 f9 00             	cmp    $0x0,%ecx
  4053e5:	b9 08 00 00 00       	mov    $0x8,%ecx
  4053ea:	ba 10 00 00 00       	mov    $0x10,%edx
  4053ef:	0f 45 d1             	cmovne %ecx,%edx
  4053f2:	48 63 c2             	movslq %edx,%rax
  4053f5:	48 89 85 10 fd ff ff 	mov    %rax,-0x2f0(%rbp)
  4053fc:	48 8b 85 20 fd ff ff 	mov    -0x2e0(%rbp),%rax
  405403:	48 8b 40 18          	mov    0x18(%rax),%rax
  405407:	48 8b b5 20 fd ff ff 	mov    -0x2e0(%rbp),%rsi
  40540e:	48 2b 46 20          	sub    0x20(%rsi),%rax
  405412:	48 89 85 08 fd ff ff 	mov    %rax,-0x2f8(%rbp)
  405419:	48 8b 85 08 fd ff ff 	mov    -0x2f8(%rbp),%rax
  405420:	48 03 85 10 fd ff ff 	add    -0x2f0(%rbp),%rax
  405427:	48 8b b5 20 fd ff ff 	mov    -0x2e0(%rbp),%rsi
  40542e:	48 89 46 10          	mov    %rax,0x10(%rsi)
  405432:	e9 04 03 00 00       	jmpq   40573b <mbedtls_ssl_derive_keys+0x93b>
  405437:	48 8b 85 20 fd ff ff 	mov    -0x2e0(%rbp),%rax
  40543e:	48 83 c0 50          	add    $0x50,%rax
  405442:	48 8b 8d 30 fd ff ff 	mov    -0x2d0(%rbp),%rcx
  405449:	48 89 85 70 ff ff ff 	mov    %rax,-0x90(%rbp)
  405450:	48 89 8d 68 ff ff ff 	mov    %rcx,-0x98(%rbp)
  405457:	c7 85 64 ff ff ff 01 	movl   $0x1,-0x9c(%rbp)
  40545e:	00 00 00 
  405461:	48 83 bd 68 ff ff ff 	cmpq   $0x0,-0x98(%rbp)
  405468:	00 
  405469:	74 0a                	je     405475 <mbedtls_ssl_derive_keys+0x675>
  40546b:	48 83 bd 70 ff ff ff 	cmpq   $0x0,-0x90(%rbp)
  405472:	00 
  405473:	75 0f                	jne    405484 <mbedtls_ssl_derive_keys+0x684>
  405475:	c7 85 78 ff ff ff 00 	movl   $0xffffaf00,-0x88(%rbp)
  40547c:	af ff ff 
  40547f:	e9 a1 00 00 00       	jmpq   405525 <mbedtls_ssl_derive_keys+0x725>
  405484:	48 8b 85 68 ff ff ff 	mov    -0x98(%rbp),%rax
  40548b:	ff 50 38             	callq  *0x38(%rax)
  40548e:	48 8b 8d 70 ff ff ff 	mov    -0x90(%rbp),%rcx
  405495:	48 89 41 08          	mov    %rax,0x8(%rcx)
  405499:	48 83 f8 00          	cmp    $0x0,%rax
  40549d:	75 0c                	jne    4054ab <mbedtls_ssl_derive_keys+0x6ab>
  40549f:	c7 85 78 ff ff ff 80 	movl   $0xffffae80,-0x88(%rbp)
  4054a6:	ae ff ff 
  4054a9:	eb 7a                	jmp    405525 <mbedtls_ssl_derive_keys+0x725>
  4054ab:	83 bd 64 ff ff ff 00 	cmpl   $0x0,-0x9c(%rbp)
  4054b2:	74 56                	je     40550a <mbedtls_ssl_derive_keys+0x70a>
  4054b4:	b8 02 00 00 00       	mov    $0x2,%eax
  4054b9:	89 c7                	mov    %eax,%edi
  4054bb:	48 8b 8d 68 ff ff ff 	mov    -0x98(%rbp),%rcx
  4054c2:	48 63 71 14          	movslq 0x14(%rcx),%rsi
  4054c6:	e8 1f 13 04 00       	callq  4467ea <aes_calloc>
  4054cb:	48 8b 8d 70 ff ff ff 	mov    -0x90(%rbp),%rcx
  4054d2:	48 89 41 10          	mov    %rax,0x10(%rcx)
  4054d6:	48 8b 85 70 ff ff ff 	mov    -0x90(%rbp),%rax
  4054dd:	48 83 78 10 00       	cmpq   $0x0,0x10(%rax)
  4054e2:	75 24                	jne    405508 <mbedtls_ssl_derive_keys+0x708>
  4054e4:	48 8b 85 68 ff ff ff 	mov    -0x98(%rbp),%rax
  4054eb:	48 8b 40 40          	mov    0x40(%rax),%rax
  4054ef:	48 8b 8d 70 ff ff ff 	mov    -0x90(%rbp),%rcx
  4054f6:	48 8b 79 08          	mov    0x8(%rcx),%rdi
  4054fa:	ff d0                	callq  *%rax
  4054fc:	c7 85 78 ff ff ff 80 	movl   $0xffffae80,-0x88(%rbp)
  405503:	ae ff ff 
  405506:	eb 1d                	jmp    405525 <mbedtls_ssl_derive_keys+0x725>
  405508:	eb 00                	jmp    40550a <mbedtls_ssl_derive_keys+0x70a>
  40550a:	48 8b 85 68 ff ff ff 	mov    -0x98(%rbp),%rax
  405511:	48 8b 8d 70 ff ff ff 	mov    -0x90(%rbp),%rcx
  405518:	48 89 01             	mov    %rax,(%rcx)
  40551b:	c7 85 78 ff ff ff 00 	movl   $0x0,-0x88(%rbp)
  405522:	00 00 00 
  405525:	8b 85 78 ff ff ff    	mov    -0x88(%rbp),%eax
  40552b:	89 85 bc fe ff ff    	mov    %eax,-0x144(%rbp)
  405531:	83 f8 00             	cmp    $0x0,%eax
  405534:	0f 85 c6 00 00 00    	jne    405600 <mbedtls_ssl_derive_keys+0x800>
  40553a:	48 8b 85 20 fd ff ff 	mov    -0x2e0(%rbp),%rax
  405541:	48 83 c0 68          	add    $0x68,%rax
  405545:	48 8b 8d 30 fd ff ff 	mov    -0x2d0(%rbp),%rcx
  40554c:	48 89 45 88          	mov    %rax,-0x78(%rbp)
  405550:	48 89 4d 80          	mov    %rcx,-0x80(%rbp)
  405554:	c7 85 7c ff ff ff 01 	movl   $0x1,-0x84(%rbp)
  40555b:	00 00 00 
  40555e:	48 83 7d 80 00       	cmpq   $0x0,-0x80(%rbp)
  405563:	74 07                	je     40556c <mbedtls_ssl_derive_keys+0x76c>
  405565:	48 83 7d 88 00       	cmpq   $0x0,-0x78(%rbp)
  40556a:	75 09                	jne    405575 <mbedtls_ssl_derive_keys+0x775>
  40556c:	c7 45 94 00 af ff ff 	movl   $0xffffaf00,-0x6c(%rbp)
  405573:	eb 7d                	jmp    4055f2 <mbedtls_ssl_derive_keys+0x7f2>
  405575:	48 8b 45 80          	mov    -0x80(%rbp),%rax
  405579:	ff 50 38             	callq  *0x38(%rax)
  40557c:	48 8b 4d 88          	mov    -0x78(%rbp),%rcx
  405580:	48 89 41 08          	mov    %rax,0x8(%rcx)
  405584:	48 83 f8 00          	cmp    $0x0,%rax
  405588:	75 09                	jne    405593 <mbedtls_ssl_derive_keys+0x793>
  40558a:	c7 45 94 80 ae ff ff 	movl   $0xffffae80,-0x6c(%rbp)
  405591:	eb 5f                	jmp    4055f2 <mbedtls_ssl_derive_keys+0x7f2>
  405593:	83 bd 7c ff ff ff 00 	cmpl   $0x0,-0x84(%rbp)
  40559a:	74 44                	je     4055e0 <mbedtls_ssl_derive_keys+0x7e0>
  40559c:	b8 02 00 00 00       	mov    $0x2,%eax
  4055a1:	89 c7                	mov    %eax,%edi
  4055a3:	48 8b 4d 80          	mov    -0x80(%rbp),%rcx
  4055a7:	48 63 71 14          	movslq 0x14(%rcx),%rsi
  4055ab:	e8 3a 12 04 00       	callq  4467ea <aes_calloc>
  4055b0:	48 8b 4d 88          	mov    -0x78(%rbp),%rcx
  4055b4:	48 89 41 10          	mov    %rax,0x10(%rcx)
  4055b8:	48 8b 45 88          	mov    -0x78(%rbp),%rax
  4055bc:	48 83 78 10 00       	cmpq   $0x0,0x10(%rax)
  4055c1:	75 1b                	jne    4055de <mbedtls_ssl_derive_keys+0x7de>
  4055c3:	48 8b 45 80          	mov    -0x80(%rbp),%rax
  4055c7:	48 8b 40 40          	mov    0x40(%rax),%rax
  4055cb:	48 8b 4d 88          	mov    -0x78(%rbp),%rcx
  4055cf:	48 8b 79 08          	mov    0x8(%rcx),%rdi
  4055d3:	ff d0                	callq  *%rax
  4055d5:	c7 45 94 80 ae ff ff 	movl   $0xffffae80,-0x6c(%rbp)
  4055dc:	eb 14                	jmp    4055f2 <mbedtls_ssl_derive_keys+0x7f2>
  4055de:	eb 00                	jmp    4055e0 <mbedtls_ssl_derive_keys+0x7e0>
  4055e0:	48 8b 45 80          	mov    -0x80(%rbp),%rax
  4055e4:	48 8b 4d 88          	mov    -0x78(%rbp),%rcx
  4055e8:	48 89 01             	mov    %rax,(%rcx)
  4055eb:	c7 45 94 00 00 00 00 	movl   $0x0,-0x6c(%rbp)
  4055f2:	8b 45 94             	mov    -0x6c(%rbp),%eax
  4055f5:	89 85 bc fe ff ff    	mov    %eax,-0x144(%rbp)
  4055fb:	83 f8 00             	cmp    $0x0,%eax
  4055fe:	74 15                	je     405615 <mbedtls_ssl_derive_keys+0x815>
  405600:	eb 00                	jmp    405602 <mbedtls_ssl_derive_keys+0x802>
  405602:	eb 00                	jmp    405604 <mbedtls_ssl_derive_keys+0x804>
  405604:	8b 85 bc fe ff ff    	mov    -0x144(%rbp),%eax
  40560a:	89 85 cc fe ff ff    	mov    %eax,-0x134(%rbp)
  405610:	e9 90 08 00 00       	jmpq   405ea5 <mbedtls_ssl_derive_keys+0x10a5>
  405615:	48 8b 85 30 fd ff ff 	mov    -0x2d0(%rbp),%rax
  40561c:	48 89 45 98          	mov    %rax,-0x68(%rbp)
  405620:	48 83 7d 98 00       	cmpq   $0x0,-0x68(%rbp)
  405625:	75 06                	jne    40562d <mbedtls_ssl_derive_keys+0x82d>
  405627:	c6 45 a7 00          	movb   $0x0,-0x59(%rbp)
  40562b:	eb 0c                	jmp    405639 <mbedtls_ssl_derive_keys+0x839>
  40562d:	48 8b 45 98          	mov    -0x68(%rbp),%rax
  405631:	8b 48 10             	mov    0x10(%rax),%ecx
  405634:	88 ca                	mov    %cl,%dl
  405636:	88 55 a7             	mov    %dl,-0x59(%rbp)
  405639:	8a 45 a7             	mov    -0x59(%rbp),%al
  40563c:	0f b6 c8             	movzbl %al,%ecx
  40563f:	89 ca                	mov    %ecx,%edx
  405641:	48 89 95 48 fd ff ff 	mov    %rdx,-0x2b8(%rbp)
  405648:	48 8b 95 48 fd ff ff 	mov    -0x2b8(%rbp),%rdx
  40564f:	48 8b b5 20 fd ff ff 	mov    -0x2e0(%rbp),%rsi
  405656:	48 89 56 28          	mov    %rdx,0x28(%rsi)
  40565a:	48 8b 95 38 fd ff ff 	mov    -0x2c8(%rbp),%rdx
  405661:	8b 4a 18             	mov    0x18(%rdx),%ecx
  405664:	89 ca                	mov    %ecx,%edx
  405666:	48 8b b5 20 fd ff ff 	mov    -0x2e0(%rbp),%rsi
  40566d:	48 89 56 18          	mov    %rdx,0x18(%rsi)
  405671:	48 8b 95 38 fd ff ff 	mov    -0x2c8(%rbp),%rdx
  405678:	83 7a 04 07          	cmpl   $0x7,0x4(%rdx)
  40567c:	75 1b                	jne    405699 <mbedtls_ssl_derive_keys+0x899>
  40567e:	48 8b 85 20 fd ff ff 	mov    -0x2e0(%rbp),%rax
  405685:	48 8b 40 28          	mov    0x28(%rax),%rax
  405689:	48 8b 8d 20 fd ff ff 	mov    -0x2e0(%rbp),%rcx
  405690:	48 89 41 10          	mov    %rax,0x10(%rcx)
  405694:	e9 a0 00 00 00       	jmpq   405739 <mbedtls_ssl_derive_keys+0x939>
  405699:	48 8b 85 20 fd ff ff 	mov    -0x2e0(%rbp),%rax
  4056a0:	48 8b 40 28          	mov    0x28(%rax),%rax
  4056a4:	48 8b 8d 38 fd ff ff 	mov    -0x2c8(%rbp),%rcx
  4056ab:	8b 51 20             	mov    0x20(%rcx),%edx
  4056ae:	89 d1                	mov    %edx,%ecx
  4056b0:	48 01 c8             	add    %rcx,%rax
  4056b3:	48 8b 8d 20 fd ff ff 	mov    -0x2e0(%rbp),%rcx
  4056ba:	48 8b 49 28          	mov    0x28(%rcx),%rcx
  4056be:	48 8b b5 38 fd ff ff 	mov    -0x2c8(%rbp),%rsi
  4056c5:	8b 56 20             	mov    0x20(%rsi),%edx
  4056c8:	89 d6                	mov    %edx,%esi
  4056ca:	48 89 85 90 fc ff ff 	mov    %rax,-0x370(%rbp)
  4056d1:	48 89 c8             	mov    %rcx,%rax
  4056d4:	31 d2                	xor    %edx,%edx
  4056d6:	48 f7 f6             	div    %rsi
  4056d9:	48 8b 8d 90 fc ff ff 	mov    -0x370(%rbp),%rcx
  4056e0:	48 29 d1             	sub    %rdx,%rcx
  4056e3:	48 8b 95 20 fd ff ff 	mov    -0x2e0(%rbp),%rdx
  4056ea:	48 89 4a 10          	mov    %rcx,0x10(%rdx)
  4056ee:	48 8b 8d c0 fe ff ff 	mov    -0x140(%rbp),%rcx
  4056f5:	83 79 10 02          	cmpl   $0x2,0x10(%rcx)
  4056f9:	74 0d                	je     405708 <mbedtls_ssl_derive_keys+0x908>
  4056fb:	48 8b 85 c0 fe ff ff 	mov    -0x140(%rbp),%rax
  405702:	83 78 10 03          	cmpl   $0x3,0x10(%rax)
  405706:	75 1c                	jne    405724 <mbedtls_ssl_derive_keys+0x924>
  405708:	48 8b 85 20 fd ff ff 	mov    -0x2e0(%rbp),%rax
  40570f:	48 8b 40 18          	mov    0x18(%rax),%rax
  405713:	48 8b 8d 20 fd ff ff 	mov    -0x2e0(%rbp),%rcx
  40571a:	48 03 41 10          	add    0x10(%rcx),%rax
  40571e:	48 89 41 10          	mov    %rax,0x10(%rcx)
  405722:	eb 13                	jmp    405737 <mbedtls_ssl_derive_keys+0x937>
  405724:	eb 00                	jmp    405726 <mbedtls_ssl_derive_keys+0x926>
  405726:	eb 00                	jmp    405728 <mbedtls_ssl_derive_keys+0x928>
  405728:	c7 85 cc fe ff ff 00 	movl   $0xffff9400,-0x134(%rbp)
  40572f:	94 ff ff 
  405732:	e9 6e 07 00 00       	jmpq   405ea5 <mbedtls_ssl_derive_keys+0x10a5>
  405737:	eb 00                	jmp    405739 <mbedtls_ssl_derive_keys+0x939>
  405739:	eb 00                	jmp    40573b <mbedtls_ssl_derive_keys+0x93b>
  40573b:	eb 00                	jmp    40573d <mbedtls_ssl_derive_keys+0x93d>
  40573d:	eb 00                	jmp    40573f <mbedtls_ssl_derive_keys+0x93f>
  40573f:	48 8b 85 c0 fe ff ff 	mov    -0x140(%rbp),%rax
  405746:	48 8b 00             	mov    (%rax),%rax
  405749:	8a 88 98 00 00 00    	mov    0x98(%rax),%cl
  40574f:	80 e1 01             	and    $0x1,%cl
  405752:	0f b6 d1             	movzbl %cl,%edx
  405755:	83 fa 00             	cmp    $0x0,%edx
  405758:	0f 85 11 01 00 00    	jne    40586f <mbedtls_ssl_derive_keys+0xa6f>
  40575e:	48 8d 85 70 fd ff ff 	lea    -0x290(%rbp),%rax
  405765:	48 8b 8d 48 fd ff ff 	mov    -0x2b8(%rbp),%rcx
  40576c:	48 c1 e1 01          	shl    $0x1,%rcx
  405770:	48 89 c2             	mov    %rax,%rdx
  405773:	48 01 ca             	add    %rcx,%rdx
  405776:	48 89 95 68 fd ff ff 	mov    %rdx,-0x298(%rbp)
  40577d:	48 8b 8d 48 fd ff ff 	mov    -0x2b8(%rbp),%rcx
  405784:	48 c1 e1 01          	shl    $0x1,%rcx
  405788:	48 89 c2             	mov    %rax,%rdx
  40578b:	48 01 ca             	add    %rcx,%rdx
  40578e:	48 8b 8d 20 fd ff ff 	mov    -0x2e0(%rbp),%rcx
  405795:	8b 71 08             	mov    0x8(%rcx),%esi
  405798:	89 f1                	mov    %esi,%ecx
  40579a:	48 01 ca             	add    %rcx,%rdx
  40579d:	48 89 95 60 fd ff ff 	mov    %rdx,-0x2a0(%rbp)
  4057a4:	48 89 85 58 fd ff ff 	mov    %rax,-0x2a8(%rbp)
  4057ab:	48 03 85 48 fd ff ff 	add    -0x2b8(%rbp),%rax
  4057b2:	48 89 85 50 fd ff ff 	mov    %rax,-0x2b0(%rbp)
  4057b9:	48 8b 85 20 fd ff ff 	mov    -0x2e0(%rbp),%rax
  4057c0:	48 83 78 20 00       	cmpq   $0x0,0x20(%rax)
  4057c5:	74 14                	je     4057db <mbedtls_ssl_derive_keys+0x9db>
  4057c7:	48 8b 85 20 fd ff ff 	mov    -0x2e0(%rbp),%rax
  4057ce:	48 8b 40 20          	mov    0x20(%rax),%rax
  4057d2:	48 89 85 88 fc ff ff 	mov    %rax,-0x378(%rbp)
  4057d9:	eb 12                	jmp    4057ed <mbedtls_ssl_derive_keys+0x9ed>
  4057db:	48 8b 85 20 fd ff ff 	mov    -0x2e0(%rbp),%rax
  4057e2:	48 8b 40 18          	mov    0x18(%rax),%rax
  4057e6:	48 89 85 88 fc ff ff 	mov    %rax,-0x378(%rbp)
  4057ed:	48 8b 85 88 fc ff ff 	mov    -0x378(%rbp),%rax
  4057f4:	48 89 85 40 fd ff ff 	mov    %rax,-0x2c0(%rbp)
  4057fb:	48 8b 85 20 fd ff ff 	mov    -0x2e0(%rbp),%rax
  405802:	48 83 c0 30          	add    $0x30,%rax
  405806:	48 8b 8d 60 fd ff ff 	mov    -0x2a0(%rbp),%rcx
  40580d:	48 8b 95 20 fd ff ff 	mov    -0x2e0(%rbp),%rdx
  405814:	8b 72 08             	mov    0x8(%rdx),%esi
  405817:	89 f2                	mov    %esi,%edx
  405819:	48 01 d1             	add    %rdx,%rcx
  40581c:	48 8b 95 40 fd ff ff 	mov    -0x2c0(%rbp),%rdx
  405823:	48 89 c7             	mov    %rax,%rdi
  405826:	48 89 ce             	mov    %rcx,%rsi
  405829:	e8 42 b9 ff ff       	callq  401170 <memcpy@plt>
  40582e:	48 8b 85 20 fd ff ff 	mov    -0x2e0(%rbp),%rax
  405835:	48 83 c0 40          	add    $0x40,%rax
  405839:	48 8b 8d 60 fd ff ff 	mov    -0x2a0(%rbp),%rcx
  405840:	48 8b 95 20 fd ff ff 	mov    -0x2e0(%rbp),%rdx
  405847:	44 8b 42 08          	mov    0x8(%rdx),%r8d
  40584b:	44 89 c2             	mov    %r8d,%edx
  40584e:	48 01 d1             	add    %rdx,%rcx
  405851:	48 03 8d 40 fd ff ff 	add    -0x2c0(%rbp),%rcx
  405858:	48 8b 95 40 fd ff ff 	mov    -0x2c0(%rbp),%rdx
  40585f:	48 89 c7             	mov    %rax,%rdi
  405862:	48 89 ce             	mov    %rcx,%rsi
  405865:	e8 06 b9 ff ff       	callq  401170 <memcpy@plt>
  40586a:	e9 45 01 00 00       	jmpq   4059b4 <mbedtls_ssl_derive_keys+0xbb4>
  40586f:	48 8b 85 c0 fe ff ff 	mov    -0x140(%rbp),%rax
  405876:	48 8b 00             	mov    (%rax),%rax
  405879:	8a 88 98 00 00 00    	mov    0x98(%rax),%cl
  40587f:	80 e1 01             	and    $0x1,%cl
  405882:	0f b6 d1             	movzbl %cl,%edx
  405885:	83 fa 01             	cmp    $0x1,%edx
  405888:	0f 85 11 01 00 00    	jne    40599f <mbedtls_ssl_derive_keys+0xb9f>
  40588e:	48 8d 85 70 fd ff ff 	lea    -0x290(%rbp),%rax
  405895:	48 8b 8d 48 fd ff ff 	mov    -0x2b8(%rbp),%rcx
  40589c:	48 c1 e1 01          	shl    $0x1,%rcx
  4058a0:	48 89 c2             	mov    %rax,%rdx
  4058a3:	48 01 ca             	add    %rcx,%rdx
  4058a6:	48 8b 8d 20 fd ff ff 	mov    -0x2e0(%rbp),%rcx
  4058ad:	8b 71 08             	mov    0x8(%rcx),%esi
  4058b0:	89 f1                	mov    %esi,%ecx
  4058b2:	48 01 ca             	add    %rcx,%rdx
  4058b5:	48 89 95 68 fd ff ff 	mov    %rdx,-0x298(%rbp)
  4058bc:	48 8b 8d 48 fd ff ff 	mov    -0x2b8(%rbp),%rcx
  4058c3:	48 c1 e1 01          	shl    $0x1,%rcx
  4058c7:	48 89 c2             	mov    %rax,%rdx
  4058ca:	48 01 ca             	add    %rcx,%rdx
  4058cd:	48 89 95 60 fd ff ff 	mov    %rdx,-0x2a0(%rbp)
  4058d4:	48 89 c1             	mov    %rax,%rcx
  4058d7:	48 03 8d 48 fd ff ff 	add    -0x2b8(%rbp),%rcx
  4058de:	48 89 8d 58 fd ff ff 	mov    %rcx,-0x2a8(%rbp)
  4058e5:	48 89 85 50 fd ff ff 	mov    %rax,-0x2b0(%rbp)
  4058ec:	48 8b 85 20 fd ff ff 	mov    -0x2e0(%rbp),%rax
  4058f3:	48 83 78 20 00       	cmpq   $0x0,0x20(%rax)
  4058f8:	74 14                	je     40590e <mbedtls_ssl_derive_keys+0xb0e>
  4058fa:	48 8b 85 20 fd ff ff 	mov    -0x2e0(%rbp),%rax
  405901:	48 8b 40 20          	mov    0x20(%rax),%rax
  405905:	48 89 85 80 fc ff ff 	mov    %rax,-0x380(%rbp)
  40590c:	eb 12                	jmp    405920 <mbedtls_ssl_derive_keys+0xb20>
  40590e:	48 8b 85 20 fd ff ff 	mov    -0x2e0(%rbp),%rax
  405915:	48 8b 40 18          	mov    0x18(%rax),%rax
  405919:	48 89 85 80 fc ff ff 	mov    %rax,-0x380(%rbp)
  405920:	48 8b 85 80 fc ff ff 	mov    -0x380(%rbp),%rax
  405927:	48 89 85 40 fd ff ff 	mov    %rax,-0x2c0(%rbp)
  40592e:	48 8b 85 20 fd ff ff 	mov    -0x2e0(%rbp),%rax
  405935:	48 83 c0 40          	add    $0x40,%rax
  405939:	48 8b 8d 68 fd ff ff 	mov    -0x298(%rbp),%rcx
  405940:	48 8b 95 20 fd ff ff 	mov    -0x2e0(%rbp),%rdx
  405947:	8b 72 08             	mov    0x8(%rdx),%esi
  40594a:	89 f2                	mov    %esi,%edx
  40594c:	48 01 d1             	add    %rdx,%rcx
  40594f:	48 8b 95 40 fd ff ff 	mov    -0x2c0(%rbp),%rdx
  405956:	48 89 c7             	mov    %rax,%rdi
  405959:	48 89 ce             	mov    %rcx,%rsi
  40595c:	e8 0f b8 ff ff       	callq  401170 <memcpy@plt>
  405961:	48 8b 85 20 fd ff ff 	mov    -0x2e0(%rbp),%rax
  405968:	48 83 c0 30          	add    $0x30,%rax
  40596c:	48 8b 8d 68 fd ff ff 	mov    -0x298(%rbp),%rcx
  405973:	48 8b 95 20 fd ff ff 	mov    -0x2e0(%rbp),%rdx
  40597a:	44 8b 42 08          	mov    0x8(%rdx),%r8d
  40597e:	44 89 c2             	mov    %r8d,%edx
  405981:	48 01 d1             	add    %rdx,%rcx
  405984:	48 03 8d 40 fd ff ff 	add    -0x2c0(%rbp),%rcx
  40598b:	48 8b 95 40 fd ff ff 	mov    -0x2c0(%rbp),%rdx
  405992:	48 89 c7             	mov    %rax,%rdi
  405995:	48 89 ce             	mov    %rcx,%rsi
  405998:	e8 d3 b7 ff ff       	callq  401170 <memcpy@plt>
  40599d:	eb 13                	jmp    4059b2 <mbedtls_ssl_derive_keys+0xbb2>
  40599f:	eb 00                	jmp    4059a1 <mbedtls_ssl_derive_keys+0xba1>
  4059a1:	eb 00                	jmp    4059a3 <mbedtls_ssl_derive_keys+0xba3>
  4059a3:	c7 85 cc fe ff ff 00 	movl   $0xffff9400,-0x134(%rbp)
  4059aa:	94 ff ff 
  4059ad:	e9 f3 04 00 00       	jmpq   405ea5 <mbedtls_ssl_derive_keys+0x10a5>
  4059b2:	eb 00                	jmp    4059b4 <mbedtls_ssl_derive_keys+0xbb4>
  4059b4:	48 8b 85 c0 fe ff ff 	mov    -0x140(%rbp),%rax
  4059bb:	83 78 10 01          	cmpl   $0x1,0x10(%rax)
  4059bf:	7c 68                	jl     405a29 <mbedtls_ssl_derive_keys+0xc29>
  4059c1:	48 83 bd 48 fd ff ff 	cmpq   $0x0,-0x2b8(%rbp)
  4059c8:	00 
  4059c9:	74 5c                	je     405a27 <mbedtls_ssl_derive_keys+0xc27>
  4059cb:	48 8b 85 20 fd ff ff 	mov    -0x2e0(%rbp),%rax
  4059d2:	48 83 c0 50          	add    $0x50,%rax
  4059d6:	48 8b b5 58 fd ff ff 	mov    -0x2a8(%rbp),%rsi
  4059dd:	48 8b 95 48 fd ff ff 	mov    -0x2b8(%rbp),%rdx
  4059e4:	48 89 c7             	mov    %rax,%rdi
  4059e7:	e8 34 58 02 00       	callq  42b220 <mbedtls_md_hmac_starts>
  4059ec:	48 8b 95 20 fd ff ff 	mov    -0x2e0(%rbp),%rdx
  4059f3:	48 83 c2 68          	add    $0x68,%rdx
  4059f7:	48 8b b5 50 fd ff ff 	mov    -0x2b0(%rbp),%rsi
  4059fe:	48 8b bd 48 fd ff ff 	mov    -0x2b8(%rbp),%rdi
  405a05:	48 89 bd 78 fc ff ff 	mov    %rdi,-0x388(%rbp)
  405a0c:	48 89 d7             	mov    %rdx,%rdi
  405a0f:	48 8b 95 78 fc ff ff 	mov    -0x388(%rbp),%rdx
  405a16:	89 85 74 fc ff ff    	mov    %eax,-0x38c(%rbp)
  405a1c:	e8 ff 57 02 00       	callq  42b220 <mbedtls_md_hmac_starts>
  405a21:	89 85 70 fc ff ff    	mov    %eax,-0x390(%rbp)
  405a27:	eb 13                	jmp    405a3c <mbedtls_ssl_derive_keys+0xc3c>
  405a29:	eb 00                	jmp    405a2b <mbedtls_ssl_derive_keys+0xc2b>
  405a2b:	eb 00                	jmp    405a2d <mbedtls_ssl_derive_keys+0xc2d>
  405a2d:	c7 85 cc fe ff ff 00 	movl   $0xffff9400,-0x134(%rbp)
  405a34:	94 ff ff 
  405a37:	e9 69 04 00 00       	jmpq   405ea5 <mbedtls_ssl_derive_keys+0x10a5>
  405a3c:	48 8b 85 20 fd ff ff 	mov    -0x2e0(%rbp),%rax
  405a43:	48 05 80 00 00 00    	add    $0x80,%rax
  405a49:	48 8b 8d 38 fd ff ff 	mov    -0x2c8(%rbp),%rcx
  405a50:	48 89 45 b0          	mov    %rax,-0x50(%rbp)
  405a54:	48 89 4d a8          	mov    %rcx,-0x58(%rbp)
  405a58:	48 83 7d a8 00       	cmpq   $0x0,-0x58(%rbp)
  405a5d:	75 0c                	jne    405a6b <mbedtls_ssl_derive_keys+0xc6b>
  405a5f:	c7 45 b8 00 9f ff ff 	movl   $0xffff9f00,-0x48(%rbp)
  405a66:	e9 b6 00 00 00       	jmpq   405b21 <mbedtls_ssl_derive_keys+0xd21>
  405a6b:	31 f6                	xor    %esi,%esi
  405a6d:	b8 58 00 00 00       	mov    $0x58,%eax
  405a72:	89 c2                	mov    %eax,%edx
  405a74:	48 8b 4d b0          	mov    -0x50(%rbp),%rcx
  405a78:	48 89 cf             	mov    %rcx,%rdi
  405a7b:	e8 a0 b5 ff ff       	callq  401020 <memset@plt>
  405a80:	48 8b 4d a8          	mov    -0x58(%rbp),%rcx
  405a84:	48 8b 49 28          	mov    0x28(%rcx),%rcx
  405a88:	ff 51 28             	callq  *0x28(%rcx)
  405a8b:	31 f6                	xor    %esi,%esi
  405a8d:	89 f1                	mov    %esi,%ecx
  405a8f:	48 8b 55 b0          	mov    -0x50(%rbp),%rdx
  405a93:	48 89 42 50          	mov    %rax,0x50(%rdx)
  405a97:	48 39 c1             	cmp    %rax,%rcx
  405a9a:	75 09                	jne    405aa5 <mbedtls_ssl_derive_keys+0xca5>
  405a9c:	c7 45 b8 80 9e ff ff 	movl   $0xffff9e80,-0x48(%rbp)
  405aa3:	eb 7c                	jmp    405b21 <mbedtls_ssl_derive_keys+0xd21>
  405aa5:	31 c0                	xor    %eax,%eax
  405aa7:	89 c1                	mov    %eax,%ecx
  405aa9:	48 8b 55 a8          	mov    -0x58(%rbp),%rdx
  405aad:	48 8b 75 b0          	mov    -0x50(%rbp),%rsi
  405ab1:	48 89 16             	mov    %rdx,(%rsi)
  405ab4:	48 8b 55 b0          	mov    -0x50(%rbp),%rdx
  405ab8:	48 89 55 c0          	mov    %rdx,-0x40(%rbp)
  405abc:	c7 45 bc 04 00 00 00 	movl   $0x4,-0x44(%rbp)
  405ac3:	48 8b 55 c0          	mov    -0x40(%rbp),%rdx
  405ac7:	48 3b 0a             	cmp    (%rdx),%rcx
  405aca:	74 11                	je     405add <mbedtls_ssl_derive_keys+0xcdd>
  405acc:	48 8b 45 c0          	mov    -0x40(%rbp),%rax
  405ad0:	48 8b 00             	mov    (%rax),%rax
  405ad3:	b9 02 00 00 00       	mov    $0x2,%ecx
  405ad8:	3b 48 04             	cmp    0x4(%rax),%ecx
  405adb:	74 09                	je     405ae6 <mbedtls_ssl_derive_keys+0xce6>
  405add:	c7 45 cc 00 9f ff ff 	movl   $0xffff9f00,-0x34(%rbp)
  405ae4:	eb 34                	jmp    405b1a <mbedtls_ssl_derive_keys+0xd1a>
  405ae6:	83 7d bc 04          	cmpl   $0x4,-0x44(%rbp)
  405aea:	75 27                	jne    405b13 <mbedtls_ssl_derive_keys+0xd13>
  405aec:	48 8b 45 c0          	mov    -0x40(%rbp),%rax
  405af0:	48 c7 40 10 00 00 00 	movq   $0x0,0x10(%rax)
  405af7:	00 
  405af8:	48 8b 45 c0          	mov    -0x40(%rbp),%rax
  405afc:	48 b9 60 68 42 00 00 	movabs $0x426860,%rcx
  405b03:	00 00 00 
  405b06:	48 89 48 18          	mov    %rcx,0x18(%rax)
  405b0a:	c7 45 cc 00 00 00 00 	movl   $0x0,-0x34(%rbp)
  405b11:	eb 07                	jmp    405b1a <mbedtls_ssl_derive_keys+0xd1a>
  405b13:	c7 45 cc 80 9f ff ff 	movl   $0xffff9f80,-0x34(%rbp)
  405b1a:	c7 45 b8 00 00 00 00 	movl   $0x0,-0x48(%rbp)
  405b21:	8b 45 b8             	mov    -0x48(%rbp),%eax
  405b24:	89 85 bc fe ff ff    	mov    %eax,-0x144(%rbp)
  405b2a:	83 f8 00             	cmp    $0x0,%eax
  405b2d:	74 15                	je     405b44 <mbedtls_ssl_derive_keys+0xd44>
  405b2f:	eb 00                	jmp    405b31 <mbedtls_ssl_derive_keys+0xd31>
  405b31:	eb 00                	jmp    405b33 <mbedtls_ssl_derive_keys+0xd33>
  405b33:	8b 85 bc fe ff ff    	mov    -0x144(%rbp),%eax
  405b39:	89 85 cc fe ff ff    	mov    %eax,-0x134(%rbp)
  405b3f:	e9 61 03 00 00       	jmpq   405ea5 <mbedtls_ssl_derive_keys+0x10a5>
  405b44:	48 8b 85 20 fd ff ff 	mov    -0x2e0(%rbp),%rax
  405b4b:	48 05 d8 00 00 00    	add    $0xd8,%rax
  405b51:	48 8b 8d 38 fd ff ff 	mov    -0x2c8(%rbp),%rcx
  405b58:	48 89 45 d8          	mov    %rax,-0x28(%rbp)
  405b5c:	48 89 4d d0          	mov    %rcx,-0x30(%rbp)
  405b60:	48 83 7d d0 00       	cmpq   $0x0,-0x30(%rbp)
  405b65:	75 0c                	jne    405b73 <mbedtls_ssl_derive_keys+0xd73>
  405b67:	c7 45 e0 00 9f ff ff 	movl   $0xffff9f00,-0x20(%rbp)
  405b6e:	e9 b6 00 00 00       	jmpq   405c29 <mbedtls_ssl_derive_keys+0xe29>
  405b73:	31 f6                	xor    %esi,%esi
  405b75:	b8 58 00 00 00       	mov    $0x58,%eax
  405b7a:	89 c2                	mov    %eax,%edx
  405b7c:	48 8b 4d d8          	mov    -0x28(%rbp),%rcx
  405b80:	48 89 cf             	mov    %rcx,%rdi
  405b83:	e8 98 b4 ff ff       	callq  401020 <memset@plt>
  405b88:	48 8b 4d d0          	mov    -0x30(%rbp),%rcx
  405b8c:	48 8b 49 28          	mov    0x28(%rcx),%rcx
  405b90:	ff 51 28             	callq  *0x28(%rcx)
  405b93:	31 f6                	xor    %esi,%esi
  405b95:	89 f1                	mov    %esi,%ecx
  405b97:	48 8b 55 d8          	mov    -0x28(%rbp),%rdx
  405b9b:	48 89 42 50          	mov    %rax,0x50(%rdx)
  405b9f:	48 39 c1             	cmp    %rax,%rcx
  405ba2:	75 09                	jne    405bad <mbedtls_ssl_derive_keys+0xdad>
  405ba4:	c7 45 e0 80 9e ff ff 	movl   $0xffff9e80,-0x20(%rbp)
  405bab:	eb 7c                	jmp    405c29 <mbedtls_ssl_derive_keys+0xe29>
  405bad:	31 c0                	xor    %eax,%eax
  405baf:	89 c1                	mov    %eax,%ecx
  405bb1:	48 8b 55 d0          	mov    -0x30(%rbp),%rdx
  405bb5:	48 8b 75 d8          	mov    -0x28(%rbp),%rsi
  405bb9:	48 89 16             	mov    %rdx,(%rsi)
  405bbc:	48 8b 55 d8          	mov    -0x28(%rbp),%rdx
  405bc0:	48 89 55 e8          	mov    %rdx,-0x18(%rbp)
  405bc4:	c7 45 e4 04 00 00 00 	movl   $0x4,-0x1c(%rbp)
  405bcb:	48 8b 55 e8          	mov    -0x18(%rbp),%rdx
  405bcf:	48 3b 0a             	cmp    (%rdx),%rcx
  405bd2:	74 11                	je     405be5 <mbedtls_ssl_derive_keys+0xde5>
  405bd4:	48 8b 45 e8          	mov    -0x18(%rbp),%rax
  405bd8:	48 8b 00             	mov    (%rax),%rax
  405bdb:	b9 02 00 00 00       	mov    $0x2,%ecx
  405be0:	3b 48 04             	cmp    0x4(%rax),%ecx
  405be3:	74 09                	je     405bee <mbedtls_ssl_derive_keys+0xdee>
  405be5:	c7 45 f4 00 9f ff ff 	movl   $0xffff9f00,-0xc(%rbp)
  405bec:	eb 34                	jmp    405c22 <mbedtls_ssl_derive_keys+0xe22>
  405bee:	83 7d e4 04          	cmpl   $0x4,-0x1c(%rbp)
  405bf2:	75 27                	jne    405c1b <mbedtls_ssl_derive_keys+0xe1b>
  405bf4:	48 8b 45 e8          	mov    -0x18(%rbp),%rax
  405bf8:	48 c7 40 10 00 00 00 	movq   $0x0,0x10(%rax)
  405bff:	00 
  405c00:	48 8b 45 e8          	mov    -0x18(%rbp),%rax
  405c04:	48 b9 60 68 42 00 00 	movabs $0x426860,%rcx
  405c0b:	00 00 00 
  405c0e:	48 89 48 18          	mov    %rcx,0x18(%rax)
  405c12:	c7 45 f4 00 00 00 00 	movl   $0x0,-0xc(%rbp)
  405c19:	eb 07                	jmp    405c22 <mbedtls_ssl_derive_keys+0xe22>
  405c1b:	c7 45 f4 80 9f ff ff 	movl   $0xffff9f80,-0xc(%rbp)
  405c22:	c7 45 e0 00 00 00 00 	movl   $0x0,-0x20(%rbp)
  405c29:	8b 45 e0             	mov    -0x20(%rbp),%eax
  405c2c:	89 85 bc fe ff ff    	mov    %eax,-0x144(%rbp)
  405c32:	83 f8 00             	cmp    $0x0,%eax
  405c35:	74 15                	je     405c4c <mbedtls_ssl_derive_keys+0xe4c>
  405c37:	eb 00                	jmp    405c39 <mbedtls_ssl_derive_keys+0xe39>
  405c39:	eb 00                	jmp    405c3b <mbedtls_ssl_derive_keys+0xe3b>
  405c3b:	8b 85 bc fe ff ff    	mov    -0x144(%rbp),%eax
  405c41:	89 85 cc fe ff ff    	mov    %eax,-0x134(%rbp)
  405c47:	e9 59 02 00 00       	jmpq   405ea5 <mbedtls_ssl_derive_keys+0x10a5>
  405c4c:	48 8b 85 20 fd ff ff 	mov    -0x2e0(%rbp),%rax
  405c53:	48 05 80 00 00 00    	add    $0x80,%rax
  405c59:	48 8b b5 68 fd ff ff 	mov    -0x298(%rbp),%rsi
  405c60:	48 8b 8d 38 fd ff ff 	mov    -0x2c8(%rbp),%rcx
  405c67:	8b 51 08             	mov    0x8(%rcx),%edx
  405c6a:	48 89 c7             	mov    %rax,%rdi
  405c6d:	b9 01 00 00 00       	mov    $0x1,%ecx
  405c72:	e8 49 0c 02 00       	callq  4268c0 <mbedtls_cipher_setkey>
  405c77:	89 85 bc fe ff ff    	mov    %eax,-0x144(%rbp)
  405c7d:	83 f8 00             	cmp    $0x0,%eax
  405c80:	74 15                	je     405c97 <mbedtls_ssl_derive_keys+0xe97>
  405c82:	eb 00                	jmp    405c84 <mbedtls_ssl_derive_keys+0xe84>
  405c84:	eb 00                	jmp    405c86 <mbedtls_ssl_derive_keys+0xe86>
  405c86:	8b 85 bc fe ff ff    	mov    -0x144(%rbp),%eax
  405c8c:	89 85 cc fe ff ff    	mov    %eax,-0x134(%rbp)
  405c92:	e9 0e 02 00 00       	jmpq   405ea5 <mbedtls_ssl_derive_keys+0x10a5>
  405c97:	31 c9                	xor    %ecx,%ecx
  405c99:	48 8b 85 20 fd ff ff 	mov    -0x2e0(%rbp),%rax
  405ca0:	48 05 d8 00 00 00    	add    $0xd8,%rax
  405ca6:	48 8b b5 60 fd ff ff 	mov    -0x2a0(%rbp),%rsi
  405cad:	48 8b 95 38 fd ff ff 	mov    -0x2c8(%rbp),%rdx
  405cb4:	8b 52 08             	mov    0x8(%rdx),%edx
  405cb7:	48 89 c7             	mov    %rax,%rdi
  405cba:	e8 01 0c 02 00       	callq  4268c0 <mbedtls_cipher_setkey>
  405cbf:	89 85 bc fe ff ff    	mov    %eax,-0x144(%rbp)
  405cc5:	83 f8 00             	cmp    $0x0,%eax
  405cc8:	74 15                	je     405cdf <mbedtls_ssl_derive_keys+0xedf>
  405cca:	eb 00                	jmp    405ccc <mbedtls_ssl_derive_keys+0xecc>
  405ccc:	eb 00                	jmp    405cce <mbedtls_ssl_derive_keys+0xece>
  405cce:	8b 85 bc fe ff ff    	mov    -0x144(%rbp),%eax
  405cd4:	89 85 cc fe ff ff    	mov    %eax,-0x134(%rbp)
  405cda:	e9 c6 01 00 00       	jmpq   405ea5 <mbedtls_ssl_derive_keys+0x10a5>
  405cdf:	48 8b 85 38 fd ff ff 	mov    -0x2c8(%rbp),%rax
  405ce6:	83 78 04 02          	cmpl   $0x2,0x4(%rax)
  405cea:	0f 85 6f 01 00 00    	jne    405e5f <mbedtls_ssl_derive_keys+0x105f>
  405cf0:	31 c0                	xor    %eax,%eax
  405cf2:	89 c1                	mov    %eax,%ecx
  405cf4:	48 8b 95 20 fd ff ff 	mov    -0x2e0(%rbp),%rdx
  405cfb:	48 81 c2 80 00 00 00 	add    $0x80,%rdx
  405d02:	48 89 95 20 ff ff ff 	mov    %rdx,-0xe0(%rbp)
  405d09:	c7 85 1c ff ff ff 04 	movl   $0x4,-0xe4(%rbp)
  405d10:	00 00 00 
  405d13:	48 8b 95 20 ff ff ff 	mov    -0xe0(%rbp),%rdx
  405d1a:	48 3b 0a             	cmp    (%rdx),%rcx
  405d1d:	74 14                	je     405d33 <mbedtls_ssl_derive_keys+0xf33>
  405d1f:	48 8b 85 20 ff ff ff 	mov    -0xe0(%rbp),%rax
  405d26:	48 8b 00             	mov    (%rax),%rax
  405d29:	b9 02 00 00 00       	mov    $0x2,%ecx
  405d2e:	3b 48 04             	cmp    0x4(%rax),%ecx
  405d31:	74 0c                	je     405d3f <mbedtls_ssl_derive_keys+0xf3f>
  405d33:	c7 85 2c ff ff ff 00 	movl   $0xffff9f00,-0xd4(%rbp)
  405d3a:	9f ff ff 
  405d3d:	eb 43                	jmp    405d82 <mbedtls_ssl_derive_keys+0xf82>
  405d3f:	83 bd 1c ff ff ff 04 	cmpl   $0x4,-0xe4(%rbp)
  405d46:	75 30                	jne    405d78 <mbedtls_ssl_derive_keys+0xf78>
  405d48:	48 8b 85 20 ff ff ff 	mov    -0xe0(%rbp),%rax
  405d4f:	48 c7 40 10 00 00 00 	movq   $0x0,0x10(%rax)
  405d56:	00 
  405d57:	48 8b 85 20 ff ff ff 	mov    -0xe0(%rbp),%rax
  405d5e:	48 b9 60 68 42 00 00 	movabs $0x426860,%rcx
  405d65:	00 00 00 
  405d68:	48 89 48 18          	mov    %rcx,0x18(%rax)
  405d6c:	c7 85 2c ff ff ff 00 	movl   $0x0,-0xd4(%rbp)
  405d73:	00 00 00 
  405d76:	eb 0a                	jmp    405d82 <mbedtls_ssl_derive_keys+0xf82>
  405d78:	c7 85 2c ff ff ff 80 	movl   $0xffff9f80,-0xd4(%rbp)
  405d7f:	9f ff ff 
  405d82:	8b 85 2c ff ff ff    	mov    -0xd4(%rbp),%eax
  405d88:	89 85 bc fe ff ff    	mov    %eax,-0x144(%rbp)
  405d8e:	83 f8 00             	cmp    $0x0,%eax
  405d91:	74 15                	je     405da8 <mbedtls_ssl_derive_keys+0xfa8>
  405d93:	eb 00                	jmp    405d95 <mbedtls_ssl_derive_keys+0xf95>
  405d95:	eb 00                	jmp    405d97 <mbedtls_ssl_derive_keys+0xf97>
  405d97:	8b 85 bc fe ff ff    	mov    -0x144(%rbp),%eax
  405d9d:	89 85 cc fe ff ff    	mov    %eax,-0x134(%rbp)
  405da3:	e9 fd 00 00 00       	jmpq   405ea5 <mbedtls_ssl_derive_keys+0x10a5>
  405da8:	31 c0                	xor    %eax,%eax
  405daa:	89 c1                	mov    %eax,%ecx
  405dac:	48 8b 95 20 fd ff ff 	mov    -0x2e0(%rbp),%rdx
  405db3:	48 81 c2 d8 00 00 00 	add    $0xd8,%rdx
  405dba:	48 89 95 10 ff ff ff 	mov    %rdx,-0xf0(%rbp)
  405dc1:	c7 85 0c ff ff ff 04 	movl   $0x4,-0xf4(%rbp)
  405dc8:	00 00 00 
  405dcb:	48 8b 95 10 ff ff ff 	mov    -0xf0(%rbp),%rdx
  405dd2:	48 3b 0a             	cmp    (%rdx),%rcx
  405dd5:	74 14                	je     405deb <mbedtls_ssl_derive_keys+0xfeb>
  405dd7:	48 8b 85 10 ff ff ff 	mov    -0xf0(%rbp),%rax
  405dde:	48 8b 00             	mov    (%rax),%rax
  405de1:	b9 02 00 00 00       	mov    $0x2,%ecx
  405de6:	3b 48 04             	cmp    0x4(%rax),%ecx
  405de9:	74 0c                	je     405df7 <mbedtls_ssl_derive_keys+0xff7>
  405deb:	c7 85 18 ff ff ff 00 	movl   $0xffff9f00,-0xe8(%rbp)
  405df2:	9f ff ff 
  405df5:	eb 43                	jmp    405e3a <mbedtls_ssl_derive_keys+0x103a>
  405df7:	83 bd 0c ff ff ff 04 	cmpl   $0x4,-0xf4(%rbp)
  405dfe:	75 30                	jne    405e30 <mbedtls_ssl_derive_keys+0x1030>
  405e00:	48 8b 85 10 ff ff ff 	mov    -0xf0(%rbp),%rax
  405e07:	48 c7 40 10 00 00 00 	movq   $0x0,0x10(%rax)
  405e0e:	00 
  405e0f:	48 8b 85 10 ff ff ff 	mov    -0xf0(%rbp),%rax
  405e16:	48 b9 60 68 42 00 00 	movabs $0x426860,%rcx
  405e1d:	00 00 00 
  405e20:	48 89 48 18          	mov    %rcx,0x18(%rax)
  405e24:	c7 85 18 ff ff ff 00 	movl   $0x0,-0xe8(%rbp)
  405e2b:	00 00 00 
  405e2e:	eb 0a                	jmp    405e3a <mbedtls_ssl_derive_keys+0x103a>
  405e30:	c7 85 18 ff ff ff 80 	movl   $0xffff9f80,-0xe8(%rbp)
  405e37:	9f ff ff 
  405e3a:	8b 85 18 ff ff ff    	mov    -0xe8(%rbp),%eax
  405e40:	89 85 bc fe ff ff    	mov    %eax,-0x144(%rbp)
  405e46:	83 f8 00             	cmp    $0x0,%eax
  405e49:	74 12                	je     405e5d <mbedtls_ssl_derive_keys+0x105d>
  405e4b:	eb 00                	jmp    405e4d <mbedtls_ssl_derive_keys+0x104d>
  405e4d:	eb 00                	jmp    405e4f <mbedtls_ssl_derive_keys+0x104f>
  405e4f:	8b 85 bc fe ff ff    	mov    -0x144(%rbp),%eax
  405e55:	89 85 cc fe ff ff    	mov    %eax,-0x134(%rbp)
  405e5b:	eb 48                	jmp    405ea5 <mbedtls_ssl_derive_keys+0x10a5>
  405e5d:	eb 00                	jmp    405e5f <mbedtls_ssl_derive_keys+0x105f>
  405e5f:	31 f6                	xor    %esi,%esi
  405e61:	48 8d 85 70 fd ff ff 	lea    -0x290(%rbp),%rax
  405e68:	48 89 85 f0 fe ff ff 	mov    %rax,-0x110(%rbp)
  405e6f:	48 c7 85 e8 fe ff ff 	movq   $0x100,-0x118(%rbp)
  405e76:	00 01 00 00 
  405e7a:	48 8b 04 25 70 e3 44 	mov    0x44e370,%rax
  405e81:	00 
  405e82:	48 8b bd f0 fe ff ff 	mov    -0x110(%rbp),%rdi
  405e89:	48 8b 95 e8 fe ff ff 	mov    -0x118(%rbp),%rdx
  405e90:	ff d0                	callq  *%rax
  405e92:	48 89 85 68 fc ff ff 	mov    %rax,-0x398(%rbp)
  405e99:	eb 00                	jmp    405e9b <mbedtls_ssl_derive_keys+0x109b>
  405e9b:	c7 85 cc fe ff ff 00 	movl   $0x0,-0x134(%rbp)
  405ea2:	00 00 00 
  405ea5:	8b 85 cc fe ff ff    	mov    -0x134(%rbp),%eax
  405eab:	89 85 64 fc ff ff    	mov    %eax,-0x39c(%rbp)
  405eb1:	e8 a0 fa 03 00       	callq  445956 <writeback_cache>
  405eb6:	8b 85 64 fc ff ff    	mov    -0x39c(%rbp),%eax
  405ebc:	48 81 c4 a8 03 00 00 	add    $0x3a8,%rsp
  405ec3:	5b                   	pop    %rbx
  405ec4:	5d                   	pop    %rbp
  405ec5:	c3                   	retq   
  405ec6:	66 2e 0f 1f 84 00 00 	nopw   %cs:0x0(%rax,%rax,1)
  405ecd:	00 00 00 

0000000000405ed0 <tls1_prf>:
  405ed0:	55                   	push   %rbp
  405ed1:	48 89 e5             	mov    %rsp,%rbp
  405ed4:	41 56                	push   %r14
  405ed6:	53                   	push   %rbx
  405ed7:	48 81 ec 90 03 00 00 	sub    $0x390,%rsp
  405ede:	48 8b 45 10          	mov    0x10(%rbp),%rax
  405ee2:	41 ba 80 00 00 00    	mov    $0x80,%r10d
  405ee8:	45 89 d3             	mov    %r10d,%r11d
  405eeb:	45 31 d2             	xor    %r10d,%r10d
  405eee:	bb 18 00 00 00       	mov    $0x18,%ebx
  405ef3:	41 89 de             	mov    %ebx,%r14d
  405ef6:	48 89 bd 20 fe ff ff 	mov    %rdi,-0x1e0(%rbp)
  405efd:	48 89 b5 18 fe ff ff 	mov    %rsi,-0x1e8(%rbp)
  405f04:	48 89 95 10 fe ff ff 	mov    %rdx,-0x1f0(%rbp)
  405f0b:	48 89 8d 08 fe ff ff 	mov    %rcx,-0x1f8(%rbp)
  405f12:	4c 89 85 00 fe ff ff 	mov    %r8,-0x200(%rbp)
  405f19:	4c 89 8d f8 fd ff ff 	mov    %r9,-0x208(%rbp)
  405f20:	48 8d 8d 00 fd ff ff 	lea    -0x300(%rbp),%rcx
  405f27:	48 89 8d 30 fe ff ff 	mov    %rcx,-0x1d0(%rbp)
  405f2e:	48 8b 8d 30 fe ff ff 	mov    -0x1d0(%rbp),%rcx
  405f35:	48 89 cf             	mov    %rcx,%rdi
  405f38:	44 89 d6             	mov    %r10d,%esi
  405f3b:	4c 89 f2             	mov    %r14,%rdx
  405f3e:	48 89 85 f0 fc ff ff 	mov    %rax,-0x310(%rbp)
  405f45:	4c 89 9d e8 fc ff ff 	mov    %r11,-0x318(%rbp)
  405f4c:	e8 cf b0 ff ff       	callq  401020 <memset@plt>
  405f51:	48 8b bd 10 fe ff ff 	mov    -0x1f0(%rbp),%rdi
  405f58:	e8 73 b1 ff ff       	callq  4010d0 <strlen@plt>
  405f5d:	48 83 c0 14          	add    $0x14,%rax
  405f61:	48 03 85 00 fe ff ff 	add    -0x200(%rbp),%rax
  405f68:	48 8b 8d e8 fc ff ff 	mov    -0x318(%rbp),%rcx
  405f6f:	48 39 c1             	cmp    %rax,%rcx
  405f72:	73 0f                	jae    405f83 <tls1_prf+0xb3>
  405f74:	c7 85 2c fe ff ff 00 	movl   $0xffff8f00,-0x1d4(%rbp)
  405f7b:	8f ff ff 
  405f7e:	e9 2b 0d 00 00       	jmpq   406cae <tls1_prf+0xdde>
  405f83:	48 8b 85 18 fe ff ff 	mov    -0x1e8(%rbp),%rax
  405f8a:	48 83 c0 01          	add    $0x1,%rax
  405f8e:	48 d1 e8             	shr    %rax
  405f91:	48 89 85 e8 fd ff ff 	mov    %rax,-0x218(%rbp)
  405f98:	48 8b 85 20 fe ff ff 	mov    -0x1e0(%rbp),%rax
  405f9f:	48 89 85 c8 fd ff ff 	mov    %rax,-0x238(%rbp)
  405fa6:	48 8b 85 20 fe ff ff 	mov    -0x1e0(%rbp),%rax
  405fad:	48 8b 8d 18 fe ff ff 	mov    -0x1e8(%rbp),%rcx
  405fb4:	48 01 c8             	add    %rcx,%rax
  405fb7:	48 8b 8d e8 fd ff ff 	mov    -0x218(%rbp),%rcx
  405fbe:	48 29 c8             	sub    %rcx,%rax
  405fc1:	48 89 85 c0 fd ff ff 	mov    %rax,-0x240(%rbp)
  405fc8:	48 8b bd 10 fe ff ff 	mov    -0x1f0(%rbp),%rdi
  405fcf:	e8 fc b0 ff ff       	callq  4010d0 <strlen@plt>
  405fd4:	48 89 85 f0 fd ff ff 	mov    %rax,-0x210(%rbp)
  405fdb:	48 8d bd 54 fd ff ff 	lea    -0x2ac(%rbp),%rdi
  405fe2:	48 8b b5 10 fe ff ff 	mov    -0x1f0(%rbp),%rsi
  405fe9:	48 8b 95 f0 fd ff ff 	mov    -0x210(%rbp),%rdx
  405ff0:	e8 7b b1 ff ff       	callq  401170 <memcpy@plt>
  405ff5:	48 8b 8d f0 fd ff ff 	mov    -0x210(%rbp),%rcx
  405ffc:	48 8d bc 0d 54 fd ff 	lea    -0x2ac(%rbp,%rcx,1),%rdi
  406003:	ff 
  406004:	48 8b b5 08 fe ff ff 	mov    -0x1f8(%rbp),%rsi
  40600b:	48 8b 95 00 fe ff ff 	mov    -0x200(%rbp),%rdx
  406012:	48 89 85 e0 fc ff ff 	mov    %rax,-0x320(%rbp)
  406019:	e8 52 b1 ff ff       	callq  401170 <memcpy@plt>
  40601e:	48 8b 8d 00 fe ff ff 	mov    -0x200(%rbp),%rcx
  406025:	48 8b 95 f0 fd ff ff 	mov    -0x210(%rbp),%rdx
  40602c:	48 01 ca             	add    %rcx,%rdx
  40602f:	48 89 95 f0 fd ff ff 	mov    %rdx,-0x210(%rbp)
  406036:	c7 85 4c fe ff ff 03 	movl   $0x3,-0x1b4(%rbp)
  40603d:	00 00 00 
  406040:	44 8b 85 4c fe ff ff 	mov    -0x1b4(%rbp),%r8d
  406047:	41 83 c0 fd          	add    $0xfffffffd,%r8d
  40604b:	44 89 c1             	mov    %r8d,%ecx
  40604e:	41 83 e8 03          	sub    $0x3,%r8d
  406052:	48 89 85 d8 fc ff ff 	mov    %rax,-0x328(%rbp)
  406059:	48 89 8d d0 fc ff ff 	mov    %rcx,-0x330(%rbp)
  406060:	44 89 85 cc fc ff ff 	mov    %r8d,-0x334(%rbp)
  406067:	77 5d                	ja     4060c6 <tls1_prf+0x1f6>
  406069:	48 8b 85 d0 fc ff ff 	mov    -0x330(%rbp),%rax
  406070:	48 8b 0c c5 b8 6b 44 	mov    0x446bb8(,%rax,8),%rcx
  406077:	00 
  406078:	ff e1                	jmpq   *%rcx
  40607a:	48 b8 50 d9 44 00 00 	movabs $0x44d950,%rax
  406081:	00 00 00 
  406084:	48 89 85 50 fe ff ff 	mov    %rax,-0x1b0(%rbp)
  40608b:	eb 44                	jmp    4060d1 <tls1_prf+0x201>
  40608d:	48 b8 b0 d9 44 00 00 	movabs $0x44d9b0,%rax
  406094:	00 00 00 
  406097:	48 89 85 50 fe ff ff 	mov    %rax,-0x1b0(%rbp)
  40609e:	eb 31                	jmp    4060d1 <tls1_prf+0x201>
  4060a0:	48 b8 10 da 44 00 00 	movabs $0x44da10,%rax
  4060a7:	00 00 00 
  4060aa:	48 89 85 50 fe ff ff 	mov    %rax,-0x1b0(%rbp)
  4060b1:	eb 1e                	jmp    4060d1 <tls1_prf+0x201>
  4060b3:	48 b8 70 da 44 00 00 	movabs $0x44da70,%rax
  4060ba:	00 00 00 
  4060bd:	48 89 85 50 fe ff ff 	mov    %rax,-0x1b0(%rbp)
  4060c4:	eb 0b                	jmp    4060d1 <tls1_prf+0x201>
  4060c6:	48 c7 85 50 fe ff ff 	movq   $0x0,-0x1b0(%rbp)
  4060cd:	00 00 00 00 
  4060d1:	48 8b 85 50 fe ff ff 	mov    -0x1b0(%rbp),%rax
  4060d8:	48 89 85 18 fd ff ff 	mov    %rax,-0x2e8(%rbp)
  4060df:	48 83 f8 00          	cmp    $0x0,%rax
  4060e3:	75 0f                	jne    4060f4 <tls1_prf+0x224>
  4060e5:	c7 85 2c fe ff ff 00 	movl   $0xffff9400,-0x1d4(%rbp)
  4060ec:	94 ff ff 
  4060ef:	e9 ba 0b 00 00       	jmpq   406cae <tls1_prf+0xdde>
  4060f4:	48 8b 85 18 fd ff ff 	mov    -0x2e8(%rbp),%rax
  4060fb:	48 8d 8d 00 fd ff ff 	lea    -0x300(%rbp),%rcx
  406102:	48 89 8d 78 fe ff ff 	mov    %rcx,-0x188(%rbp)
  406109:	48 89 85 70 fe ff ff 	mov    %rax,-0x190(%rbp)
  406110:	c7 85 6c fe ff ff 01 	movl   $0x1,-0x194(%rbp)
  406117:	00 00 00 
  40611a:	48 83 bd 70 fe ff ff 	cmpq   $0x0,-0x190(%rbp)
  406121:	00 
  406122:	74 0a                	je     40612e <tls1_prf+0x25e>
  406124:	48 83 bd 78 fe ff ff 	cmpq   $0x0,-0x188(%rbp)
  40612b:	00 
  40612c:	75 0f                	jne    40613d <tls1_prf+0x26d>
  40612e:	c7 85 84 fe ff ff 00 	movl   $0xffffaf00,-0x17c(%rbp)
  406135:	af ff ff 
  406138:	e9 a1 00 00 00       	jmpq   4061de <tls1_prf+0x30e>
  40613d:	48 8b 85 70 fe ff ff 	mov    -0x190(%rbp),%rax
  406144:	ff 50 38             	callq  *0x38(%rax)
  406147:	48 8b 8d 78 fe ff ff 	mov    -0x188(%rbp),%rcx
  40614e:	48 89 41 08          	mov    %rax,0x8(%rcx)
  406152:	48 83 f8 00          	cmp    $0x0,%rax
  406156:	75 0c                	jne    406164 <tls1_prf+0x294>
  406158:	c7 85 84 fe ff ff 80 	movl   $0xffffae80,-0x17c(%rbp)
  40615f:	ae ff ff 
  406162:	eb 7a                	jmp    4061de <tls1_prf+0x30e>
  406164:	83 bd 6c fe ff ff 00 	cmpl   $0x0,-0x194(%rbp)
  40616b:	74 56                	je     4061c3 <tls1_prf+0x2f3>
  40616d:	b8 02 00 00 00       	mov    $0x2,%eax
  406172:	89 c7                	mov    %eax,%edi
  406174:	48 8b 8d 70 fe ff ff 	mov    -0x190(%rbp),%rcx
  40617b:	48 63 71 14          	movslq 0x14(%rcx),%rsi
  40617f:	e8 66 06 04 00       	callq  4467ea <aes_calloc>
  406184:	48 8b 8d 78 fe ff ff 	mov    -0x188(%rbp),%rcx
  40618b:	48 89 41 10          	mov    %rax,0x10(%rcx)
  40618f:	48 8b 85 78 fe ff ff 	mov    -0x188(%rbp),%rax
  406196:	48 83 78 10 00       	cmpq   $0x0,0x10(%rax)
  40619b:	75 24                	jne    4061c1 <tls1_prf+0x2f1>
  40619d:	48 8b 85 70 fe ff ff 	mov    -0x190(%rbp),%rax
  4061a4:	48 8b 40 40          	mov    0x40(%rax),%rax
  4061a8:	48 8b 8d 78 fe ff ff 	mov    -0x188(%rbp),%rcx
  4061af:	48 8b 79 08          	mov    0x8(%rcx),%rdi
  4061b3:	ff d0                	callq  *%rax
  4061b5:	c7 85 84 fe ff ff 80 	movl   $0xffffae80,-0x17c(%rbp)
  4061bc:	ae ff ff 
  4061bf:	eb 1d                	jmp    4061de <tls1_prf+0x30e>
  4061c1:	eb 00                	jmp    4061c3 <tls1_prf+0x2f3>
  4061c3:	48 8b 85 70 fe ff ff 	mov    -0x190(%rbp),%rax
  4061ca:	48 8b 8d 78 fe ff ff 	mov    -0x188(%rbp),%rcx
  4061d1:	48 89 01             	mov    %rax,(%rcx)
  4061d4:	c7 85 84 fe ff ff 00 	movl   $0x0,-0x17c(%rbp)
  4061db:	00 00 00 
  4061de:	8b 85 84 fe ff ff    	mov    -0x17c(%rbp),%eax
  4061e4:	89 85 fc fc ff ff    	mov    %eax,-0x304(%rbp)
  4061ea:	83 f8 00             	cmp    $0x0,%eax
  4061ed:	74 11                	je     406200 <tls1_prf+0x330>
  4061ef:	8b 85 fc fc ff ff    	mov    -0x304(%rbp),%eax
  4061f5:	89 85 2c fe ff ff    	mov    %eax,-0x1d4(%rbp)
  4061fb:	e9 ae 0a 00 00       	jmpq   406cae <tls1_prf+0xdde>
  406200:	48 8b b5 c8 fd ff ff 	mov    -0x238(%rbp),%rsi
  406207:	48 8b 95 e8 fd ff ff 	mov    -0x218(%rbp),%rdx
  40620e:	48 8d bd 00 fd ff ff 	lea    -0x300(%rbp),%rdi
  406215:	e8 06 50 02 00       	callq  42b220 <mbedtls_md_hmac_starts>
  40621a:	48 8d 95 40 fd ff ff 	lea    -0x2c0(%rbp),%rdx
  406221:	48 83 c2 14          	add    $0x14,%rdx
  406225:	48 8b b5 f0 fd ff ff 	mov    -0x210(%rbp),%rsi
  40622c:	48 8d bd 00 fd ff ff 	lea    -0x300(%rbp),%rdi
  406233:	48 89 bd 98 fe ff ff 	mov    %rdi,-0x168(%rbp)
  40623a:	48 89 95 90 fe ff ff 	mov    %rdx,-0x170(%rbp)
  406241:	48 89 b5 88 fe ff ff 	mov    %rsi,-0x178(%rbp)
  406248:	48 83 bd 98 fe ff ff 	cmpq   $0x0,-0x168(%rbp)
  40624f:	00 
  406250:	89 85 c8 fc ff ff    	mov    %eax,-0x338(%rbp)
  406256:	74 1b                	je     406273 <tls1_prf+0x3a3>
  406258:	48 8b 85 98 fe ff ff 	mov    -0x168(%rbp),%rax
  40625f:	48 83 38 00          	cmpq   $0x0,(%rax)
  406263:	74 0e                	je     406273 <tls1_prf+0x3a3>
  406265:	48 8b 85 98 fe ff ff 	mov    -0x168(%rbp),%rax
  40626c:	48 83 78 10 00       	cmpq   $0x0,0x10(%rax)
  406271:	75 0c                	jne    40627f <tls1_prf+0x3af>
  406273:	c7 85 a4 fe ff ff 00 	movl   $0xffffaf00,-0x15c(%rbp)
  40627a:	af ff ff 
  40627d:	eb 2f                	jmp    4062ae <tls1_prf+0x3de>
  40627f:	48 8b 85 98 fe ff ff 	mov    -0x168(%rbp),%rax
  406286:	48 8b 00             	mov    (%rax),%rax
  406289:	48 8b 40 20          	mov    0x20(%rax),%rax
  40628d:	48 8b 8d 98 fe ff ff 	mov    -0x168(%rbp),%rcx
  406294:	48 8b 79 08          	mov    0x8(%rcx),%rdi
  406298:	48 8b b5 90 fe ff ff 	mov    -0x170(%rbp),%rsi
  40629f:	48 8b 95 88 fe ff ff 	mov    -0x178(%rbp),%rdx
  4062a6:	ff d0                	callq  *%rax
  4062a8:	89 85 a4 fe ff ff    	mov    %eax,-0x15c(%rbp)
  4062ae:	48 8d 85 40 fd ff ff 	lea    -0x2c0(%rbp),%rax
  4062b5:	48 83 c0 04          	add    $0x4,%rax
  4062b9:	48 8d bd 00 fd ff ff 	lea    -0x300(%rbp),%rdi
  4062c0:	48 89 c6             	mov    %rax,%rsi
  4062c3:	e8 18 52 02 00       	callq  42b4e0 <mbedtls_md_hmac_finish>
  4062c8:	48 c7 85 e0 fd ff ff 	movq   $0x0,-0x220(%rbp)
  4062cf:	00 00 00 00 
  4062d3:	89 85 c4 fc ff ff    	mov    %eax,-0x33c(%rbp)
  4062d9:	48 8b 85 e0 fd ff ff 	mov    -0x220(%rbp),%rax
  4062e0:	48 3b 45 10          	cmp    0x10(%rbp),%rax
  4062e4:	0f 83 7a 03 00 00    	jae    406664 <tls1_prf+0x794>
  4062ea:	48 8d 85 00 fd ff ff 	lea    -0x300(%rbp),%rax
  4062f1:	48 89 85 b8 fe ff ff 	mov    %rax,-0x148(%rbp)
  4062f8:	48 83 bd b8 fe ff ff 	cmpq   $0x0,-0x148(%rbp)
  4062ff:	00 
  406300:	74 1b                	je     40631d <tls1_prf+0x44d>
  406302:	48 8b 85 b8 fe ff ff 	mov    -0x148(%rbp),%rax
  406309:	48 83 38 00          	cmpq   $0x0,(%rax)
  40630d:	74 0e                	je     40631d <tls1_prf+0x44d>
  40630f:	48 8b 85 b8 fe ff ff 	mov    -0x148(%rbp),%rax
  406316:	48 83 78 10 00       	cmpq   $0x0,0x10(%rax)
  40631b:	75 0c                	jne    406329 <tls1_prf+0x459>
  40631d:	c7 85 c4 fe ff ff 00 	movl   $0xffffaf00,-0x13c(%rbp)
  406324:	af ff ff 
  406327:	eb 7c                	jmp    4063a5 <tls1_prf+0x4d5>
  406329:	48 8b 85 b8 fe ff ff 	mov    -0x148(%rbp),%rax
  406330:	48 8b 40 10          	mov    0x10(%rax),%rax
  406334:	48 89 85 a8 fe ff ff 	mov    %rax,-0x158(%rbp)
  40633b:	48 8b 85 b8 fe ff ff 	mov    -0x148(%rbp),%rax
  406342:	48 8b 00             	mov    (%rax),%rax
  406345:	48 8b 40 18          	mov    0x18(%rax),%rax
  406349:	48 8b 8d b8 fe ff ff 	mov    -0x148(%rbp),%rcx
  406350:	48 8b 79 08          	mov    0x8(%rcx),%rdi
  406354:	ff d0                	callq  *%rax
  406356:	89 85 b4 fe ff ff    	mov    %eax,-0x14c(%rbp)
  40635c:	83 f8 00             	cmp    $0x0,%eax
  40635f:	74 0e                	je     40636f <tls1_prf+0x49f>
  406361:	8b 85 b4 fe ff ff    	mov    -0x14c(%rbp),%eax
  406367:	89 85 c4 fe ff ff    	mov    %eax,-0x13c(%rbp)
  40636d:	eb 36                	jmp    4063a5 <tls1_prf+0x4d5>
  40636f:	48 8b 85 b8 fe ff ff 	mov    -0x148(%rbp),%rax
  406376:	48 8b 00             	mov    (%rax),%rax
  406379:	48 8b 40 20          	mov    0x20(%rax),%rax
  40637d:	48 8b 8d b8 fe ff ff 	mov    -0x148(%rbp),%rcx
  406384:	48 8b 79 08          	mov    0x8(%rcx),%rdi
  406388:	48 8b b5 a8 fe ff ff 	mov    -0x158(%rbp),%rsi
  40638f:	48 8b 8d b8 fe ff ff 	mov    -0x148(%rbp),%rcx
  406396:	48 8b 09             	mov    (%rcx),%rcx
  406399:	48 63 51 14          	movslq 0x14(%rcx),%rdx
  40639d:	ff d0                	callq  *%rax
  40639f:	89 85 c4 fe ff ff    	mov    %eax,-0x13c(%rbp)
  4063a5:	48 8d 85 40 fd ff ff 	lea    -0x2c0(%rbp),%rax
  4063ac:	48 83 c0 04          	add    $0x4,%rax
  4063b0:	48 8b 8d f0 fd ff ff 	mov    -0x210(%rbp),%rcx
  4063b7:	48 83 c1 10          	add    $0x10,%rcx
  4063bb:	48 8d 95 00 fd ff ff 	lea    -0x300(%rbp),%rdx
  4063c2:	48 89 95 d8 fe ff ff 	mov    %rdx,-0x128(%rbp)
  4063c9:	48 89 85 d0 fe ff ff 	mov    %rax,-0x130(%rbp)
  4063d0:	48 89 8d c8 fe ff ff 	mov    %rcx,-0x138(%rbp)
  4063d7:	48 83 bd d8 fe ff ff 	cmpq   $0x0,-0x128(%rbp)
  4063de:	00 
  4063df:	74 1b                	je     4063fc <tls1_prf+0x52c>
  4063e1:	48 8b 85 d8 fe ff ff 	mov    -0x128(%rbp),%rax
  4063e8:	48 83 38 00          	cmpq   $0x0,(%rax)
  4063ec:	74 0e                	je     4063fc <tls1_prf+0x52c>
  4063ee:	48 8b 85 d8 fe ff ff 	mov    -0x128(%rbp),%rax
  4063f5:	48 83 78 10 00       	cmpq   $0x0,0x10(%rax)
  4063fa:	75 0c                	jne    406408 <tls1_prf+0x538>
  4063fc:	c7 85 e4 fe ff ff 00 	movl   $0xffffaf00,-0x11c(%rbp)
  406403:	af ff ff 
  406406:	eb 2f                	jmp    406437 <tls1_prf+0x567>
  406408:	48 8b 85 d8 fe ff ff 	mov    -0x128(%rbp),%rax
  40640f:	48 8b 00             	mov    (%rax),%rax
  406412:	48 8b 40 20          	mov    0x20(%rax),%rax
  406416:	48 8b 8d d8 fe ff ff 	mov    -0x128(%rbp),%rcx
  40641d:	48 8b 79 08          	mov    0x8(%rcx),%rdi
  406421:	48 8b b5 d0 fe ff ff 	mov    -0x130(%rbp),%rsi
  406428:	48 8b 95 c8 fe ff ff 	mov    -0x138(%rbp),%rdx
  40642f:	ff d0                	callq  *%rax
  406431:	89 85 e4 fe ff ff    	mov    %eax,-0x11c(%rbp)
  406437:	48 8d b5 20 fd ff ff 	lea    -0x2e0(%rbp),%rsi
  40643e:	48 8d bd 00 fd ff ff 	lea    -0x300(%rbp),%rdi
  406445:	e8 96 50 02 00       	callq  42b4e0 <mbedtls_md_hmac_finish>
  40644a:	48 8d b5 00 fd ff ff 	lea    -0x300(%rbp),%rsi
  406451:	48 89 b5 f8 fe ff ff 	mov    %rsi,-0x108(%rbp)
  406458:	48 83 bd f8 fe ff ff 	cmpq   $0x0,-0x108(%rbp)
  40645f:	00 
  406460:	89 85 c0 fc ff ff    	mov    %eax,-0x340(%rbp)
  406466:	74 1b                	je     406483 <tls1_prf+0x5b3>
  406468:	48 8b 85 f8 fe ff ff 	mov    -0x108(%rbp),%rax
  40646f:	48 83 38 00          	cmpq   $0x0,(%rax)
  406473:	74 0e                	je     406483 <tls1_prf+0x5b3>
  406475:	48 8b 85 f8 fe ff ff 	mov    -0x108(%rbp),%rax
  40647c:	48 83 78 10 00       	cmpq   $0x0,0x10(%rax)
  406481:	75 0c                	jne    40648f <tls1_prf+0x5bf>
  406483:	c7 85 04 ff ff ff 00 	movl   $0xffffaf00,-0xfc(%rbp)
  40648a:	af ff ff 
  40648d:	eb 7c                	jmp    40650b <tls1_prf+0x63b>
  40648f:	48 8b 85 f8 fe ff ff 	mov    -0x108(%rbp),%rax
  406496:	48 8b 40 10          	mov    0x10(%rax),%rax
  40649a:	48 89 85 e8 fe ff ff 	mov    %rax,-0x118(%rbp)
  4064a1:	48 8b 85 f8 fe ff ff 	mov    -0x108(%rbp),%rax
  4064a8:	48 8b 00             	mov    (%rax),%rax
  4064ab:	48 8b 40 18          	mov    0x18(%rax),%rax
  4064af:	48 8b 8d f8 fe ff ff 	mov    -0x108(%rbp),%rcx
  4064b6:	48 8b 79 08          	mov    0x8(%rcx),%rdi
  4064ba:	ff d0                	callq  *%rax
  4064bc:	89 85 f4 fe ff ff    	mov    %eax,-0x10c(%rbp)
  4064c2:	83 f8 00             	cmp    $0x0,%eax
  4064c5:	74 0e                	je     4064d5 <tls1_prf+0x605>
  4064c7:	8b 85 f4 fe ff ff    	mov    -0x10c(%rbp),%eax
  4064cd:	89 85 04 ff ff ff    	mov    %eax,-0xfc(%rbp)
  4064d3:	eb 36                	jmp    40650b <tls1_prf+0x63b>
  4064d5:	48 8b 85 f8 fe ff ff 	mov    -0x108(%rbp),%rax
  4064dc:	48 8b 00             	mov    (%rax),%rax
  4064df:	48 8b 40 20          	mov    0x20(%rax),%rax
  4064e3:	48 8b 8d f8 fe ff ff 	mov    -0x108(%rbp),%rcx
  4064ea:	48 8b 79 08          	mov    0x8(%rcx),%rdi
  4064ee:	48 8b b5 e8 fe ff ff 	mov    -0x118(%rbp),%rsi
  4064f5:	48 8b 8d f8 fe ff ff 	mov    -0x108(%rbp),%rcx
  4064fc:	48 8b 09             	mov    (%rcx),%rcx
  4064ff:	48 63 51 14          	movslq 0x14(%rcx),%rdx
  406503:	ff d0                	callq  *%rax
  406505:	89 85 04 ff ff ff    	mov    %eax,-0xfc(%rbp)
  40650b:	48 8d 85 40 fd ff ff 	lea    -0x2c0(%rbp),%rax
  406512:	48 83 c0 04          	add    $0x4,%rax
  406516:	48 8d 8d 00 fd ff ff 	lea    -0x300(%rbp),%rcx
  40651d:	48 89 8d 18 ff ff ff 	mov    %rcx,-0xe8(%rbp)
  406524:	48 89 85 10 ff ff ff 	mov    %rax,-0xf0(%rbp)
  40652b:	48 c7 85 08 ff ff ff 	movq   $0x10,-0xf8(%rbp)
  406532:	10 00 00 00 
  406536:	48 83 bd 18 ff ff ff 	cmpq   $0x0,-0xe8(%rbp)
  40653d:	00 
  40653e:	74 1b                	je     40655b <tls1_prf+0x68b>
  406540:	48 8b 85 18 ff ff ff 	mov    -0xe8(%rbp),%rax
  406547:	48 83 38 00          	cmpq   $0x0,(%rax)
  40654b:	74 0e                	je     40655b <tls1_prf+0x68b>
  40654d:	48 8b 85 18 ff ff ff 	mov    -0xe8(%rbp),%rax
  406554:	48 83 78 10 00       	cmpq   $0x0,0x10(%rax)
  406559:	75 0c                	jne    406567 <tls1_prf+0x697>
  40655b:	c7 85 20 ff ff ff 00 	movl   $0xffffaf00,-0xe0(%rbp)
  406562:	af ff ff 
  406565:	eb 2f                	jmp    406596 <tls1_prf+0x6c6>
  406567:	48 8b 85 18 ff ff ff 	mov    -0xe8(%rbp),%rax
  40656e:	48 8b 00             	mov    (%rax),%rax
  406571:	48 8b 40 20          	mov    0x20(%rax),%rax
  406575:	48 8b 8d 18 ff ff ff 	mov    -0xe8(%rbp),%rcx
  40657c:	48 8b 79 08          	mov    0x8(%rcx),%rdi
  406580:	48 8b b5 10 ff ff ff 	mov    -0xf0(%rbp),%rsi
  406587:	48 8b 95 08 ff ff ff 	mov    -0xf8(%rbp),%rdx
  40658e:	ff d0                	callq  *%rax
  406590:	89 85 20 ff ff ff    	mov    %eax,-0xe0(%rbp)
  406596:	48 8d 85 40 fd ff ff 	lea    -0x2c0(%rbp),%rax
  40659d:	48 83 c0 04          	add    $0x4,%rax
  4065a1:	48 8d bd 00 fd ff ff 	lea    -0x300(%rbp),%rdi
  4065a8:	48 89 c6             	mov    %rax,%rsi
  4065ab:	e8 30 4f 02 00       	callq  42b4e0 <mbedtls_md_hmac_finish>
  4065b0:	48 8b b5 e0 fd ff ff 	mov    -0x220(%rbp),%rsi
  4065b7:	48 83 c6 10          	add    $0x10,%rsi
  4065bb:	48 3b 75 10          	cmp    0x10(%rbp),%rsi
  4065bf:	89 85 bc fc ff ff    	mov    %eax,-0x344(%rbp)
  4065c5:	76 11                	jbe    4065d8 <tls1_prf+0x708>
  4065c7:	48 8b 45 10          	mov    0x10(%rbp),%rax
  4065cb:	48 83 e0 0f          	and    $0xf,%rax
  4065cf:	48 89 85 b0 fc ff ff 	mov    %rax,-0x350(%rbp)
  4065d6:	eb 10                	jmp    4065e8 <tls1_prf+0x718>
  4065d8:	b8 10 00 00 00       	mov    $0x10,%eax
  4065dd:	89 c1                	mov    %eax,%ecx
  4065df:	48 89 8d b0 fc ff ff 	mov    %rcx,-0x350(%rbp)
  4065e6:	eb 00                	jmp    4065e8 <tls1_prf+0x718>
  4065e8:	48 8b 85 b0 fc ff ff 	mov    -0x350(%rbp),%rax
  4065ef:	48 89 85 d0 fd ff ff 	mov    %rax,-0x230(%rbp)
  4065f6:	48 c7 85 d8 fd ff ff 	movq   $0x0,-0x228(%rbp)
  4065fd:	00 00 00 00 
  406601:	48 8b 85 d8 fd ff ff 	mov    -0x228(%rbp),%rax
  406608:	48 3b 85 d0 fd ff ff 	cmp    -0x230(%rbp),%rax
  40660f:	73 3a                	jae    40664b <tls1_prf+0x77b>
  406611:	48 8b 85 d8 fd ff ff 	mov    -0x228(%rbp),%rax
  406618:	8a 8c 05 20 fd ff ff 	mov    -0x2e0(%rbp,%rax,1),%cl
  40661f:	48 8b 85 f8 fd ff ff 	mov    -0x208(%rbp),%rax
  406626:	48 8b 95 e0 fd ff ff 	mov    -0x220(%rbp),%rdx
  40662d:	48 03 95 d8 fd ff ff 	add    -0x228(%rbp),%rdx
  406634:	88 0c 10             	mov    %cl,(%rax,%rdx,1)
  406637:	48 8b 85 d8 fd ff ff 	mov    -0x228(%rbp),%rax
  40663e:	48 83 c0 01          	add    $0x1,%rax
  406642:	48 89 85 d8 fd ff ff 	mov    %rax,-0x228(%rbp)
  406649:	eb b6                	jmp    406601 <tls1_prf+0x731>
  40664b:	eb 00                	jmp    40664d <tls1_prf+0x77d>
  40664d:	48 8b 85 e0 fd ff ff 	mov    -0x220(%rbp),%rax
  406654:	48 83 c0 10          	add    $0x10,%rax
  406658:	48 89 85 e0 fd ff ff 	mov    %rax,-0x220(%rbp)
  40665f:	e9 75 fc ff ff       	jmpq   4062d9 <tls1_prf+0x409>
  406664:	48 8d bd 00 fd ff ff 	lea    -0x300(%rbp),%rdi
  40666b:	e8 f0 48 02 00       	callq  42af60 <mbedtls_md_free>
  406670:	c7 85 24 ff ff ff 04 	movl   $0x4,-0xdc(%rbp)
  406677:	00 00 00 
  40667a:	8b 85 24 ff ff ff    	mov    -0xdc(%rbp),%eax
  406680:	83 c0 fd             	add    $0xfffffffd,%eax
  406683:	89 c7                	mov    %eax,%edi
  406685:	83 e8 03             	sub    $0x3,%eax
  406688:	48 89 bd a8 fc ff ff 	mov    %rdi,-0x358(%rbp)
  40668f:	89 85 a4 fc ff ff    	mov    %eax,-0x35c(%rbp)
  406695:	77 5d                	ja     4066f4 <tls1_prf+0x824>
  406697:	48 8b 85 a8 fc ff ff 	mov    -0x358(%rbp),%rax
  40669e:	48 8b 0c c5 d8 6b 44 	mov    0x446bd8(,%rax,8),%rcx
  4066a5:	00 
  4066a6:	ff e1                	jmpq   *%rcx
  4066a8:	48 b8 50 d9 44 00 00 	movabs $0x44d950,%rax
  4066af:	00 00 00 
  4066b2:	48 89 85 28 ff ff ff 	mov    %rax,-0xd8(%rbp)
  4066b9:	eb 44                	jmp    4066ff <tls1_prf+0x82f>
  4066bb:	48 b8 b0 d9 44 00 00 	movabs $0x44d9b0,%rax
  4066c2:	00 00 00 
  4066c5:	48 89 85 28 ff ff ff 	mov    %rax,-0xd8(%rbp)
  4066cc:	eb 31                	jmp    4066ff <tls1_prf+0x82f>
  4066ce:	48 b8 10 da 44 00 00 	movabs $0x44da10,%rax
  4066d5:	00 00 00 
  4066d8:	48 89 85 28 ff ff ff 	mov    %rax,-0xd8(%rbp)
  4066df:	eb 1e                	jmp    4066ff <tls1_prf+0x82f>
  4066e1:	48 b8 70 da 44 00 00 	movabs $0x44da70,%rax
  4066e8:	00 00 00 
  4066eb:	48 89 85 28 ff ff ff 	mov    %rax,-0xd8(%rbp)
  4066f2:	eb 0b                	jmp    4066ff <tls1_prf+0x82f>
  4066f4:	48 c7 85 28 ff ff ff 	movq   $0x0,-0xd8(%rbp)
  4066fb:	00 00 00 00 
  4066ff:	48 8b 85 28 ff ff ff 	mov    -0xd8(%rbp),%rax
  406706:	48 89 85 18 fd ff ff 	mov    %rax,-0x2e8(%rbp)
  40670d:	48 83 f8 00          	cmp    $0x0,%rax
  406711:	75 0f                	jne    406722 <tls1_prf+0x852>
  406713:	c7 85 2c fe ff ff 00 	movl   $0xffff9400,-0x1d4(%rbp)
  40671a:	94 ff ff 
