; ModuleID = 'test_inst.bc'
source_filename = "test.cpp"
target datalayout = "e-m:e-i64:64-f80:128-n8:16:32:64-S128"
target triple = "x86_64-unknown-linux-gnu"

%"class.std::ios_base::Init" = type { i8 }
%"class.std::basic_ostream" = type { i32 (...)**, %"class.std::basic_ios" }
%"class.std::basic_ios" = type { %"class.std::ios_base", %"class.std::basic_ostream"*, i8, i8, %"class.std::basic_streambuf"*, %"class.std::ctype"*, %"class.std::num_put"*, %"class.std::num_get"* }
%"class.std::ios_base" = type { i32 (...)**, i64, i64, i32, i32, i32, %"struct.std::ios_base::_Callback_list"*, %"struct.std::ios_base::_Words", [8 x %"struct.std::ios_base::_Words"], i32, %"struct.std::ios_base::_Words"*, %"class.std::locale" }
%"struct.std::ios_base::_Callback_list" = type { %"struct.std::ios_base::_Callback_list"*, void (i32, %"class.std::ios_base"*, i32)*, i32, i32 }
%"struct.std::ios_base::_Words" = type { i8*, i64 }
%"class.std::locale" = type { %"class.std::locale::_Impl"* }
%"class.std::locale::_Impl" = type { i32, %"class.std::locale::facet"**, i64, %"class.std::locale::facet"**, i8** }
%"class.std::locale::facet" = type <{ i32 (...)**, i32, [4 x i8] }>
%"class.std::basic_streambuf" = type { i32 (...)**, i8*, i8*, i8*, i8*, i8*, i8*, %"class.std::locale" }
%"class.std::ctype" = type <{ %"class.std::locale::facet.base", [4 x i8], %struct.__locale_struct*, i8, [7 x i8], i32*, i32*, i16*, i8, [256 x i8], [256 x i8], i8, [6 x i8] }>
%"class.std::locale::facet.base" = type <{ i32 (...)**, i32 }>
%struct.__locale_struct = type { [13 x %struct.__locale_data*], i16*, i32*, i32*, [13 x i8*] }
%struct.__locale_data = type opaque
%"class.std::num_put" = type { %"class.std::locale::facet.base", [4 x i8] }
%"class.std::num_get" = type { %"class.std::locale::facet.base", [4 x i8] }
%class.Student = type <{ %"class.std::__cxx11::basic_string", i32, [4 x i8] }>
%"class.std::__cxx11::basic_string" = type { %"struct.std::__cxx11::basic_string<char, std::char_traits<char>, std::allocator<char> >::_Alloc_hider", i64, %union.anon }
%"struct.std::__cxx11::basic_string<char, std::char_traits<char>, std::allocator<char> >::_Alloc_hider" = type { i8* }
%union.anon = type { i64, [8 x i8] }

$_ZN7StudentC2Ev = comdat any

$_ZN7StudentD2Ev = comdat any

@_ZStL8__ioinit = internal global %"class.std::ios_base::Init" zeroinitializer, align 1, !dbg !0
@__dso_handle = external hidden global i8
@_ZSt4cout = external dso_local global %"class.std::basic_ostream", align 8
@.str = private unnamed_addr constant [11 x i8] c"Name is : \00", align 1
@.str.1 = private unnamed_addr constant [9 x i8] c"ID is : \00", align 1
@.str.2 = private unnamed_addr constant [6 x i8] c"Tapti\00", align 1
@llvm.global_ctors = appending global [1 x { i32, void ()*, i8* }] [{ i32, void ()*, i8* } { i32 65535, void ()* @_GLOBAL__sub_I_test.cpp, i8* null }]
@_GLOBAL__sub_I_test.cpp.1 = internal constant void ()* @_GLOBAL__sub_I_test.cpp, section ".callgraph_ctor_dtor", align 8
@_GLOBAL__sub_I_test.cpp.2 = internal constant void ()* @_GLOBAL__sub_I_test.cpp, section ".callgraph", align 8
@len = internal constant i64 1, section ".callgraph", align 8
@__cxx_global_var_init.3 = internal constant void ()* @__cxx_global_var_init, section ".callgraph", align 8
@len.4 = internal constant i64 -1, section ".callgraph", align 8
@__cxx_global_var_init.5 = internal constant void ()* @__cxx_global_var_init, section ".callgraph", align 8
@len.6 = internal constant i64 0, section ".callgraph", align 8
@len.7 = internal constant i64 -1, section ".callgraph", align 8
@_ZN7Student9printNameEv.8 = internal constant void (%class.Student*)* @_ZN7Student9printNameEv, section ".callgraph", align 8
@len.9 = internal constant i64 0, section ".callgraph", align 8
@len.10 = internal constant i64 -1, section ".callgraph", align 8
@_ZN7Student7printIdEv.11 = internal constant void (%class.Student*)* @_ZN7Student7printIdEv, section ".callgraph", align 8
@len.12 = internal constant i64 0, section ".callgraph", align 8
@len.13 = internal constant i64 -1, section ".callgraph", align 8
@main.14 = internal constant i32 ()* @main, section ".callgraph", align 8
@len.15 = internal constant i64 2, section ".callgraph", align 8
@_ZN7StudentC2Ev.16 = internal constant void (%class.Student*)* @_ZN7StudentC2Ev, section ".callgraph", align 8
@_ZN7StudentD2Ev.17 = internal constant void (%class.Student*)* @_ZN7StudentD2Ev, section ".callgraph", align 8
@len.18 = internal constant i64 -1, section ".callgraph", align 8
@_ZN7StudentC2Ev.19 = internal constant void (%class.Student*)* @_ZN7StudentC2Ev, section ".callgraph", align 8
@len.20 = internal constant i64 0, section ".callgraph", align 8
@len.21 = internal constant i64 -1, section ".callgraph", align 8
@_ZN7StudentD2Ev.22 = internal constant void (%class.Student*)* @_ZN7StudentD2Ev, section ".callgraph", align 8
@len.23 = internal constant i64 0, section ".callgraph", align 8
@len.24 = internal constant i64 -1, section ".callgraph", align 8

; Function Attrs: noinline uwtable
define internal void @__cxx_global_var_init() #0 section ".text.startup" !dbg !1493 {
entry:
  call void @_ZNSt8ios_base4InitC1Ev(%"class.std::ios_base::Init"* @_ZStL8__ioinit), !dbg !1495
  %0 = call i32 @__cxa_atexit(void (i8*)* bitcast (void (%"class.std::ios_base::Init"*)* @_ZNSt8ios_base4InitD1Ev to void (i8*)*), i8* getelementptr inbounds (%"class.std::ios_base::Init", %"class.std::ios_base::Init"* @_ZStL8__ioinit, i32 0, i32 0), i8* @__dso_handle) #3, !dbg !1495
  ret void, !dbg !1495
}

declare dso_local void @_ZNSt8ios_base4InitC1Ev(%"class.std::ios_base::Init"*) unnamed_addr #1

; Function Attrs: nounwind
declare dso_local void @_ZNSt8ios_base4InitD1Ev(%"class.std::ios_base::Init"*) unnamed_addr #2

; Function Attrs: nounwind
declare dso_local i32 @__cxa_atexit(void (i8*)*, i8*, i8*) #3

; Function Attrs: noinline optnone uwtable
define dso_local void @_ZN7Student9printNameEv(%class.Student* %this) #4 align 2 !dbg !1496 {
entry:
  %this.addr = alloca %class.Student*, align 8
  store %class.Student* %this, %class.Student** %this.addr, align 8
  call void @llvm.dbg.declare(metadata %class.Student** %this.addr, metadata !1511, metadata !DIExpression()), !dbg !1513
  %this1 = load %class.Student*, %class.Student** %this.addr, align 8
  %call = call dereferenceable(272) %"class.std::basic_ostream"* @_ZStlsISt11char_traitsIcEERSt13basic_ostreamIcT_ES5_PKc(%"class.std::basic_ostream"* dereferenceable(272) @_ZSt4cout, i8* getelementptr inbounds ([11 x i8], [11 x i8]* @.str, i32 0, i32 0)), !dbg !1514
  %name = getelementptr inbounds %class.Student, %class.Student* %this1, i32 0, i32 0, !dbg !1515
  %call2 = call dereferenceable(272) %"class.std::basic_ostream"* @_ZStlsIcSt11char_traitsIcESaIcEERSt13basic_ostreamIT_T0_ES7_RKNSt7__cxx1112basic_stringIS4_S5_T1_EE(%"class.std::basic_ostream"* dereferenceable(272) %call, %"class.std::__cxx11::basic_string"* dereferenceable(32) %name), !dbg !1516
  %call3 = call dereferenceable(272) %"class.std::basic_ostream"* @_ZNSolsEPFRSoS_E(%"class.std::basic_ostream"* %call2, %"class.std::basic_ostream"* (%"class.std::basic_ostream"*)* @_ZSt4endlIcSt11char_traitsIcEERSt13basic_ostreamIT_T0_ES6_), !dbg !1517
  ret void, !dbg !1518
}

; Function Attrs: nounwind readnone speculatable
declare void @llvm.dbg.declare(metadata, metadata, metadata) #5

declare dso_local dereferenceable(272) %"class.std::basic_ostream"* @_ZStlsIcSt11char_traitsIcESaIcEERSt13basic_ostreamIT_T0_ES7_RKNSt7__cxx1112basic_stringIS4_S5_T1_EE(%"class.std::basic_ostream"* dereferenceable(272), %"class.std::__cxx11::basic_string"* dereferenceable(32)) #1

declare dso_local dereferenceable(272) %"class.std::basic_ostream"* @_ZStlsISt11char_traitsIcEERSt13basic_ostreamIcT_ES5_PKc(%"class.std::basic_ostream"* dereferenceable(272), i8*) #1

declare dso_local dereferenceable(272) %"class.std::basic_ostream"* @_ZNSolsEPFRSoS_E(%"class.std::basic_ostream"*, %"class.std::basic_ostream"* (%"class.std::basic_ostream"*)*) #1

declare dso_local dereferenceable(272) %"class.std::basic_ostream"* @_ZSt4endlIcSt11char_traitsIcEERSt13basic_ostreamIT_T0_ES6_(%"class.std::basic_ostream"* dereferenceable(272)) #1

; Function Attrs: noinline optnone uwtable
define dso_local void @_ZN7Student7printIdEv(%class.Student* %this) #4 align 2 !dbg !1519 {
entry:
  %this.addr = alloca %class.Student*, align 8
  store %class.Student* %this, %class.Student** %this.addr, align 8
  call void @llvm.dbg.declare(metadata %class.Student** %this.addr, metadata !1520, metadata !DIExpression()), !dbg !1521
  %this1 = load %class.Student*, %class.Student** %this.addr, align 8
  %call = call dereferenceable(272) %"class.std::basic_ostream"* @_ZStlsISt11char_traitsIcEERSt13basic_ostreamIcT_ES5_PKc(%"class.std::basic_ostream"* dereferenceable(272) @_ZSt4cout, i8* getelementptr inbounds ([9 x i8], [9 x i8]* @.str.1, i32 0, i32 0)), !dbg !1522
  %id = getelementptr inbounds %class.Student, %class.Student* %this1, i32 0, i32 1, !dbg !1523
  %0 = load i32, i32* %id, align 8, !dbg !1523
  %call2 = call dereferenceable(272) %"class.std::basic_ostream"* @_ZNSolsEi(%"class.std::basic_ostream"* %call, i32 %0), !dbg !1524
  %call3 = call dereferenceable(272) %"class.std::basic_ostream"* @_ZNSolsEPFRSoS_E(%"class.std::basic_ostream"* %call2, %"class.std::basic_ostream"* (%"class.std::basic_ostream"*)* @_ZSt4endlIcSt11char_traitsIcEERSt13basic_ostreamIT_T0_ES6_), !dbg !1525
  ret void, !dbg !1526
}

declare dso_local dereferenceable(272) %"class.std::basic_ostream"* @_ZNSolsEi(%"class.std::basic_ostream"*, i32) #1

; Function Attrs: noinline norecurse optnone uwtable
define dso_local i32 @main() #6 personality i8* bitcast (i32 (...)* @__gxx_personality_v0 to i8*) !dbg !1527 {
entry:
  %retval = alloca i32, align 4
  %student = alloca %class.Student, align 8
  %exn.slot = alloca i8*
  %ehselector.slot = alloca i32
  store i32 0, i32* %retval, align 4
  call void @llvm.dbg.declare(metadata %class.Student* %student, metadata !1528, metadata !DIExpression()), !dbg !1529
  call void @_ZN7StudentC2Ev(%class.Student* %student) #3, !dbg !1529
  %id = getelementptr inbounds %class.Student, %class.Student* %student, i32 0, i32 1, !dbg !1530
  store i32 1000, i32* %id, align 8, !dbg !1531
  %name = getelementptr inbounds %class.Student, %class.Student* %student, i32 0, i32 0, !dbg !1532
  %call = invoke dereferenceable(32) %"class.std::__cxx11::basic_string"* @_ZNSt7__cxx1112basic_stringIcSt11char_traitsIcESaIcEEaSEPKc(%"class.std::__cxx11::basic_string"* %name, i8* getelementptr inbounds ([6 x i8], [6 x i8]* @.str.2, i32 0, i32 0))
          to label %invoke.cont unwind label %lpad, !dbg !1533

invoke.cont:                                      ; preds = %entry
  invoke void @_ZN7Student9printNameEv(%class.Student* %student)
          to label %invoke.cont1 unwind label %lpad, !dbg !1534

invoke.cont1:                                     ; preds = %invoke.cont
  invoke void @_ZN7Student7printIdEv(%class.Student* %student)
          to label %invoke.cont2 unwind label %lpad, !dbg !1535

invoke.cont2:                                     ; preds = %invoke.cont1
  store i32 0, i32* %retval, align 4, !dbg !1536
  call void @_ZN7StudentD2Ev(%class.Student* %student) #3, !dbg !1537
  %0 = load i32, i32* %retval, align 4, !dbg !1537
  ret i32 %0, !dbg !1537

lpad:                                             ; preds = %invoke.cont1, %invoke.cont, %entry
  %1 = landingpad { i8*, i32 }
          cleanup, !dbg !1537
  %2 = extractvalue { i8*, i32 } %1, 0, !dbg !1537
  store i8* %2, i8** %exn.slot, align 8, !dbg !1537
  %3 = extractvalue { i8*, i32 } %1, 1, !dbg !1537
  store i32 %3, i32* %ehselector.slot, align 4, !dbg !1537
  call void @_ZN7StudentD2Ev(%class.Student* %student) #3, !dbg !1537
  br label %eh.resume, !dbg !1537

eh.resume:                                        ; preds = %lpad
  %exn = load i8*, i8** %exn.slot, align 8, !dbg !1537
  %sel = load i32, i32* %ehselector.slot, align 4, !dbg !1537
  %lpad.val = insertvalue { i8*, i32 } undef, i8* %exn, 0, !dbg !1537
  %lpad.val3 = insertvalue { i8*, i32 } %lpad.val, i32 %sel, 1, !dbg !1537
  resume { i8*, i32 } %lpad.val3, !dbg !1537
}

; Function Attrs: noinline nounwind optnone uwtable
define linkonce_odr dso_local void @_ZN7StudentC2Ev(%class.Student* %this) unnamed_addr #7 comdat align 2 !dbg !1538 {
entry:
  %this.addr = alloca %class.Student*, align 8
  store %class.Student* %this, %class.Student** %this.addr, align 8
  call void @llvm.dbg.declare(metadata %class.Student** %this.addr, metadata !1540, metadata !DIExpression()), !dbg !1541
  %this1 = load %class.Student*, %class.Student** %this.addr, align 8
  %name = getelementptr inbounds %class.Student, %class.Student* %this1, i32 0, i32 0, !dbg !1542
  call void @_ZNSt7__cxx1112basic_stringIcSt11char_traitsIcESaIcEEC1Ev(%"class.std::__cxx11::basic_string"* %name) #3, !dbg !1542
  ret void, !dbg !1542
}

declare dso_local dereferenceable(32) %"class.std::__cxx11::basic_string"* @_ZNSt7__cxx1112basic_stringIcSt11char_traitsIcESaIcEEaSEPKc(%"class.std::__cxx11::basic_string"*, i8*) #1

declare dso_local i32 @__gxx_personality_v0(...)

; Function Attrs: noinline nounwind optnone uwtable
define linkonce_odr dso_local void @_ZN7StudentD2Ev(%class.Student* %this) unnamed_addr #7 comdat align 2 !dbg !1543 {
entry:
  %this.addr = alloca %class.Student*, align 8
  store %class.Student* %this, %class.Student** %this.addr, align 8
  call void @llvm.dbg.declare(metadata %class.Student** %this.addr, metadata !1545, metadata !DIExpression()), !dbg !1546
  %this1 = load %class.Student*, %class.Student** %this.addr, align 8
  %name = getelementptr inbounds %class.Student, %class.Student* %this1, i32 0, i32 0, !dbg !1547
  call void @_ZNSt7__cxx1112basic_stringIcSt11char_traitsIcESaIcEED1Ev(%"class.std::__cxx11::basic_string"* %name) #3, !dbg !1547
  ret void, !dbg !1549
}

; Function Attrs: nounwind
declare dso_local void @_ZNSt7__cxx1112basic_stringIcSt11char_traitsIcESaIcEEC1Ev(%"class.std::__cxx11::basic_string"*) unnamed_addr #2

; Function Attrs: nounwind
declare dso_local void @_ZNSt7__cxx1112basic_stringIcSt11char_traitsIcESaIcEED1Ev(%"class.std::__cxx11::basic_string"*) unnamed_addr #2

; Function Attrs: noinline uwtable
define internal void @_GLOBAL__sub_I_test.cpp() #0 section ".text.startup" !dbg !1550 {
entry:
  call void @__cxx_global_var_init(), !dbg !1552
  ret void
}

attributes #0 = { noinline uwtable "correctly-rounded-divide-sqrt-fp-math"="false" "disable-tail-calls"="false" "less-precise-fpmad"="false" "no-frame-pointer-elim"="true" "no-frame-pointer-elim-non-leaf" "no-infs-fp-math"="false" "no-jump-tables"="false" "no-nans-fp-math"="false" "no-signed-zeros-fp-math"="false" "no-trapping-math"="false" "stack-protector-buffer-size"="8" "target-cpu"="x86-64" "target-features"="+fxsr,+mmx,+sse,+sse2,+x87" "unsafe-fp-math"="false" "use-soft-float"="false" }
attributes #1 = { "correctly-rounded-divide-sqrt-fp-math"="false" "disable-tail-calls"="false" "less-precise-fpmad"="false" "no-frame-pointer-elim"="true" "no-frame-pointer-elim-non-leaf" "no-infs-fp-math"="false" "no-nans-fp-math"="false" "no-signed-zeros-fp-math"="false" "no-trapping-math"="false" "stack-protector-buffer-size"="8" "target-cpu"="x86-64" "target-features"="+fxsr,+mmx,+sse,+sse2,+x87" "unsafe-fp-math"="false" "use-soft-float"="false" }
attributes #2 = { nounwind "correctly-rounded-divide-sqrt-fp-math"="false" "disable-tail-calls"="false" "less-precise-fpmad"="false" "no-frame-pointer-elim"="true" "no-frame-pointer-elim-non-leaf" "no-infs-fp-math"="false" "no-nans-fp-math"="false" "no-signed-zeros-fp-math"="false" "no-trapping-math"="false" "stack-protector-buffer-size"="8" "target-cpu"="x86-64" "target-features"="+fxsr,+mmx,+sse,+sse2,+x87" "unsafe-fp-math"="false" "use-soft-float"="false" }
attributes #3 = { nounwind }
attributes #4 = { noinline optnone uwtable "correctly-rounded-divide-sqrt-fp-math"="false" "disable-tail-calls"="false" "less-precise-fpmad"="false" "no-frame-pointer-elim"="true" "no-frame-pointer-elim-non-leaf" "no-infs-fp-math"="false" "no-jump-tables"="false" "no-nans-fp-math"="false" "no-signed-zeros-fp-math"="false" "no-trapping-math"="false" "stack-protector-buffer-size"="8" "target-cpu"="x86-64" "target-features"="+fxsr,+mmx,+sse,+sse2,+x87" "unsafe-fp-math"="false" "use-soft-float"="false" }
attributes #5 = { nounwind readnone speculatable }
attributes #6 = { noinline norecurse optnone uwtable "correctly-rounded-divide-sqrt-fp-math"="false" "disable-tail-calls"="false" "less-precise-fpmad"="false" "no-frame-pointer-elim"="true" "no-frame-pointer-elim-non-leaf" "no-infs-fp-math"="false" "no-jump-tables"="false" "no-nans-fp-math"="false" "no-signed-zeros-fp-math"="false" "no-trapping-math"="false" "stack-protector-buffer-size"="8" "target-cpu"="x86-64" "target-features"="+fxsr,+mmx,+sse,+sse2,+x87" "unsafe-fp-math"="false" "use-soft-float"="false" }
attributes #7 = { noinline nounwind optnone uwtable "correctly-rounded-divide-sqrt-fp-math"="false" "disable-tail-calls"="false" "less-precise-fpmad"="false" "no-frame-pointer-elim"="true" "no-frame-pointer-elim-non-leaf" "no-infs-fp-math"="false" "no-jump-tables"="false" "no-nans-fp-math"="false" "no-signed-zeros-fp-math"="false" "no-trapping-math"="false" "stack-protector-buffer-size"="8" "target-cpu"="x86-64" "target-features"="+fxsr,+mmx,+sse,+sse2,+x87" "unsafe-fp-math"="false" "use-soft-float"="false" }

!llvm.dbg.cu = !{!19}
!llvm.module.flags = !{!1489, !1490, !1491}
!llvm.ident = !{!1492}

!0 = !DIGlobalVariableExpression(var: !1, expr: !DIExpression())
!1 = distinct !DIGlobalVariable(name: "__ioinit", linkageName: "_ZStL8__ioinit", scope: !2, file: !3, line: 74, type: !4, isLocal: true, isDefinition: true)
!2 = !DINamespace(name: "std", scope: null)
!3 = !DIFile(filename: "/usr/lib/gcc/x86_64-linux-gnu/5.4.0/../../../../include/c++/5.4.0/iostream", directory: "/mnt/Projects/LLVM-custom/test/Datarand")
!4 = distinct !DICompositeType(tag: DW_TAG_class_type, name: "Init", scope: !6, file: !5, line: 601, size: 8, flags: DIFlagTypePassByReference, elements: !7, identifier: "_ZTSNSt8ios_base4InitE")
!5 = !DIFile(filename: "/usr/lib/gcc/x86_64-linux-gnu/5.4.0/../../../../include/c++/5.4.0/bits/ios_base.h", directory: "/mnt/Projects/LLVM-custom/test/Datarand")
!6 = distinct !DICompositeType(tag: DW_TAG_class_type, name: "ios_base", scope: !2, file: !5, line: 228, flags: DIFlagFwdDecl, identifier: "_ZTSSt8ios_base")
!7 = !{!8, !12, !14, !18}
!8 = !DIDerivedType(tag: DW_TAG_member, name: "_S_refcount", scope: !4, file: !5, line: 609, baseType: !9, flags: DIFlagStaticMember)
!9 = !DIDerivedType(tag: DW_TAG_typedef, name: "_Atomic_word", file: !10, line: 32, baseType: !11)
!10 = !DIFile(filename: "/usr/lib/gcc/x86_64-linux-gnu/5.4.0/../../../../include/x86_64-linux-gnu/c++/5.4.0/bits/atomic_word.h", directory: "/mnt/Projects/LLVM-custom/test/Datarand")
!11 = !DIBasicType(name: "int", size: 32, encoding: DW_ATE_signed)
!12 = !DIDerivedType(tag: DW_TAG_member, name: "_S_synced_with_stdio", scope: !4, file: !5, line: 610, baseType: !13, flags: DIFlagStaticMember)
!13 = !DIBasicType(name: "bool", size: 8, encoding: DW_ATE_boolean)
!14 = !DISubprogram(name: "Init", scope: !4, file: !5, line: 605, type: !15, isLocal: false, isDefinition: false, scopeLine: 605, flags: DIFlagPublic | DIFlagPrototyped, isOptimized: false)
!15 = !DISubroutineType(types: !16)
!16 = !{null, !17}
!17 = !DIDerivedType(tag: DW_TAG_pointer_type, baseType: !4, size: 64, flags: DIFlagArtificial | DIFlagObjectPointer)
!18 = !DISubprogram(name: "~Init", scope: !4, file: !5, line: 606, type: !15, isLocal: false, isDefinition: false, scopeLine: 606, flags: DIFlagPublic | DIFlagPrototyped, isOptimized: false)
!19 = distinct !DICompileUnit(language: DW_LANG_C_plus_plus, file: !20, producer: "clang version 7.0.0 (trunk) (llvm/trunk 333727)", isOptimized: false, runtimeVersion: 0, emissionKind: FullDebug, enums: !21, globals: !30, imports: !31)
!20 = !DIFile(filename: "test.cpp", directory: "/mnt/Projects/LLVM-custom/test/Datarand")
!21 = !{!22}
!22 = distinct !DICompositeType(tag: DW_TAG_enumeration_type, name: "_Lock_policy", scope: !24, file: !23, line: 49, baseType: !25, size: 32, elements: !26, identifier: "_ZTSN9__gnu_cxx12_Lock_policyE")
!23 = !DIFile(filename: "/usr/lib/gcc/x86_64-linux-gnu/5.4.0/../../../../include/c++/5.4.0/ext/concurrence.h", directory: "/mnt/Projects/LLVM-custom/test/Datarand")
!24 = !DINamespace(name: "__gnu_cxx", scope: null)
!25 = !DIBasicType(name: "unsigned int", size: 32, encoding: DW_ATE_unsigned)
!26 = !{!27, !28, !29}
!27 = !DIEnumerator(name: "_S_single", value: 0, isUnsigned: true)
!28 = !DIEnumerator(name: "_S_mutex", value: 1, isUnsigned: true)
!29 = !DIEnumerator(name: "_S_atomic", value: 2, isUnsigned: true)
!30 = !{!0}
!31 = !{!32, !49, !52, !56, !64, !72, !76, !83, !87, !91, !93, !95, !99, !110, !114, !120, !126, !128, !132, !136, !140, !144, !156, !158, !162, !166, !170, !172, !178, !182, !186, !188, !190, !194, !216, !220, !224, !228, !230, !236, !238, !245, !250, !254, !258, !262, !266, !270, !272, !274, !278, !282, !286, !288, !292, !296, !298, !300, !304, !309, !314, !319, !320, !321, !322, !323, !324, !325, !326, !327, !328, !329, !383, !387, !392, !395, !397, !399, !401, !403, !405, !407, !409, !411, !413, !415, !417, !419, !422, !425, !427, !429, !431, !433, !435, !437, !439, !441, !443, !445, !447, !449, !453, !457, !462, !468, !470, !472, !474, !476, !478, !480, !482, !484, !486, !488, !490, !492, !494, !497, !499, !504, !510, !514, !516, !521, !523, !527, !531, !535, !545, !549, !553, !557, !561, !565, !569, !573, !577, !581, !585, !589, !593, !595, !599, !603, !607, !613, !617, !621, !623, !627, !631, !637, !639, !643, !647, !651, !655, !659, !663, !667, !668, !669, !670, !672, !673, !674, !675, !676, !677, !678, !681, !686, !691, !695, !697, !699, !701, !703, !710, !714, !718, !722, !726, !730, !735, !739, !741, !745, !751, !755, !760, !762, !764, !768, !772, !774, !776, !778, !780, !784, !786, !788, !792, !796, !800, !804, !808, !812, !814, !818, !822, !826, !830, !832, !834, !838, !842, !843, !844, !845, !846, !847, !855, !857, !858, !860, !862, !864, !866, !870, !872, !874, !876, !878, !880, !882, !884, !886, !890, !894, !896, !900, !904, !910, !912, !914, !918, !920, !922, !924, !926, !928, !930, !932, !937, !941, !943, !945, !950, !952, !954, !956, !958, !960, !962, !965, !967, !969, !973, !977, !979, !981, !983, !985, !987, !989, !991, !993, !995, !997, !1001, !1005, !1007, !1009, !1011, !1013, !1015, !1017, !1019, !1021, !1023, !1025, !1027, !1029, !1031, !1033, !1035, !1039, !1043, !1047, !1049, !1051, !1053, !1055, !1057, !1059, !1061, !1063, !1065, !1069, !1073, !1077, !1079, !1081, !1083, !1087, !1091, !1095, !1097, !1099, !1101, !1103, !1105, !1107, !1109, !1111, !1113, !1115, !1117, !1119, !1123, !1127, !1131, !1133, !1135, !1137, !1139, !1143, !1147, !1149, !1151, !1153, !1155, !1157, !1159, !1163, !1167, !1169, !1171, !1173, !1175, !1179, !1183, !1187, !1189, !1191, !1193, !1195, !1197, !1199, !1203, !1207, !1211, !1213, !1217, !1221, !1223, !1225, !1227, !1229, !1231, !1233, !1241, !1246, !1252, !1258, !1260, !1267, !1272, !1278, !1282, !1286, !1290, !1294, !1298, !1300, !1302, !1304, !1308, !1312, !1316, !1320, !1324, !1326, !1328, !1330, !1334, !1338, !1342, !1344, !1346, !1350, !1353, !1354, !1358, !1362, !1367, !1372, !1376, !1382, !1386, !1388, !1392, !1397, !1399, !1402, !1407, !1409, !1415, !1417, !1419, !1421, !1426, !1428, !1434, !1436, !1438, !1439, !1440, !1441, !1442, !1443, !1444, !1445, !1446, !1447, !1448, !1449, !1450, !1455, !1459, !1463, !1467, !1471, !1475, !1479, !1481, !1484}
!32 = !DIImportedEntity(tag: DW_TAG_imported_declaration, scope: !2, entity: !33, file: !48, line: 64)
!33 = !DIDerivedType(tag: DW_TAG_typedef, name: "mbstate_t", file: !34, line: 106, baseType: !35)
!34 = !DIFile(filename: "/usr/include/wchar.h", directory: "/mnt/Projects/LLVM-custom/test/Datarand")
!35 = !DIDerivedType(tag: DW_TAG_typedef, name: "__mbstate_t", file: !34, line: 94, baseType: !36)
!36 = distinct !DICompositeType(tag: DW_TAG_structure_type, file: !34, line: 82, size: 64, flags: DIFlagTypePassByValue, elements: !37, identifier: "_ZTS11__mbstate_t")
!37 = !{!38, !39}
!38 = !DIDerivedType(tag: DW_TAG_member, name: "__count", scope: !36, file: !34, line: 84, baseType: !11, size: 32)
!39 = !DIDerivedType(tag: DW_TAG_member, name: "__value", scope: !36, file: !34, line: 93, baseType: !40, size: 32, offset: 32)
!40 = distinct !DICompositeType(tag: DW_TAG_union_type, scope: !36, file: !34, line: 85, size: 32, flags: DIFlagTypePassByValue, elements: !41, identifier: "_ZTSN11__mbstate_tUt_E")
!41 = !{!42, !43}
!42 = !DIDerivedType(tag: DW_TAG_member, name: "__wch", scope: !40, file: !34, line: 88, baseType: !25, size: 32)
!43 = !DIDerivedType(tag: DW_TAG_member, name: "__wchb", scope: !40, file: !34, line: 92, baseType: !44, size: 32)
!44 = !DICompositeType(tag: DW_TAG_array_type, baseType: !45, size: 32, elements: !46)
!45 = !DIBasicType(name: "char", size: 8, encoding: DW_ATE_signed_char)
!46 = !{!47}
!47 = !DISubrange(count: 4)
!48 = !DIFile(filename: "/usr/lib/gcc/x86_64-linux-gnu/5.4.0/../../../../include/c++/5.4.0/cwchar", directory: "/mnt/Projects/LLVM-custom/test/Datarand")
!49 = !DIImportedEntity(tag: DW_TAG_imported_declaration, scope: !2, entity: !50, file: !48, line: 139)
!50 = !DIDerivedType(tag: DW_TAG_typedef, name: "wint_t", file: !51, line: 132, baseType: !25)
!51 = !DIFile(filename: "/mnt/Projects/LLVM-custom/install/lib/clang/7.0.0/include/stddef.h", directory: "/mnt/Projects/LLVM-custom/test/Datarand")
!52 = !DIImportedEntity(tag: DW_TAG_imported_declaration, scope: !2, entity: !53, file: !48, line: 141)
!53 = !DISubprogram(name: "btowc", scope: !34, file: !34, line: 356, type: !54, isLocal: false, isDefinition: false, flags: DIFlagPrototyped, isOptimized: false)
!54 = !DISubroutineType(types: !55)
!55 = !{!50, !11}
!56 = !DIImportedEntity(tag: DW_TAG_imported_declaration, scope: !2, entity: !57, file: !48, line: 142)
!57 = !DISubprogram(name: "fgetwc", scope: !34, file: !34, line: 748, type: !58, isLocal: false, isDefinition: false, flags: DIFlagPrototyped, isOptimized: false)
!58 = !DISubroutineType(types: !59)
!59 = !{!50, !60}
!60 = !DIDerivedType(tag: DW_TAG_pointer_type, baseType: !61, size: 64)
!61 = !DIDerivedType(tag: DW_TAG_typedef, name: "__FILE", file: !62, line: 64, baseType: !63)
!62 = !DIFile(filename: "/usr/include/stdio.h", directory: "/mnt/Projects/LLVM-custom/test/Datarand")
!63 = distinct !DICompositeType(tag: DW_TAG_structure_type, name: "_IO_FILE", file: !62, line: 44, flags: DIFlagFwdDecl, identifier: "_ZTS8_IO_FILE")
!64 = !DIImportedEntity(tag: DW_TAG_imported_declaration, scope: !2, entity: !65, file: !48, line: 143)
!65 = !DISubprogram(name: "fgetws", scope: !34, file: !34, line: 777, type: !66, isLocal: false, isDefinition: false, flags: DIFlagPrototyped, isOptimized: false)
!66 = !DISubroutineType(types: !67)
!67 = !{!68, !70, !11, !71}
!68 = !DIDerivedType(tag: DW_TAG_pointer_type, baseType: !69, size: 64)
!69 = !DIBasicType(name: "wchar_t", size: 32, encoding: DW_ATE_signed)
!70 = !DIDerivedType(tag: DW_TAG_restrict_type, baseType: !68)
!71 = !DIDerivedType(tag: DW_TAG_restrict_type, baseType: !60)
!72 = !DIImportedEntity(tag: DW_TAG_imported_declaration, scope: !2, entity: !73, file: !48, line: 144)
!73 = !DISubprogram(name: "fputwc", scope: !34, file: !34, line: 762, type: !74, isLocal: false, isDefinition: false, flags: DIFlagPrototyped, isOptimized: false)
!74 = !DISubroutineType(types: !75)
!75 = !{!50, !69, !60}
!76 = !DIImportedEntity(tag: DW_TAG_imported_declaration, scope: !2, entity: !77, file: !48, line: 145)
!77 = !DISubprogram(name: "fputws", scope: !34, file: !34, line: 784, type: !78, isLocal: false, isDefinition: false, flags: DIFlagPrototyped, isOptimized: false)
!78 = !DISubroutineType(types: !79)
!79 = !{!11, !80, !71}
!80 = !DIDerivedType(tag: DW_TAG_restrict_type, baseType: !81)
!81 = !DIDerivedType(tag: DW_TAG_pointer_type, baseType: !82, size: 64)
!82 = !DIDerivedType(tag: DW_TAG_const_type, baseType: !69)
!83 = !DIImportedEntity(tag: DW_TAG_imported_declaration, scope: !2, entity: !84, file: !48, line: 146)
!84 = !DISubprogram(name: "fwide", scope: !34, file: !34, line: 590, type: !85, isLocal: false, isDefinition: false, flags: DIFlagPrototyped, isOptimized: false)
!85 = !DISubroutineType(types: !86)
!86 = !{!11, !60, !11}
!87 = !DIImportedEntity(tag: DW_TAG_imported_declaration, scope: !2, entity: !88, file: !48, line: 147)
!88 = !DISubprogram(name: "fwprintf", scope: !34, file: !34, line: 597, type: !89, isLocal: false, isDefinition: false, flags: DIFlagPrototyped, isOptimized: false)
!89 = !DISubroutineType(types: !90)
!90 = !{!11, !71, !80, null}
!91 = !DIImportedEntity(tag: DW_TAG_imported_declaration, scope: !2, entity: !92, file: !48, line: 148)
!92 = !DISubprogram(name: "fwscanf", scope: !34, file: !34, line: 638, type: !89, isLocal: false, isDefinition: false, flags: DIFlagPrototyped, isOptimized: false)
!93 = !DIImportedEntity(tag: DW_TAG_imported_declaration, scope: !2, entity: !94, file: !48, line: 149)
!94 = !DISubprogram(name: "getwc", scope: !34, file: !34, line: 749, type: !58, isLocal: false, isDefinition: false, flags: DIFlagPrototyped, isOptimized: false)
!95 = !DIImportedEntity(tag: DW_TAG_imported_declaration, scope: !2, entity: !96, file: !48, line: 150)
!96 = !DISubprogram(name: "getwchar", scope: !34, file: !34, line: 755, type: !97, isLocal: false, isDefinition: false, flags: DIFlagPrototyped, isOptimized: false)
!97 = !DISubroutineType(types: !98)
!98 = !{!50}
!99 = !DIImportedEntity(tag: DW_TAG_imported_declaration, scope: !2, entity: !100, file: !48, line: 151)
!100 = !DISubprogram(name: "mbrlen", scope: !34, file: !34, line: 379, type: !101, isLocal: false, isDefinition: false, flags: DIFlagPrototyped, isOptimized: false)
!101 = !DISubroutineType(types: !102)
!102 = !{!103, !105, !103, !108}
!103 = !DIDerivedType(tag: DW_TAG_typedef, name: "size_t", file: !51, line: 62, baseType: !104)
!104 = !DIBasicType(name: "long unsigned int", size: 64, encoding: DW_ATE_unsigned)
!105 = !DIDerivedType(tag: DW_TAG_restrict_type, baseType: !106)
!106 = !DIDerivedType(tag: DW_TAG_pointer_type, baseType: !107, size: 64)
!107 = !DIDerivedType(tag: DW_TAG_const_type, baseType: !45)
!108 = !DIDerivedType(tag: DW_TAG_restrict_type, baseType: !109)
!109 = !DIDerivedType(tag: DW_TAG_pointer_type, baseType: !33, size: 64)
!110 = !DIImportedEntity(tag: DW_TAG_imported_declaration, scope: !2, entity: !111, file: !48, line: 152)
!111 = !DISubprogram(name: "mbrtowc", scope: !34, file: !34, line: 368, type: !112, isLocal: false, isDefinition: false, flags: DIFlagPrototyped, isOptimized: false)
!112 = !DISubroutineType(types: !113)
!113 = !{!103, !70, !105, !103, !108}
!114 = !DIImportedEntity(tag: DW_TAG_imported_declaration, scope: !2, entity: !115, file: !48, line: 153)
!115 = !DISubprogram(name: "mbsinit", scope: !34, file: !34, line: 364, type: !116, isLocal: false, isDefinition: false, flags: DIFlagPrototyped, isOptimized: false)
!116 = !DISubroutineType(types: !117)
!117 = !{!11, !118}
!118 = !DIDerivedType(tag: DW_TAG_pointer_type, baseType: !119, size: 64)
!119 = !DIDerivedType(tag: DW_TAG_const_type, baseType: !33)
!120 = !DIImportedEntity(tag: DW_TAG_imported_declaration, scope: !2, entity: !121, file: !48, line: 154)
!121 = !DISubprogram(name: "mbsrtowcs", scope: !34, file: !34, line: 411, type: !122, isLocal: false, isDefinition: false, flags: DIFlagPrototyped, isOptimized: false)
!122 = !DISubroutineType(types: !123)
!123 = !{!103, !70, !124, !103, !108}
!124 = !DIDerivedType(tag: DW_TAG_restrict_type, baseType: !125)
!125 = !DIDerivedType(tag: DW_TAG_pointer_type, baseType: !106, size: 64)
!126 = !DIImportedEntity(tag: DW_TAG_imported_declaration, scope: !2, entity: !127, file: !48, line: 155)
!127 = !DISubprogram(name: "putwc", scope: !34, file: !34, line: 763, type: !74, isLocal: false, isDefinition: false, flags: DIFlagPrototyped, isOptimized: false)
!128 = !DIImportedEntity(tag: DW_TAG_imported_declaration, scope: !2, entity: !129, file: !48, line: 156)
!129 = !DISubprogram(name: "putwchar", scope: !34, file: !34, line: 769, type: !130, isLocal: false, isDefinition: false, flags: DIFlagPrototyped, isOptimized: false)
!130 = !DISubroutineType(types: !131)
!131 = !{!50, !69}
!132 = !DIImportedEntity(tag: DW_TAG_imported_declaration, scope: !2, entity: !133, file: !48, line: 158)
!133 = !DISubprogram(name: "swprintf", scope: !34, file: !34, line: 607, type: !134, isLocal: false, isDefinition: false, flags: DIFlagPrototyped, isOptimized: false)
!134 = !DISubroutineType(types: !135)
!135 = !{!11, !70, !103, !80, null}
!136 = !DIImportedEntity(tag: DW_TAG_imported_declaration, scope: !2, entity: !137, file: !48, line: 160)
!137 = !DISubprogram(name: "swscanf", scope: !34, file: !34, line: 648, type: !138, isLocal: false, isDefinition: false, flags: DIFlagPrototyped, isOptimized: false)
!138 = !DISubroutineType(types: !139)
!139 = !{!11, !80, !80, null}
!140 = !DIImportedEntity(tag: DW_TAG_imported_declaration, scope: !2, entity: !141, file: !48, line: 161)
!141 = !DISubprogram(name: "ungetwc", scope: !34, file: !34, line: 792, type: !142, isLocal: false, isDefinition: false, flags: DIFlagPrototyped, isOptimized: false)
!142 = !DISubroutineType(types: !143)
!143 = !{!50, !50, !60}
!144 = !DIImportedEntity(tag: DW_TAG_imported_declaration, scope: !2, entity: !145, file: !48, line: 162)
!145 = !DISubprogram(name: "vfwprintf", scope: !34, file: !34, line: 615, type: !146, isLocal: false, isDefinition: false, flags: DIFlagPrototyped, isOptimized: false)
!146 = !DISubroutineType(types: !147)
!147 = !{!11, !71, !80, !148}
!148 = !DIDerivedType(tag: DW_TAG_pointer_type, baseType: !149, size: 64)
!149 = distinct !DICompositeType(tag: DW_TAG_structure_type, name: "__va_list_tag", file: !20, size: 192, flags: DIFlagTypePassByValue, elements: !150, identifier: "_ZTS13__va_list_tag")
!150 = !{!151, !152, !153, !155}
!151 = !DIDerivedType(tag: DW_TAG_member, name: "gp_offset", scope: !149, file: !20, baseType: !25, size: 32)
!152 = !DIDerivedType(tag: DW_TAG_member, name: "fp_offset", scope: !149, file: !20, baseType: !25, size: 32, offset: 32)
!153 = !DIDerivedType(tag: DW_TAG_member, name: "overflow_arg_area", scope: !149, file: !20, baseType: !154, size: 64, offset: 64)
!154 = !DIDerivedType(tag: DW_TAG_pointer_type, baseType: null, size: 64)
!155 = !DIDerivedType(tag: DW_TAG_member, name: "reg_save_area", scope: !149, file: !20, baseType: !154, size: 64, offset: 128)
!156 = !DIImportedEntity(tag: DW_TAG_imported_declaration, scope: !2, entity: !157, file: !48, line: 164)
!157 = !DISubprogram(name: "vfwscanf", scope: !34, file: !34, line: 692, type: !146, isLocal: false, isDefinition: false, flags: DIFlagPrototyped, isOptimized: false)
!158 = !DIImportedEntity(tag: DW_TAG_imported_declaration, scope: !2, entity: !159, file: !48, line: 167)
!159 = !DISubprogram(name: "vswprintf", scope: !34, file: !34, line: 628, type: !160, isLocal: false, isDefinition: false, flags: DIFlagPrototyped, isOptimized: false)
!160 = !DISubroutineType(types: !161)
!161 = !{!11, !70, !103, !80, !148}
!162 = !DIImportedEntity(tag: DW_TAG_imported_declaration, scope: !2, entity: !163, file: !48, line: 170)
!163 = !DISubprogram(name: "vswscanf", scope: !34, file: !34, line: 704, type: !164, isLocal: false, isDefinition: false, flags: DIFlagPrototyped, isOptimized: false)
!164 = !DISubroutineType(types: !165)
!165 = !{!11, !80, !80, !148}
!166 = !DIImportedEntity(tag: DW_TAG_imported_declaration, scope: !2, entity: !167, file: !48, line: 172)
!167 = !DISubprogram(name: "vwprintf", scope: !34, file: !34, line: 623, type: !168, isLocal: false, isDefinition: false, flags: DIFlagPrototyped, isOptimized: false)
!168 = !DISubroutineType(types: !169)
!169 = !{!11, !80, !148}
!170 = !DIImportedEntity(tag: DW_TAG_imported_declaration, scope: !2, entity: !171, file: !48, line: 174)
!171 = !DISubprogram(name: "vwscanf", scope: !34, file: !34, line: 700, type: !168, isLocal: false, isDefinition: false, flags: DIFlagPrototyped, isOptimized: false)
!172 = !DIImportedEntity(tag: DW_TAG_imported_declaration, scope: !2, entity: !173, file: !48, line: 176)
!173 = !DISubprogram(name: "wcrtomb", scope: !34, file: !34, line: 373, type: !174, isLocal: false, isDefinition: false, flags: DIFlagPrototyped, isOptimized: false)
!174 = !DISubroutineType(types: !175)
!175 = !{!103, !176, !69, !108}
!176 = !DIDerivedType(tag: DW_TAG_restrict_type, baseType: !177)
!177 = !DIDerivedType(tag: DW_TAG_pointer_type, baseType: !45, size: 64)
!178 = !DIImportedEntity(tag: DW_TAG_imported_declaration, scope: !2, entity: !179, file: !48, line: 177)
!179 = !DISubprogram(name: "wcscat", scope: !34, file: !34, line: 157, type: !180, isLocal: false, isDefinition: false, flags: DIFlagPrototyped, isOptimized: false)
!180 = !DISubroutineType(types: !181)
!181 = !{!68, !70, !80}
!182 = !DIImportedEntity(tag: DW_TAG_imported_declaration, scope: !2, entity: !183, file: !48, line: 178)
!183 = !DISubprogram(name: "wcscmp", scope: !34, file: !34, line: 166, type: !184, isLocal: false, isDefinition: false, flags: DIFlagPrototyped, isOptimized: false)
!184 = !DISubroutineType(types: !185)
!185 = !{!11, !81, !81}
!186 = !DIImportedEntity(tag: DW_TAG_imported_declaration, scope: !2, entity: !187, file: !48, line: 179)
!187 = !DISubprogram(name: "wcscoll", scope: !34, file: !34, line: 195, type: !184, isLocal: false, isDefinition: false, flags: DIFlagPrototyped, isOptimized: false)
!188 = !DIImportedEntity(tag: DW_TAG_imported_declaration, scope: !2, entity: !189, file: !48, line: 180)
!189 = !DISubprogram(name: "wcscpy", scope: !34, file: !34, line: 147, type: !180, isLocal: false, isDefinition: false, flags: DIFlagPrototyped, isOptimized: false)
!190 = !DIImportedEntity(tag: DW_TAG_imported_declaration, scope: !2, entity: !191, file: !48, line: 181)
!191 = !DISubprogram(name: "wcscspn", scope: !34, file: !34, line: 255, type: !192, isLocal: false, isDefinition: false, flags: DIFlagPrototyped, isOptimized: false)
!192 = !DISubroutineType(types: !193)
!193 = !{!103, !81, !81}
!194 = !DIImportedEntity(tag: DW_TAG_imported_declaration, scope: !2, entity: !195, file: !48, line: 182)
!195 = !DISubprogram(name: "wcsftime", scope: !34, file: !34, line: 858, type: !196, isLocal: false, isDefinition: false, flags: DIFlagPrototyped, isOptimized: false)
!196 = !DISubroutineType(types: !197)
!197 = !{!103, !70, !103, !80, !198}
!198 = !DIDerivedType(tag: DW_TAG_restrict_type, baseType: !199)
!199 = !DIDerivedType(tag: DW_TAG_pointer_type, baseType: !200, size: 64)
!200 = !DIDerivedType(tag: DW_TAG_const_type, baseType: !201)
!201 = distinct !DICompositeType(tag: DW_TAG_structure_type, name: "tm", file: !202, line: 133, size: 448, flags: DIFlagTypePassByValue, elements: !203, identifier: "_ZTS2tm")
!202 = !DIFile(filename: "/usr/include/time.h", directory: "/mnt/Projects/LLVM-custom/test/Datarand")
!203 = !{!204, !205, !206, !207, !208, !209, !210, !211, !212, !213, !215}
!204 = !DIDerivedType(tag: DW_TAG_member, name: "tm_sec", scope: !201, file: !202, line: 135, baseType: !11, size: 32)
!205 = !DIDerivedType(tag: DW_TAG_member, name: "tm_min", scope: !201, file: !202, line: 136, baseType: !11, size: 32, offset: 32)
!206 = !DIDerivedType(tag: DW_TAG_member, name: "tm_hour", scope: !201, file: !202, line: 137, baseType: !11, size: 32, offset: 64)
!207 = !DIDerivedType(tag: DW_TAG_member, name: "tm_mday", scope: !201, file: !202, line: 138, baseType: !11, size: 32, offset: 96)
!208 = !DIDerivedType(tag: DW_TAG_member, name: "tm_mon", scope: !201, file: !202, line: 139, baseType: !11, size: 32, offset: 128)
!209 = !DIDerivedType(tag: DW_TAG_member, name: "tm_year", scope: !201, file: !202, line: 140, baseType: !11, size: 32, offset: 160)
!210 = !DIDerivedType(tag: DW_TAG_member, name: "tm_wday", scope: !201, file: !202, line: 141, baseType: !11, size: 32, offset: 192)
!211 = !DIDerivedType(tag: DW_TAG_member, name: "tm_yday", scope: !201, file: !202, line: 142, baseType: !11, size: 32, offset: 224)
!212 = !DIDerivedType(tag: DW_TAG_member, name: "tm_isdst", scope: !201, file: !202, line: 143, baseType: !11, size: 32, offset: 256)
!213 = !DIDerivedType(tag: DW_TAG_member, name: "tm_gmtoff", scope: !201, file: !202, line: 146, baseType: !214, size: 64, offset: 320)
!214 = !DIBasicType(name: "long int", size: 64, encoding: DW_ATE_signed)
!215 = !DIDerivedType(tag: DW_TAG_member, name: "tm_zone", scope: !201, file: !202, line: 147, baseType: !106, size: 64, offset: 384)
!216 = !DIImportedEntity(tag: DW_TAG_imported_declaration, scope: !2, entity: !217, file: !48, line: 183)
!217 = !DISubprogram(name: "wcslen", scope: !34, file: !34, line: 290, type: !218, isLocal: false, isDefinition: false, flags: DIFlagPrototyped, isOptimized: false)
!218 = !DISubroutineType(types: !219)
!219 = !{!103, !81}
!220 = !DIImportedEntity(tag: DW_TAG_imported_declaration, scope: !2, entity: !221, file: !48, line: 184)
!221 = !DISubprogram(name: "wcsncat", scope: !34, file: !34, line: 161, type: !222, isLocal: false, isDefinition: false, flags: DIFlagPrototyped, isOptimized: false)
!222 = !DISubroutineType(types: !223)
!223 = !{!68, !70, !80, !103}
!224 = !DIImportedEntity(tag: DW_TAG_imported_declaration, scope: !2, entity: !225, file: !48, line: 185)
!225 = !DISubprogram(name: "wcsncmp", scope: !34, file: !34, line: 169, type: !226, isLocal: false, isDefinition: false, flags: DIFlagPrototyped, isOptimized: false)
!226 = !DISubroutineType(types: !227)
!227 = !{!11, !81, !81, !103}
!228 = !DIImportedEntity(tag: DW_TAG_imported_declaration, scope: !2, entity: !229, file: !48, line: 186)
!229 = !DISubprogram(name: "wcsncpy", scope: !34, file: !34, line: 152, type: !222, isLocal: false, isDefinition: false, flags: DIFlagPrototyped, isOptimized: false)
!230 = !DIImportedEntity(tag: DW_TAG_imported_declaration, scope: !2, entity: !231, file: !48, line: 187)
!231 = !DISubprogram(name: "wcsrtombs", scope: !34, file: !34, line: 417, type: !232, isLocal: false, isDefinition: false, flags: DIFlagPrototyped, isOptimized: false)
!232 = !DISubroutineType(types: !233)
!233 = !{!103, !176, !234, !103, !108}
!234 = !DIDerivedType(tag: DW_TAG_restrict_type, baseType: !235)
!235 = !DIDerivedType(tag: DW_TAG_pointer_type, baseType: !81, size: 64)
!236 = !DIImportedEntity(tag: DW_TAG_imported_declaration, scope: !2, entity: !237, file: !48, line: 188)
!237 = !DISubprogram(name: "wcsspn", scope: !34, file: !34, line: 259, type: !192, isLocal: false, isDefinition: false, flags: DIFlagPrototyped, isOptimized: false)
!238 = !DIImportedEntity(tag: DW_TAG_imported_declaration, scope: !2, entity: !239, file: !48, line: 189)
!239 = !DISubprogram(name: "wcstod", scope: !34, file: !34, line: 453, type: !240, isLocal: false, isDefinition: false, flags: DIFlagPrototyped, isOptimized: false)
!240 = !DISubroutineType(types: !241)
!241 = !{!242, !80, !243}
!242 = !DIBasicType(name: "double", size: 64, encoding: DW_ATE_float)
!243 = !DIDerivedType(tag: DW_TAG_restrict_type, baseType: !244)
!244 = !DIDerivedType(tag: DW_TAG_pointer_type, baseType: !68, size: 64)
!245 = !DIImportedEntity(tag: DW_TAG_imported_declaration, scope: !2, entity: !246, file: !48, line: 191)
!246 = !DISubprogram(name: "wcstof", scope: !34, file: !34, line: 460, type: !247, isLocal: false, isDefinition: false, flags: DIFlagPrototyped, isOptimized: false)
!247 = !DISubroutineType(types: !248)
!248 = !{!249, !80, !243}
!249 = !DIBasicType(name: "float", size: 32, encoding: DW_ATE_float)
!250 = !DIImportedEntity(tag: DW_TAG_imported_declaration, scope: !2, entity: !251, file: !48, line: 193)
!251 = !DISubprogram(name: "wcstok", scope: !34, file: !34, line: 285, type: !252, isLocal: false, isDefinition: false, flags: DIFlagPrototyped, isOptimized: false)
!252 = !DISubroutineType(types: !253)
!253 = !{!68, !70, !80, !243}
!254 = !DIImportedEntity(tag: DW_TAG_imported_declaration, scope: !2, entity: !255, file: !48, line: 194)
!255 = !DISubprogram(name: "wcstol", scope: !34, file: !34, line: 471, type: !256, isLocal: false, isDefinition: false, flags: DIFlagPrototyped, isOptimized: false)
!256 = !DISubroutineType(types: !257)
!257 = !{!214, !80, !243, !11}
!258 = !DIImportedEntity(tag: DW_TAG_imported_declaration, scope: !2, entity: !259, file: !48, line: 195)
!259 = !DISubprogram(name: "wcstoul", scope: !34, file: !34, line: 476, type: !260, isLocal: false, isDefinition: false, flags: DIFlagPrototyped, isOptimized: false)
!260 = !DISubroutineType(types: !261)
!261 = !{!104, !80, !243, !11}
!262 = !DIImportedEntity(tag: DW_TAG_imported_declaration, scope: !2, entity: !263, file: !48, line: 196)
!263 = !DISubprogram(name: "wcsxfrm", scope: !34, file: !34, line: 199, type: !264, isLocal: false, isDefinition: false, flags: DIFlagPrototyped, isOptimized: false)
!264 = !DISubroutineType(types: !265)
!265 = !{!103, !70, !80, !103}
!266 = !DIImportedEntity(tag: DW_TAG_imported_declaration, scope: !2, entity: !267, file: !48, line: 197)
!267 = !DISubprogram(name: "wctob", scope: !34, file: !34, line: 360, type: !268, isLocal: false, isDefinition: false, flags: DIFlagPrototyped, isOptimized: false)
!268 = !DISubroutineType(types: !269)
!269 = !{!11, !50}
!270 = !DIImportedEntity(tag: DW_TAG_imported_declaration, scope: !2, entity: !271, file: !48, line: 198)
!271 = !DISubprogram(name: "wmemcmp", scope: !34, file: !34, line: 328, type: !226, isLocal: false, isDefinition: false, flags: DIFlagPrototyped, isOptimized: false)
!272 = !DIImportedEntity(tag: DW_TAG_imported_declaration, scope: !2, entity: !273, file: !48, line: 199)
!273 = !DISubprogram(name: "wmemcpy", scope: !34, file: !34, line: 332, type: !222, isLocal: false, isDefinition: false, flags: DIFlagPrototyped, isOptimized: false)
!274 = !DIImportedEntity(tag: DW_TAG_imported_declaration, scope: !2, entity: !275, file: !48, line: 200)
!275 = !DISubprogram(name: "wmemmove", scope: !34, file: !34, line: 337, type: !276, isLocal: false, isDefinition: false, flags: DIFlagPrototyped, isOptimized: false)
!276 = !DISubroutineType(types: !277)
!277 = !{!68, !68, !81, !103}
!278 = !DIImportedEntity(tag: DW_TAG_imported_declaration, scope: !2, entity: !279, file: !48, line: 201)
!279 = !DISubprogram(name: "wmemset", scope: !34, file: !34, line: 341, type: !280, isLocal: false, isDefinition: false, flags: DIFlagPrototyped, isOptimized: false)
!280 = !DISubroutineType(types: !281)
!281 = !{!68, !68, !69, !103}
!282 = !DIImportedEntity(tag: DW_TAG_imported_declaration, scope: !2, entity: !283, file: !48, line: 202)
!283 = !DISubprogram(name: "wprintf", scope: !34, file: !34, line: 604, type: !284, isLocal: false, isDefinition: false, flags: DIFlagPrototyped, isOptimized: false)
!284 = !DISubroutineType(types: !285)
!285 = !{!11, !80, null}
!286 = !DIImportedEntity(tag: DW_TAG_imported_declaration, scope: !2, entity: !287, file: !48, line: 203)
!287 = !DISubprogram(name: "wscanf", scope: !34, file: !34, line: 645, type: !284, isLocal: false, isDefinition: false, flags: DIFlagPrototyped, isOptimized: false)
!288 = !DIImportedEntity(tag: DW_TAG_imported_declaration, scope: !2, entity: !289, file: !48, line: 204)
!289 = !DISubprogram(name: "wcschr", scope: !34, file: !34, line: 230, type: !290, isLocal: false, isDefinition: false, flags: DIFlagPrototyped, isOptimized: false)
!290 = !DISubroutineType(types: !291)
!291 = !{!68, !81, !69}
!292 = !DIImportedEntity(tag: DW_TAG_imported_declaration, scope: !2, entity: !293, file: !48, line: 205)
!293 = !DISubprogram(name: "wcspbrk", scope: !34, file: !34, line: 269, type: !294, isLocal: false, isDefinition: false, flags: DIFlagPrototyped, isOptimized: false)
!294 = !DISubroutineType(types: !295)
!295 = !{!68, !81, !81}
!296 = !DIImportedEntity(tag: DW_TAG_imported_declaration, scope: !2, entity: !297, file: !48, line: 206)
!297 = !DISubprogram(name: "wcsrchr", scope: !34, file: !34, line: 240, type: !290, isLocal: false, isDefinition: false, flags: DIFlagPrototyped, isOptimized: false)
!298 = !DIImportedEntity(tag: DW_TAG_imported_declaration, scope: !2, entity: !299, file: !48, line: 207)
!299 = !DISubprogram(name: "wcsstr", scope: !34, file: !34, line: 280, type: !294, isLocal: false, isDefinition: false, flags: DIFlagPrototyped, isOptimized: false)
!300 = !DIImportedEntity(tag: DW_TAG_imported_declaration, scope: !2, entity: !301, file: !48, line: 208)
!301 = !DISubprogram(name: "wmemchr", scope: !34, file: !34, line: 323, type: !302, isLocal: false, isDefinition: false, flags: DIFlagPrototyped, isOptimized: false)
!302 = !DISubroutineType(types: !303)
!303 = !{!68, !81, !69, !103}
!304 = !DIImportedEntity(tag: DW_TAG_imported_declaration, scope: !24, entity: !305, file: !48, line: 248)
!305 = !DISubprogram(name: "wcstold", scope: !34, file: !34, line: 462, type: !306, isLocal: false, isDefinition: false, flags: DIFlagPrototyped, isOptimized: false)
!306 = !DISubroutineType(types: !307)
!307 = !{!308, !80, !243}
!308 = !DIBasicType(name: "long double", size: 128, encoding: DW_ATE_float)
!309 = !DIImportedEntity(tag: DW_TAG_imported_declaration, scope: !24, entity: !310, file: !48, line: 257)
!310 = !DISubprogram(name: "wcstoll", scope: !34, file: !34, line: 486, type: !311, isLocal: false, isDefinition: false, flags: DIFlagPrototyped, isOptimized: false)
!311 = !DISubroutineType(types: !312)
!312 = !{!313, !80, !243, !11}
!313 = !DIBasicType(name: "long long int", size: 64, encoding: DW_ATE_signed)
!314 = !DIImportedEntity(tag: DW_TAG_imported_declaration, scope: !24, entity: !315, file: !48, line: 258)
!315 = !DISubprogram(name: "wcstoull", scope: !34, file: !34, line: 493, type: !316, isLocal: false, isDefinition: false, flags: DIFlagPrototyped, isOptimized: false)
!316 = !DISubroutineType(types: !317)
!317 = !{!318, !80, !243, !11}
!318 = !DIBasicType(name: "long long unsigned int", size: 64, encoding: DW_ATE_unsigned)
!319 = !DIImportedEntity(tag: DW_TAG_imported_declaration, scope: !2, entity: !305, file: !48, line: 264)
!320 = !DIImportedEntity(tag: DW_TAG_imported_declaration, scope: !2, entity: !310, file: !48, line: 265)
!321 = !DIImportedEntity(tag: DW_TAG_imported_declaration, scope: !2, entity: !315, file: !48, line: 266)
!322 = !DIImportedEntity(tag: DW_TAG_imported_declaration, scope: !2, entity: !246, file: !48, line: 280)
!323 = !DIImportedEntity(tag: DW_TAG_imported_declaration, scope: !2, entity: !157, file: !48, line: 283)
!324 = !DIImportedEntity(tag: DW_TAG_imported_declaration, scope: !2, entity: !163, file: !48, line: 286)
!325 = !DIImportedEntity(tag: DW_TAG_imported_declaration, scope: !2, entity: !171, file: !48, line: 289)
!326 = !DIImportedEntity(tag: DW_TAG_imported_declaration, scope: !2, entity: !305, file: !48, line: 293)
!327 = !DIImportedEntity(tag: DW_TAG_imported_declaration, scope: !2, entity: !310, file: !48, line: 294)
!328 = !DIImportedEntity(tag: DW_TAG_imported_declaration, scope: !2, entity: !315, file: !48, line: 295)
!329 = !DIImportedEntity(tag: DW_TAG_imported_declaration, scope: !2, entity: !330, file: !331, line: 58)
!330 = distinct !DICompositeType(tag: DW_TAG_class_type, name: "exception_ptr", scope: !332, file: !331, line: 75, size: 64, flags: DIFlagTypePassByReference, elements: !333, identifier: "_ZTSNSt15__exception_ptr13exception_ptrE")
!331 = !DIFile(filename: "/usr/lib/gcc/x86_64-linux-gnu/5.4.0/../../../../include/c++/5.4.0/bits/exception_ptr.h", directory: "/mnt/Projects/LLVM-custom/test/Datarand")
!332 = !DINamespace(name: "__exception_ptr", scope: !2)
!333 = !{!334, !335, !339, !342, !343, !348, !349, !353, !359, !363, !367, !370, !371, !374, !377}
!334 = !DIDerivedType(tag: DW_TAG_member, name: "_M_exception_object", scope: !330, file: !331, line: 77, baseType: !154, size: 64)
!335 = !DISubprogram(name: "exception_ptr", scope: !330, file: !331, line: 79, type: !336, isLocal: false, isDefinition: false, scopeLine: 79, flags: DIFlagExplicit | DIFlagPrototyped, isOptimized: false)
!336 = !DISubroutineType(types: !337)
!337 = !{null, !338, !154}
!338 = !DIDerivedType(tag: DW_TAG_pointer_type, baseType: !330, size: 64, flags: DIFlagArtificial | DIFlagObjectPointer)
!339 = !DISubprogram(name: "_M_addref", linkageName: "_ZNSt15__exception_ptr13exception_ptr9_M_addrefEv", scope: !330, file: !331, line: 81, type: !340, isLocal: false, isDefinition: false, scopeLine: 81, flags: DIFlagPrototyped, isOptimized: false)
!340 = !DISubroutineType(types: !341)
!341 = !{null, !338}
!342 = !DISubprogram(name: "_M_release", linkageName: "_ZNSt15__exception_ptr13exception_ptr10_M_releaseEv", scope: !330, file: !331, line: 82, type: !340, isLocal: false, isDefinition: false, scopeLine: 82, flags: DIFlagPrototyped, isOptimized: false)
!343 = !DISubprogram(name: "_M_get", linkageName: "_ZNKSt15__exception_ptr13exception_ptr6_M_getEv", scope: !330, file: !331, line: 84, type: !344, isLocal: false, isDefinition: false, scopeLine: 84, flags: DIFlagPrototyped, isOptimized: false)
!344 = !DISubroutineType(types: !345)
!345 = !{!154, !346}
!346 = !DIDerivedType(tag: DW_TAG_pointer_type, baseType: !347, size: 64, flags: DIFlagArtificial | DIFlagObjectPointer)
!347 = !DIDerivedType(tag: DW_TAG_const_type, baseType: !330)
!348 = !DISubprogram(name: "exception_ptr", scope: !330, file: !331, line: 90, type: !340, isLocal: false, isDefinition: false, scopeLine: 90, flags: DIFlagPublic | DIFlagPrototyped, isOptimized: false)
!349 = !DISubprogram(name: "exception_ptr", scope: !330, file: !331, line: 92, type: !350, isLocal: false, isDefinition: false, scopeLine: 92, flags: DIFlagPublic | DIFlagPrototyped, isOptimized: false)
!350 = !DISubroutineType(types: !351)
!351 = !{null, !338, !352}
!352 = !DIDerivedType(tag: DW_TAG_reference_type, baseType: !347, size: 64)
!353 = !DISubprogram(name: "exception_ptr", scope: !330, file: !331, line: 95, type: !354, isLocal: false, isDefinition: false, scopeLine: 95, flags: DIFlagPublic | DIFlagPrototyped, isOptimized: false)
!354 = !DISubroutineType(types: !355)
!355 = !{null, !338, !356}
!356 = !DIDerivedType(tag: DW_TAG_typedef, name: "nullptr_t", scope: !2, file: !357, line: 200, baseType: !358)
!357 = !DIFile(filename: "/usr/lib/gcc/x86_64-linux-gnu/5.4.0/../../../../include/x86_64-linux-gnu/c++/5.4.0/bits/c++config.h", directory: "/mnt/Projects/LLVM-custom/test/Datarand")
!358 = !DIBasicType(tag: DW_TAG_unspecified_type, name: "decltype(nullptr)")
!359 = !DISubprogram(name: "exception_ptr", scope: !330, file: !331, line: 99, type: !360, isLocal: false, isDefinition: false, scopeLine: 99, flags: DIFlagPublic | DIFlagPrototyped, isOptimized: false)
!360 = !DISubroutineType(types: !361)
!361 = !{null, !338, !362}
!362 = !DIDerivedType(tag: DW_TAG_rvalue_reference_type, baseType: !330, size: 64)
!363 = !DISubprogram(name: "operator=", linkageName: "_ZNSt15__exception_ptr13exception_ptraSERKS0_", scope: !330, file: !331, line: 112, type: !364, isLocal: false, isDefinition: false, scopeLine: 112, flags: DIFlagPublic | DIFlagPrototyped, isOptimized: false)
!364 = !DISubroutineType(types: !365)
!365 = !{!366, !338, !352}
!366 = !DIDerivedType(tag: DW_TAG_reference_type, baseType: !330, size: 64)
!367 = !DISubprogram(name: "operator=", linkageName: "_ZNSt15__exception_ptr13exception_ptraSEOS0_", scope: !330, file: !331, line: 116, type: !368, isLocal: false, isDefinition: false, scopeLine: 116, flags: DIFlagPublic | DIFlagPrototyped, isOptimized: false)
!368 = !DISubroutineType(types: !369)
!369 = !{!366, !338, !362}
!370 = !DISubprogram(name: "~exception_ptr", scope: !330, file: !331, line: 123, type: !340, isLocal: false, isDefinition: false, scopeLine: 123, flags: DIFlagPublic | DIFlagPrototyped, isOptimized: false)
!371 = !DISubprogram(name: "swap", linkageName: "_ZNSt15__exception_ptr13exception_ptr4swapERS0_", scope: !330, file: !331, line: 126, type: !372, isLocal: false, isDefinition: false, scopeLine: 126, flags: DIFlagPublic | DIFlagPrototyped, isOptimized: false)
!372 = !DISubroutineType(types: !373)
!373 = !{null, !338, !366}
!374 = !DISubprogram(name: "operator bool", linkageName: "_ZNKSt15__exception_ptr13exception_ptrcvbEv", scope: !330, file: !331, line: 138, type: !375, isLocal: false, isDefinition: false, scopeLine: 138, flags: DIFlagPublic | DIFlagExplicit | DIFlagPrototyped, isOptimized: false)
!375 = !DISubroutineType(types: !376)
!376 = !{!13, !346}
!377 = !DISubprogram(name: "__cxa_exception_type", linkageName: "_ZNKSt15__exception_ptr13exception_ptr20__cxa_exception_typeEv", scope: !330, file: !331, line: 147, type: !378, isLocal: false, isDefinition: false, scopeLine: 147, flags: DIFlagPublic | DIFlagPrototyped, isOptimized: false)
!378 = !DISubroutineType(types: !379)
!379 = !{!380, !346}
!380 = !DIDerivedType(tag: DW_TAG_pointer_type, baseType: !381, size: 64)
!381 = !DIDerivedType(tag: DW_TAG_const_type, baseType: !382)
!382 = distinct !DICompositeType(tag: DW_TAG_class_type, name: "type_info", scope: !2, file: !331, line: 47, flags: DIFlagFwdDecl, identifier: "_ZTSSt9type_info")
!383 = !DIImportedEntity(tag: DW_TAG_imported_module, scope: !384, entity: !385, file: !386, line: 56)
!384 = !DINamespace(name: "__gnu_debug", scope: null)
!385 = !DINamespace(name: "__debug", scope: !2)
!386 = !DIFile(filename: "/usr/lib/gcc/x86_64-linux-gnu/5.4.0/../../../../include/c++/5.4.0/debug/debug.h", directory: "/mnt/Projects/LLVM-custom/test/Datarand")
!387 = !DIImportedEntity(tag: DW_TAG_imported_declaration, scope: !2, entity: !388, file: !391, line: 48)
!388 = !DIDerivedType(tag: DW_TAG_typedef, name: "int8_t", file: !389, line: 36, baseType: !390)
!389 = !DIFile(filename: "/usr/include/stdint.h", directory: "/mnt/Projects/LLVM-custom/test/Datarand")
!390 = !DIBasicType(name: "signed char", size: 8, encoding: DW_ATE_signed_char)
!391 = !DIFile(filename: "/usr/lib/gcc/x86_64-linux-gnu/5.4.0/../../../../include/c++/5.4.0/cstdint", directory: "/mnt/Projects/LLVM-custom/test/Datarand")
!392 = !DIImportedEntity(tag: DW_TAG_imported_declaration, scope: !2, entity: !393, file: !391, line: 49)
!393 = !DIDerivedType(tag: DW_TAG_typedef, name: "int16_t", file: !389, line: 37, baseType: !394)
!394 = !DIBasicType(name: "short", size: 16, encoding: DW_ATE_signed)
!395 = !DIImportedEntity(tag: DW_TAG_imported_declaration, scope: !2, entity: !396, file: !391, line: 50)
!396 = !DIDerivedType(tag: DW_TAG_typedef, name: "int32_t", file: !389, line: 38, baseType: !11)
!397 = !DIImportedEntity(tag: DW_TAG_imported_declaration, scope: !2, entity: !398, file: !391, line: 51)
!398 = !DIDerivedType(tag: DW_TAG_typedef, name: "int64_t", file: !389, line: 40, baseType: !214)
!399 = !DIImportedEntity(tag: DW_TAG_imported_declaration, scope: !2, entity: !400, file: !391, line: 53)
!400 = !DIDerivedType(tag: DW_TAG_typedef, name: "int_fast8_t", file: !389, line: 90, baseType: !390)
!401 = !DIImportedEntity(tag: DW_TAG_imported_declaration, scope: !2, entity: !402, file: !391, line: 54)
!402 = !DIDerivedType(tag: DW_TAG_typedef, name: "int_fast16_t", file: !389, line: 92, baseType: !214)
!403 = !DIImportedEntity(tag: DW_TAG_imported_declaration, scope: !2, entity: !404, file: !391, line: 55)
!404 = !DIDerivedType(tag: DW_TAG_typedef, name: "int_fast32_t", file: !389, line: 93, baseType: !214)
!405 = !DIImportedEntity(tag: DW_TAG_imported_declaration, scope: !2, entity: !406, file: !391, line: 56)
!406 = !DIDerivedType(tag: DW_TAG_typedef, name: "int_fast64_t", file: !389, line: 94, baseType: !214)
!407 = !DIImportedEntity(tag: DW_TAG_imported_declaration, scope: !2, entity: !408, file: !391, line: 58)
!408 = !DIDerivedType(tag: DW_TAG_typedef, name: "int_least8_t", file: !389, line: 65, baseType: !390)
!409 = !DIImportedEntity(tag: DW_TAG_imported_declaration, scope: !2, entity: !410, file: !391, line: 59)
!410 = !DIDerivedType(tag: DW_TAG_typedef, name: "int_least16_t", file: !389, line: 66, baseType: !394)
!411 = !DIImportedEntity(tag: DW_TAG_imported_declaration, scope: !2, entity: !412, file: !391, line: 60)
!412 = !DIDerivedType(tag: DW_TAG_typedef, name: "int_least32_t", file: !389, line: 67, baseType: !11)
!413 = !DIImportedEntity(tag: DW_TAG_imported_declaration, scope: !2, entity: !414, file: !391, line: 61)
!414 = !DIDerivedType(tag: DW_TAG_typedef, name: "int_least64_t", file: !389, line: 69, baseType: !214)
!415 = !DIImportedEntity(tag: DW_TAG_imported_declaration, scope: !2, entity: !416, file: !391, line: 63)
!416 = !DIDerivedType(tag: DW_TAG_typedef, name: "intmax_t", file: !389, line: 134, baseType: !214)
!417 = !DIImportedEntity(tag: DW_TAG_imported_declaration, scope: !2, entity: !418, file: !391, line: 64)
!418 = !DIDerivedType(tag: DW_TAG_typedef, name: "intptr_t", file: !389, line: 119, baseType: !214)
!419 = !DIImportedEntity(tag: DW_TAG_imported_declaration, scope: !2, entity: !420, file: !391, line: 66)
!420 = !DIDerivedType(tag: DW_TAG_typedef, name: "uint8_t", file: !389, line: 48, baseType: !421)
!421 = !DIBasicType(name: "unsigned char", size: 8, encoding: DW_ATE_unsigned_char)
!422 = !DIImportedEntity(tag: DW_TAG_imported_declaration, scope: !2, entity: !423, file: !391, line: 67)
!423 = !DIDerivedType(tag: DW_TAG_typedef, name: "uint16_t", file: !389, line: 49, baseType: !424)
!424 = !DIBasicType(name: "unsigned short", size: 16, encoding: DW_ATE_unsigned)
!425 = !DIImportedEntity(tag: DW_TAG_imported_declaration, scope: !2, entity: !426, file: !391, line: 68)
!426 = !DIDerivedType(tag: DW_TAG_typedef, name: "uint32_t", file: !389, line: 51, baseType: !25)
!427 = !DIImportedEntity(tag: DW_TAG_imported_declaration, scope: !2, entity: !428, file: !391, line: 69)
!428 = !DIDerivedType(tag: DW_TAG_typedef, name: "uint64_t", file: !389, line: 55, baseType: !104)
!429 = !DIImportedEntity(tag: DW_TAG_imported_declaration, scope: !2, entity: !430, file: !391, line: 71)
!430 = !DIDerivedType(tag: DW_TAG_typedef, name: "uint_fast8_t", file: !389, line: 103, baseType: !421)
!431 = !DIImportedEntity(tag: DW_TAG_imported_declaration, scope: !2, entity: !432, file: !391, line: 72)
!432 = !DIDerivedType(tag: DW_TAG_typedef, name: "uint_fast16_t", file: !389, line: 105, baseType: !104)
!433 = !DIImportedEntity(tag: DW_TAG_imported_declaration, scope: !2, entity: !434, file: !391, line: 73)
!434 = !DIDerivedType(tag: DW_TAG_typedef, name: "uint_fast32_t", file: !389, line: 106, baseType: !104)
!435 = !DIImportedEntity(tag: DW_TAG_imported_declaration, scope: !2, entity: !436, file: !391, line: 74)
!436 = !DIDerivedType(tag: DW_TAG_typedef, name: "uint_fast64_t", file: !389, line: 107, baseType: !104)
!437 = !DIImportedEntity(tag: DW_TAG_imported_declaration, scope: !2, entity: !438, file: !391, line: 76)
!438 = !DIDerivedType(tag: DW_TAG_typedef, name: "uint_least8_t", file: !389, line: 76, baseType: !421)
!439 = !DIImportedEntity(tag: DW_TAG_imported_declaration, scope: !2, entity: !440, file: !391, line: 77)
!440 = !DIDerivedType(tag: DW_TAG_typedef, name: "uint_least16_t", file: !389, line: 77, baseType: !424)
!441 = !DIImportedEntity(tag: DW_TAG_imported_declaration, scope: !2, entity: !442, file: !391, line: 78)
!442 = !DIDerivedType(tag: DW_TAG_typedef, name: "uint_least32_t", file: !389, line: 78, baseType: !25)
!443 = !DIImportedEntity(tag: DW_TAG_imported_declaration, scope: !2, entity: !444, file: !391, line: 79)
!444 = !DIDerivedType(tag: DW_TAG_typedef, name: "uint_least64_t", file: !389, line: 80, baseType: !104)
!445 = !DIImportedEntity(tag: DW_TAG_imported_declaration, scope: !2, entity: !446, file: !391, line: 81)
!446 = !DIDerivedType(tag: DW_TAG_typedef, name: "uintmax_t", file: !389, line: 135, baseType: !104)
!447 = !DIImportedEntity(tag: DW_TAG_imported_declaration, scope: !2, entity: !448, file: !391, line: 82)
!448 = !DIDerivedType(tag: DW_TAG_typedef, name: "uintptr_t", file: !389, line: 122, baseType: !104)
!449 = !DIImportedEntity(tag: DW_TAG_imported_declaration, scope: !2, entity: !450, file: !452, line: 53)
!450 = distinct !DICompositeType(tag: DW_TAG_structure_type, name: "lconv", file: !451, line: 53, flags: DIFlagFwdDecl, identifier: "_ZTS5lconv")
!451 = !DIFile(filename: "/usr/include/locale.h", directory: "/mnt/Projects/LLVM-custom/test/Datarand")
!452 = !DIFile(filename: "/usr/lib/gcc/x86_64-linux-gnu/5.4.0/../../../../include/c++/5.4.0/clocale", directory: "/mnt/Projects/LLVM-custom/test/Datarand")
!453 = !DIImportedEntity(tag: DW_TAG_imported_declaration, scope: !2, entity: !454, file: !452, line: 54)
!454 = !DISubprogram(name: "setlocale", scope: !451, file: !451, line: 124, type: !455, isLocal: false, isDefinition: false, flags: DIFlagPrototyped, isOptimized: false)
!455 = !DISubroutineType(types: !456)
!456 = !{!177, !11, !106}
!457 = !DIImportedEntity(tag: DW_TAG_imported_declaration, scope: !2, entity: !458, file: !452, line: 55)
!458 = !DISubprogram(name: "localeconv", scope: !451, file: !451, line: 127, type: !459, isLocal: false, isDefinition: false, flags: DIFlagPrototyped, isOptimized: false)
!459 = !DISubroutineType(types: !460)
!460 = !{!461}
!461 = !DIDerivedType(tag: DW_TAG_pointer_type, baseType: !450, size: 64)
!462 = !DIImportedEntity(tag: DW_TAG_imported_declaration, scope: !2, entity: !463, file: !467, line: 64)
!463 = !DISubprogram(name: "isalnum", scope: !464, file: !464, line: 110, type: !465, isLocal: false, isDefinition: false, flags: DIFlagPrototyped, isOptimized: false)
!464 = !DIFile(filename: "/usr/include/ctype.h", directory: "/mnt/Projects/LLVM-custom/test/Datarand")
!465 = !DISubroutineType(types: !466)
!466 = !{!11, !11}
!467 = !DIFile(filename: "/usr/lib/gcc/x86_64-linux-gnu/5.4.0/../../../../include/c++/5.4.0/cctype", directory: "/mnt/Projects/LLVM-custom/test/Datarand")
!468 = !DIImportedEntity(tag: DW_TAG_imported_declaration, scope: !2, entity: !469, file: !467, line: 65)
!469 = !DISubprogram(name: "isalpha", scope: !464, file: !464, line: 111, type: !465, isLocal: false, isDefinition: false, flags: DIFlagPrototyped, isOptimized: false)
!470 = !DIImportedEntity(tag: DW_TAG_imported_declaration, scope: !2, entity: !471, file: !467, line: 66)
!471 = !DISubprogram(name: "iscntrl", scope: !464, file: !464, line: 112, type: !465, isLocal: false, isDefinition: false, flags: DIFlagPrototyped, isOptimized: false)
!472 = !DIImportedEntity(tag: DW_TAG_imported_declaration, scope: !2, entity: !473, file: !467, line: 67)
!473 = !DISubprogram(name: "isdigit", scope: !464, file: !464, line: 113, type: !465, isLocal: false, isDefinition: false, flags: DIFlagPrototyped, isOptimized: false)
!474 = !DIImportedEntity(tag: DW_TAG_imported_declaration, scope: !2, entity: !475, file: !467, line: 68)
!475 = !DISubprogram(name: "isgraph", scope: !464, file: !464, line: 115, type: !465, isLocal: false, isDefinition: false, flags: DIFlagPrototyped, isOptimized: false)
!476 = !DIImportedEntity(tag: DW_TAG_imported_declaration, scope: !2, entity: !477, file: !467, line: 69)
!477 = !DISubprogram(name: "islower", scope: !464, file: !464, line: 114, type: !465, isLocal: false, isDefinition: false, flags: DIFlagPrototyped, isOptimized: false)
!478 = !DIImportedEntity(tag: DW_TAG_imported_declaration, scope: !2, entity: !479, file: !467, line: 70)
!479 = !DISubprogram(name: "isprint", scope: !464, file: !464, line: 116, type: !465, isLocal: false, isDefinition: false, flags: DIFlagPrototyped, isOptimized: false)
!480 = !DIImportedEntity(tag: DW_TAG_imported_declaration, scope: !2, entity: !481, file: !467, line: 71)
!481 = !DISubprogram(name: "ispunct", scope: !464, file: !464, line: 117, type: !465, isLocal: false, isDefinition: false, flags: DIFlagPrototyped, isOptimized: false)
!482 = !DIImportedEntity(tag: DW_TAG_imported_declaration, scope: !2, entity: !483, file: !467, line: 72)
!483 = !DISubprogram(name: "isspace", scope: !464, file: !464, line: 118, type: !465, isLocal: false, isDefinition: false, flags: DIFlagPrototyped, isOptimized: false)
!484 = !DIImportedEntity(tag: DW_TAG_imported_declaration, scope: !2, entity: !485, file: !467, line: 73)
!485 = !DISubprogram(name: "isupper", scope: !464, file: !464, line: 119, type: !465, isLocal: false, isDefinition: false, flags: DIFlagPrototyped, isOptimized: false)
!486 = !DIImportedEntity(tag: DW_TAG_imported_declaration, scope: !2, entity: !487, file: !467, line: 74)
!487 = !DISubprogram(name: "isxdigit", scope: !464, file: !464, line: 120, type: !465, isLocal: false, isDefinition: false, flags: DIFlagPrototyped, isOptimized: false)
!488 = !DIImportedEntity(tag: DW_TAG_imported_declaration, scope: !2, entity: !489, file: !467, line: 75)
!489 = !DISubprogram(name: "tolower", scope: !464, file: !464, line: 124, type: !465, isLocal: false, isDefinition: false, flags: DIFlagPrototyped, isOptimized: false)
!490 = !DIImportedEntity(tag: DW_TAG_imported_declaration, scope: !2, entity: !491, file: !467, line: 76)
!491 = !DISubprogram(name: "toupper", scope: !464, file: !464, line: 127, type: !465, isLocal: false, isDefinition: false, flags: DIFlagPrototyped, isOptimized: false)
!492 = !DIImportedEntity(tag: DW_TAG_imported_declaration, scope: !2, entity: !493, file: !467, line: 87)
!493 = !DISubprogram(name: "isblank", scope: !464, file: !464, line: 136, type: !465, isLocal: false, isDefinition: false, flags: DIFlagPrototyped, isOptimized: false)
!494 = !DIImportedEntity(tag: DW_TAG_imported_declaration, scope: !24, entity: !495, file: !496, line: 44)
!495 = !DIDerivedType(tag: DW_TAG_typedef, name: "size_t", scope: !2, file: !357, line: 196, baseType: !104)
!496 = !DIFile(filename: "/usr/lib/gcc/x86_64-linux-gnu/5.4.0/../../../../include/c++/5.4.0/ext/new_allocator.h", directory: "/mnt/Projects/LLVM-custom/test/Datarand")
!497 = !DIImportedEntity(tag: DW_TAG_imported_declaration, scope: !24, entity: !498, file: !496, line: 45)
!498 = !DIDerivedType(tag: DW_TAG_typedef, name: "ptrdiff_t", scope: !2, file: !357, line: 197, baseType: !214)
!499 = !DIImportedEntity(tag: DW_TAG_imported_declaration, scope: !2, entity: !500, file: !503, line: 118)
!500 = !DIDerivedType(tag: DW_TAG_typedef, name: "div_t", file: !501, line: 101, baseType: !502)
!501 = !DIFile(filename: "/usr/include/stdlib.h", directory: "/mnt/Projects/LLVM-custom/test/Datarand")
!502 = distinct !DICompositeType(tag: DW_TAG_structure_type, file: !501, line: 97, flags: DIFlagFwdDecl, identifier: "_ZTS5div_t")
!503 = !DIFile(filename: "/usr/lib/gcc/x86_64-linux-gnu/5.4.0/../../../../include/c++/5.4.0/cstdlib", directory: "/mnt/Projects/LLVM-custom/test/Datarand")
!504 = !DIImportedEntity(tag: DW_TAG_imported_declaration, scope: !2, entity: !505, file: !503, line: 119)
!505 = !DIDerivedType(tag: DW_TAG_typedef, name: "ldiv_t", file: !501, line: 109, baseType: !506)
!506 = distinct !DICompositeType(tag: DW_TAG_structure_type, file: !501, line: 105, size: 128, flags: DIFlagTypePassByValue, elements: !507, identifier: "_ZTS6ldiv_t")
!507 = !{!508, !509}
!508 = !DIDerivedType(tag: DW_TAG_member, name: "quot", scope: !506, file: !501, line: 107, baseType: !214, size: 64)
!509 = !DIDerivedType(tag: DW_TAG_member, name: "rem", scope: !506, file: !501, line: 108, baseType: !214, size: 64, offset: 64)
!510 = !DIImportedEntity(tag: DW_TAG_imported_declaration, scope: !2, entity: !511, file: !503, line: 121)
!511 = !DISubprogram(name: "abort", scope: !501, file: !501, line: 515, type: !512, isLocal: false, isDefinition: false, flags: DIFlagPrototyped | DIFlagNoReturn, isOptimized: false)
!512 = !DISubroutineType(types: !513)
!513 = !{null}
!514 = !DIImportedEntity(tag: DW_TAG_imported_declaration, scope: !2, entity: !515, file: !503, line: 122)
!515 = !DISubprogram(name: "abs", scope: !501, file: !501, line: 774, type: !465, isLocal: false, isDefinition: false, flags: DIFlagPrototyped, isOptimized: false)
!516 = !DIImportedEntity(tag: DW_TAG_imported_declaration, scope: !2, entity: !517, file: !503, line: 123)
!517 = !DISubprogram(name: "atexit", scope: !501, file: !501, line: 519, type: !518, isLocal: false, isDefinition: false, flags: DIFlagPrototyped, isOptimized: false)
!518 = !DISubroutineType(types: !519)
!519 = !{!11, !520}
!520 = !DIDerivedType(tag: DW_TAG_pointer_type, baseType: !512, size: 64)
!521 = !DIImportedEntity(tag: DW_TAG_imported_declaration, scope: !2, entity: !522, file: !503, line: 126)
!522 = !DISubprogram(name: "at_quick_exit", scope: !501, file: !501, line: 524, type: !518, isLocal: false, isDefinition: false, flags: DIFlagPrototyped, isOptimized: false)
!523 = !DIImportedEntity(tag: DW_TAG_imported_declaration, scope: !2, entity: !524, file: !503, line: 129)
!524 = !DISubprogram(name: "atof", scope: !501, file: !501, line: 144, type: !525, isLocal: false, isDefinition: false, flags: DIFlagPrototyped, isOptimized: false)
!525 = !DISubroutineType(types: !526)
!526 = !{!242, !106}
!527 = !DIImportedEntity(tag: DW_TAG_imported_declaration, scope: !2, entity: !528, file: !503, line: 130)
!528 = !DISubprogram(name: "atoi", scope: !501, file: !501, line: 147, type: !529, isLocal: false, isDefinition: false, flags: DIFlagPrototyped, isOptimized: false)
!529 = !DISubroutineType(types: !530)
!530 = !{!11, !106}
!531 = !DIImportedEntity(tag: DW_TAG_imported_declaration, scope: !2, entity: !532, file: !503, line: 131)
!532 = !DISubprogram(name: "atol", scope: !501, file: !501, line: 150, type: !533, isLocal: false, isDefinition: false, flags: DIFlagPrototyped, isOptimized: false)
!533 = !DISubroutineType(types: !534)
!534 = !{!214, !106}
!535 = !DIImportedEntity(tag: DW_TAG_imported_declaration, scope: !2, entity: !536, file: !503, line: 132)
!536 = !DISubprogram(name: "bsearch", scope: !501, file: !501, line: 754, type: !537, isLocal: false, isDefinition: false, flags: DIFlagPrototyped, isOptimized: false)
!537 = !DISubroutineType(types: !538)
!538 = !{!154, !539, !539, !103, !103, !541}
!539 = !DIDerivedType(tag: DW_TAG_pointer_type, baseType: !540, size: 64)
!540 = !DIDerivedType(tag: DW_TAG_const_type, baseType: null)
!541 = !DIDerivedType(tag: DW_TAG_typedef, name: "__compar_fn_t", file: !501, line: 741, baseType: !542)
!542 = !DIDerivedType(tag: DW_TAG_pointer_type, baseType: !543, size: 64)
!543 = !DISubroutineType(types: !544)
!544 = !{!11, !539, !539}
!545 = !DIImportedEntity(tag: DW_TAG_imported_declaration, scope: !2, entity: !546, file: !503, line: 133)
!546 = !DISubprogram(name: "calloc", scope: !501, file: !501, line: 468, type: !547, isLocal: false, isDefinition: false, flags: DIFlagPrototyped, isOptimized: false)
!547 = !DISubroutineType(types: !548)
!548 = !{!154, !103, !103}
!549 = !DIImportedEntity(tag: DW_TAG_imported_declaration, scope: !2, entity: !550, file: !503, line: 134)
!550 = !DISubprogram(name: "div", scope: !501, file: !501, line: 788, type: !551, isLocal: false, isDefinition: false, flags: DIFlagPrototyped, isOptimized: false)
!551 = !DISubroutineType(types: !552)
!552 = !{!500, !11, !11}
!553 = !DIImportedEntity(tag: DW_TAG_imported_declaration, scope: !2, entity: !554, file: !503, line: 135)
!554 = !DISubprogram(name: "exit", scope: !501, file: !501, line: 543, type: !555, isLocal: false, isDefinition: false, flags: DIFlagPrototyped | DIFlagNoReturn, isOptimized: false)
!555 = !DISubroutineType(types: !556)
!556 = !{null, !11}
!557 = !DIImportedEntity(tag: DW_TAG_imported_declaration, scope: !2, entity: !558, file: !503, line: 136)
!558 = !DISubprogram(name: "free", scope: !501, file: !501, line: 483, type: !559, isLocal: false, isDefinition: false, flags: DIFlagPrototyped, isOptimized: false)
!559 = !DISubroutineType(types: !560)
!560 = !{null, !154}
!561 = !DIImportedEntity(tag: DW_TAG_imported_declaration, scope: !2, entity: !562, file: !503, line: 137)
!562 = !DISubprogram(name: "getenv", scope: !501, file: !501, line: 564, type: !563, isLocal: false, isDefinition: false, flags: DIFlagPrototyped, isOptimized: false)
!563 = !DISubroutineType(types: !564)
!564 = !{!177, !106}
!565 = !DIImportedEntity(tag: DW_TAG_imported_declaration, scope: !2, entity: !566, file: !503, line: 138)
!566 = !DISubprogram(name: "labs", scope: !501, file: !501, line: 775, type: !567, isLocal: false, isDefinition: false, flags: DIFlagPrototyped, isOptimized: false)
!567 = !DISubroutineType(types: !568)
!568 = !{!214, !214}
!569 = !DIImportedEntity(tag: DW_TAG_imported_declaration, scope: !2, entity: !570, file: !503, line: 139)
!570 = !DISubprogram(name: "ldiv", scope: !501, file: !501, line: 790, type: !571, isLocal: false, isDefinition: false, flags: DIFlagPrototyped, isOptimized: false)
!571 = !DISubroutineType(types: !572)
!572 = !{!505, !214, !214}
!573 = !DIImportedEntity(tag: DW_TAG_imported_declaration, scope: !2, entity: !574, file: !503, line: 140)
!574 = !DISubprogram(name: "malloc", scope: !501, file: !501, line: 466, type: !575, isLocal: false, isDefinition: false, flags: DIFlagPrototyped, isOptimized: false)
!575 = !DISubroutineType(types: !576)
!576 = !{!154, !103}
!577 = !DIImportedEntity(tag: DW_TAG_imported_declaration, scope: !2, entity: !578, file: !503, line: 142)
!578 = !DISubprogram(name: "mblen", scope: !501, file: !501, line: 862, type: !579, isLocal: false, isDefinition: false, flags: DIFlagPrototyped, isOptimized: false)
!579 = !DISubroutineType(types: !580)
!580 = !{!11, !106, !103}
!581 = !DIImportedEntity(tag: DW_TAG_imported_declaration, scope: !2, entity: !582, file: !503, line: 143)
!582 = !DISubprogram(name: "mbstowcs", scope: !501, file: !501, line: 873, type: !583, isLocal: false, isDefinition: false, flags: DIFlagPrototyped, isOptimized: false)
!583 = !DISubroutineType(types: !584)
!584 = !{!103, !70, !105, !103}
!585 = !DIImportedEntity(tag: DW_TAG_imported_declaration, scope: !2, entity: !586, file: !503, line: 144)
!586 = !DISubprogram(name: "mbtowc", scope: !501, file: !501, line: 865, type: !587, isLocal: false, isDefinition: false, flags: DIFlagPrototyped, isOptimized: false)
!587 = !DISubroutineType(types: !588)
!588 = !{!11, !70, !105, !103}
!589 = !DIImportedEntity(tag: DW_TAG_imported_declaration, scope: !2, entity: !590, file: !503, line: 146)
!590 = !DISubprogram(name: "qsort", scope: !501, file: !501, line: 764, type: !591, isLocal: false, isDefinition: false, flags: DIFlagPrototyped, isOptimized: false)
!591 = !DISubroutineType(types: !592)
!592 = !{null, !154, !103, !103, !541}
!593 = !DIImportedEntity(tag: DW_TAG_imported_declaration, scope: !2, entity: !594, file: !503, line: 149)
!594 = !DISubprogram(name: "quick_exit", scope: !501, file: !501, line: 549, type: !555, isLocal: false, isDefinition: false, flags: DIFlagPrototyped | DIFlagNoReturn, isOptimized: false)
!595 = !DIImportedEntity(tag: DW_TAG_imported_declaration, scope: !2, entity: !596, file: !503, line: 152)
!596 = !DISubprogram(name: "rand", scope: !501, file: !501, line: 374, type: !597, isLocal: false, isDefinition: false, flags: DIFlagPrototyped, isOptimized: false)
!597 = !DISubroutineType(types: !598)
!598 = !{!11}
!599 = !DIImportedEntity(tag: DW_TAG_imported_declaration, scope: !2, entity: !600, file: !503, line: 153)
!600 = !DISubprogram(name: "realloc", scope: !501, file: !501, line: 480, type: !601, isLocal: false, isDefinition: false, flags: DIFlagPrototyped, isOptimized: false)
!601 = !DISubroutineType(types: !602)
!602 = !{!154, !154, !103}
!603 = !DIImportedEntity(tag: DW_TAG_imported_declaration, scope: !2, entity: !604, file: !503, line: 154)
!604 = !DISubprogram(name: "srand", scope: !501, file: !501, line: 376, type: !605, isLocal: false, isDefinition: false, flags: DIFlagPrototyped, isOptimized: false)
!605 = !DISubroutineType(types: !606)
!606 = !{null, !25}
!607 = !DIImportedEntity(tag: DW_TAG_imported_declaration, scope: !2, entity: !608, file: !503, line: 155)
!608 = !DISubprogram(name: "strtod", scope: !501, file: !501, line: 164, type: !609, isLocal: false, isDefinition: false, flags: DIFlagPrototyped, isOptimized: false)
!609 = !DISubroutineType(types: !610)
!610 = !{!242, !105, !611}
!611 = !DIDerivedType(tag: DW_TAG_restrict_type, baseType: !612)
!612 = !DIDerivedType(tag: DW_TAG_pointer_type, baseType: !177, size: 64)
!613 = !DIImportedEntity(tag: DW_TAG_imported_declaration, scope: !2, entity: !614, file: !503, line: 156)
!614 = !DISubprogram(name: "strtol", scope: !501, file: !501, line: 183, type: !615, isLocal: false, isDefinition: false, flags: DIFlagPrototyped, isOptimized: false)
!615 = !DISubroutineType(types: !616)
!616 = !{!214, !105, !611, !11}
!617 = !DIImportedEntity(tag: DW_TAG_imported_declaration, scope: !2, entity: !618, file: !503, line: 157)
!618 = !DISubprogram(name: "strtoul", scope: !501, file: !501, line: 187, type: !619, isLocal: false, isDefinition: false, flags: DIFlagPrototyped, isOptimized: false)
!619 = !DISubroutineType(types: !620)
!620 = !{!104, !105, !611, !11}
!621 = !DIImportedEntity(tag: DW_TAG_imported_declaration, scope: !2, entity: !622, file: !503, line: 158)
!622 = !DISubprogram(name: "system", scope: !501, file: !501, line: 716, type: !529, isLocal: false, isDefinition: false, flags: DIFlagPrototyped, isOptimized: false)
!623 = !DIImportedEntity(tag: DW_TAG_imported_declaration, scope: !2, entity: !624, file: !503, line: 160)
!624 = !DISubprogram(name: "wcstombs", scope: !501, file: !501, line: 876, type: !625, isLocal: false, isDefinition: false, flags: DIFlagPrototyped, isOptimized: false)
!625 = !DISubroutineType(types: !626)
!626 = !{!103, !176, !80, !103}
!627 = !DIImportedEntity(tag: DW_TAG_imported_declaration, scope: !2, entity: !628, file: !503, line: 161)
!628 = !DISubprogram(name: "wctomb", scope: !501, file: !501, line: 869, type: !629, isLocal: false, isDefinition: false, flags: DIFlagPrototyped, isOptimized: false)
!629 = !DISubroutineType(types: !630)
!630 = !{!11, !177, !69}
!631 = !DIImportedEntity(tag: DW_TAG_imported_declaration, scope: !24, entity: !632, file: !503, line: 214)
!632 = !DIDerivedType(tag: DW_TAG_typedef, name: "lldiv_t", file: !501, line: 121, baseType: !633)
!633 = distinct !DICompositeType(tag: DW_TAG_structure_type, file: !501, line: 117, size: 128, flags: DIFlagTypePassByValue, elements: !634, identifier: "_ZTS7lldiv_t")
!634 = !{!635, !636}
!635 = !DIDerivedType(tag: DW_TAG_member, name: "quot", scope: !633, file: !501, line: 119, baseType: !313, size: 64)
!636 = !DIDerivedType(tag: DW_TAG_member, name: "rem", scope: !633, file: !501, line: 120, baseType: !313, size: 64, offset: 64)
!637 = !DIImportedEntity(tag: DW_TAG_imported_declaration, scope: !24, entity: !638, file: !503, line: 220)
!638 = !DISubprogram(name: "_Exit", scope: !501, file: !501, line: 557, type: !555, isLocal: false, isDefinition: false, flags: DIFlagPrototyped | DIFlagNoReturn, isOptimized: false)
!639 = !DIImportedEntity(tag: DW_TAG_imported_declaration, scope: !24, entity: !640, file: !503, line: 224)
!640 = !DISubprogram(name: "llabs", scope: !501, file: !501, line: 779, type: !641, isLocal: false, isDefinition: false, flags: DIFlagPrototyped, isOptimized: false)
!641 = !DISubroutineType(types: !642)
!642 = !{!313, !313}
!643 = !DIImportedEntity(tag: DW_TAG_imported_declaration, scope: !24, entity: !644, file: !503, line: 230)
!644 = !DISubprogram(name: "lldiv", scope: !501, file: !501, line: 796, type: !645, isLocal: false, isDefinition: false, flags: DIFlagPrototyped, isOptimized: false)
!645 = !DISubroutineType(types: !646)
!646 = !{!632, !313, !313}
!647 = !DIImportedEntity(tag: DW_TAG_imported_declaration, scope: !24, entity: !648, file: !503, line: 241)
!648 = !DISubprogram(name: "atoll", scope: !501, file: !501, line: 157, type: !649, isLocal: false, isDefinition: false, flags: DIFlagPrototyped, isOptimized: false)
!649 = !DISubroutineType(types: !650)
!650 = !{!313, !106}
!651 = !DIImportedEntity(tag: DW_TAG_imported_declaration, scope: !24, entity: !652, file: !503, line: 242)
!652 = !DISubprogram(name: "strtoll", scope: !501, file: !501, line: 209, type: !653, isLocal: false, isDefinition: false, flags: DIFlagPrototyped, isOptimized: false)
!653 = !DISubroutineType(types: !654)
!654 = !{!313, !105, !611, !11}
!655 = !DIImportedEntity(tag: DW_TAG_imported_declaration, scope: !24, entity: !656, file: !503, line: 243)
!656 = !DISubprogram(name: "strtoull", scope: !501, file: !501, line: 214, type: !657, isLocal: false, isDefinition: false, flags: DIFlagPrototyped, isOptimized: false)
!657 = !DISubroutineType(types: !658)
!658 = !{!318, !105, !611, !11}
!659 = !DIImportedEntity(tag: DW_TAG_imported_declaration, scope: !24, entity: !660, file: !503, line: 245)
!660 = !DISubprogram(name: "strtof", scope: !501, file: !501, line: 172, type: !661, isLocal: false, isDefinition: false, flags: DIFlagPrototyped, isOptimized: false)
!661 = !DISubroutineType(types: !662)
!662 = !{!249, !105, !611}
!663 = !DIImportedEntity(tag: DW_TAG_imported_declaration, scope: !24, entity: !664, file: !503, line: 246)
!664 = !DISubprogram(name: "strtold", scope: !501, file: !501, line: 175, type: !665, isLocal: false, isDefinition: false, flags: DIFlagPrototyped, isOptimized: false)
!665 = !DISubroutineType(types: !666)
!666 = !{!308, !105, !611}
!667 = !DIImportedEntity(tag: DW_TAG_imported_declaration, scope: !2, entity: !632, file: !503, line: 254)
!668 = !DIImportedEntity(tag: DW_TAG_imported_declaration, scope: !2, entity: !638, file: !503, line: 256)
!669 = !DIImportedEntity(tag: DW_TAG_imported_declaration, scope: !2, entity: !640, file: !503, line: 258)
!670 = !DIImportedEntity(tag: DW_TAG_imported_declaration, scope: !2, entity: !671, file: !503, line: 259)
!671 = !DISubprogram(name: "div", linkageName: "_ZN9__gnu_cxx3divExx", scope: !24, file: !503, line: 227, type: !645, isLocal: false, isDefinition: false, flags: DIFlagPrototyped, isOptimized: false)
!672 = !DIImportedEntity(tag: DW_TAG_imported_declaration, scope: !2, entity: !644, file: !503, line: 260)
!673 = !DIImportedEntity(tag: DW_TAG_imported_declaration, scope: !2, entity: !648, file: !503, line: 262)
!674 = !DIImportedEntity(tag: DW_TAG_imported_declaration, scope: !2, entity: !660, file: !503, line: 263)
!675 = !DIImportedEntity(tag: DW_TAG_imported_declaration, scope: !2, entity: !652, file: !503, line: 264)
!676 = !DIImportedEntity(tag: DW_TAG_imported_declaration, scope: !2, entity: !656, file: !503, line: 265)
!677 = !DIImportedEntity(tag: DW_TAG_imported_declaration, scope: !2, entity: !664, file: !503, line: 266)
!678 = !DIImportedEntity(tag: DW_TAG_imported_declaration, scope: !2, entity: !679, file: !680, line: 98)
!679 = !DIDerivedType(tag: DW_TAG_typedef, name: "FILE", file: !62, line: 48, baseType: !63)
!680 = !DIFile(filename: "/usr/lib/gcc/x86_64-linux-gnu/5.4.0/../../../../include/c++/5.4.0/cstdio", directory: "/mnt/Projects/LLVM-custom/test/Datarand")
!681 = !DIImportedEntity(tag: DW_TAG_imported_declaration, scope: !2, entity: !682, file: !680, line: 99)
!682 = !DIDerivedType(tag: DW_TAG_typedef, name: "fpos_t", file: !62, line: 110, baseType: !683)
!683 = !DIDerivedType(tag: DW_TAG_typedef, name: "_G_fpos_t", file: !684, line: 25, baseType: !685)
!684 = !DIFile(filename: "/usr/include/_G_config.h", directory: "/mnt/Projects/LLVM-custom/test/Datarand")
!685 = distinct !DICompositeType(tag: DW_TAG_structure_type, file: !684, line: 21, flags: DIFlagFwdDecl, identifier: "_ZTS9_G_fpos_t")
!686 = !DIImportedEntity(tag: DW_TAG_imported_declaration, scope: !2, entity: !687, file: !680, line: 101)
!687 = !DISubprogram(name: "clearerr", scope: !62, file: !62, line: 826, type: !688, isLocal: false, isDefinition: false, flags: DIFlagPrototyped, isOptimized: false)
!688 = !DISubroutineType(types: !689)
!689 = !{null, !690}
!690 = !DIDerivedType(tag: DW_TAG_pointer_type, baseType: !679, size: 64)
!691 = !DIImportedEntity(tag: DW_TAG_imported_declaration, scope: !2, entity: !692, file: !680, line: 102)
!692 = !DISubprogram(name: "fclose", scope: !62, file: !62, line: 237, type: !693, isLocal: false, isDefinition: false, flags: DIFlagPrototyped, isOptimized: false)
!693 = !DISubroutineType(types: !694)
!694 = !{!11, !690}
!695 = !DIImportedEntity(tag: DW_TAG_imported_declaration, scope: !2, entity: !696, file: !680, line: 103)
!696 = !DISubprogram(name: "feof", scope: !62, file: !62, line: 828, type: !693, isLocal: false, isDefinition: false, flags: DIFlagPrototyped, isOptimized: false)
!697 = !DIImportedEntity(tag: DW_TAG_imported_declaration, scope: !2, entity: !698, file: !680, line: 104)
!698 = !DISubprogram(name: "ferror", scope: !62, file: !62, line: 830, type: !693, isLocal: false, isDefinition: false, flags: DIFlagPrototyped, isOptimized: false)
!699 = !DIImportedEntity(tag: DW_TAG_imported_declaration, scope: !2, entity: !700, file: !680, line: 105)
!700 = !DISubprogram(name: "fflush", scope: !62, file: !62, line: 242, type: !693, isLocal: false, isDefinition: false, flags: DIFlagPrototyped, isOptimized: false)
!701 = !DIImportedEntity(tag: DW_TAG_imported_declaration, scope: !2, entity: !702, file: !680, line: 106)
!702 = !DISubprogram(name: "fgetc", scope: !62, file: !62, line: 531, type: !693, isLocal: false, isDefinition: false, flags: DIFlagPrototyped, isOptimized: false)
!703 = !DIImportedEntity(tag: DW_TAG_imported_declaration, scope: !2, entity: !704, file: !680, line: 107)
!704 = !DISubprogram(name: "fgetpos", scope: !62, file: !62, line: 798, type: !705, isLocal: false, isDefinition: false, flags: DIFlagPrototyped, isOptimized: false)
!705 = !DISubroutineType(types: !706)
!706 = !{!11, !707, !708}
!707 = !DIDerivedType(tag: DW_TAG_restrict_type, baseType: !690)
!708 = !DIDerivedType(tag: DW_TAG_restrict_type, baseType: !709)
!709 = !DIDerivedType(tag: DW_TAG_pointer_type, baseType: !682, size: 64)
!710 = !DIImportedEntity(tag: DW_TAG_imported_declaration, scope: !2, entity: !711, file: !680, line: 108)
!711 = !DISubprogram(name: "fgets", scope: !62, file: !62, line: 622, type: !712, isLocal: false, isDefinition: false, flags: DIFlagPrototyped, isOptimized: false)
!712 = !DISubroutineType(types: !713)
!713 = !{!177, !176, !11, !707}
!714 = !DIImportedEntity(tag: DW_TAG_imported_declaration, scope: !2, entity: !715, file: !680, line: 109)
!715 = !DISubprogram(name: "fopen", scope: !62, file: !62, line: 272, type: !716, isLocal: false, isDefinition: false, flags: DIFlagPrototyped, isOptimized: false)
!716 = !DISubroutineType(types: !717)
!717 = !{!690, !105, !105}
!718 = !DIImportedEntity(tag: DW_TAG_imported_declaration, scope: !2, entity: !719, file: !680, line: 110)
!719 = !DISubprogram(name: "fprintf", scope: !62, file: !62, line: 356, type: !720, isLocal: false, isDefinition: false, flags: DIFlagPrototyped, isOptimized: false)
!720 = !DISubroutineType(types: !721)
!721 = !{!11, !707, !105, null}
!722 = !DIImportedEntity(tag: DW_TAG_imported_declaration, scope: !2, entity: !723, file: !680, line: 111)
!723 = !DISubprogram(name: "fputc", scope: !62, file: !62, line: 573, type: !724, isLocal: false, isDefinition: false, flags: DIFlagPrototyped, isOptimized: false)
!724 = !DISubroutineType(types: !725)
!725 = !{!11, !11, !690}
!726 = !DIImportedEntity(tag: DW_TAG_imported_declaration, scope: !2, entity: !727, file: !680, line: 112)
!727 = !DISubprogram(name: "fputs", scope: !62, file: !62, line: 689, type: !728, isLocal: false, isDefinition: false, flags: DIFlagPrototyped, isOptimized: false)
!728 = !DISubroutineType(types: !729)
!729 = !{!11, !105, !707}
!730 = !DIImportedEntity(tag: DW_TAG_imported_declaration, scope: !2, entity: !731, file: !680, line: 113)
!731 = !DISubprogram(name: "fread", scope: !62, file: !62, line: 709, type: !732, isLocal: false, isDefinition: false, flags: DIFlagPrototyped, isOptimized: false)
!732 = !DISubroutineType(types: !733)
!733 = !{!103, !734, !103, !103, !707}
!734 = !DIDerivedType(tag: DW_TAG_restrict_type, baseType: !154)
!735 = !DIImportedEntity(tag: DW_TAG_imported_declaration, scope: !2, entity: !736, file: !680, line: 114)
!736 = !DISubprogram(name: "freopen", scope: !62, file: !62, line: 278, type: !737, isLocal: false, isDefinition: false, flags: DIFlagPrototyped, isOptimized: false)
!737 = !DISubroutineType(types: !738)
!738 = !{!690, !105, !105, !707}
!739 = !DIImportedEntity(tag: DW_TAG_imported_declaration, scope: !2, entity: !740, file: !680, line: 115)
!740 = !DISubprogram(name: "fscanf", scope: !62, file: !62, line: 425, type: !720, isLocal: false, isDefinition: false, flags: DIFlagPrototyped, isOptimized: false)
!741 = !DIImportedEntity(tag: DW_TAG_imported_declaration, scope: !2, entity: !742, file: !680, line: 116)
!742 = !DISubprogram(name: "fseek", scope: !62, file: !62, line: 749, type: !743, isLocal: false, isDefinition: false, flags: DIFlagPrototyped, isOptimized: false)
!743 = !DISubroutineType(types: !744)
!744 = !{!11, !690, !214, !11}
!745 = !DIImportedEntity(tag: DW_TAG_imported_declaration, scope: !2, entity: !746, file: !680, line: 117)
!746 = !DISubprogram(name: "fsetpos", scope: !62, file: !62, line: 803, type: !747, isLocal: false, isDefinition: false, flags: DIFlagPrototyped, isOptimized: false)
!747 = !DISubroutineType(types: !748)
!748 = !{!11, !690, !749}
!749 = !DIDerivedType(tag: DW_TAG_pointer_type, baseType: !750, size: 64)
!750 = !DIDerivedType(tag: DW_TAG_const_type, baseType: !682)
!751 = !DIImportedEntity(tag: DW_TAG_imported_declaration, scope: !2, entity: !752, file: !680, line: 118)
!752 = !DISubprogram(name: "ftell", scope: !62, file: !62, line: 754, type: !753, isLocal: false, isDefinition: false, flags: DIFlagPrototyped, isOptimized: false)
!753 = !DISubroutineType(types: !754)
!754 = !{!214, !690}
!755 = !DIImportedEntity(tag: DW_TAG_imported_declaration, scope: !2, entity: !756, file: !680, line: 119)
!756 = !DISubprogram(name: "fwrite", scope: !62, file: !62, line: 715, type: !757, isLocal: false, isDefinition: false, flags: DIFlagPrototyped, isOptimized: false)
!757 = !DISubroutineType(types: !758)
!758 = !{!103, !759, !103, !103, !707}
!759 = !DIDerivedType(tag: DW_TAG_restrict_type, baseType: !539)
!760 = !DIImportedEntity(tag: DW_TAG_imported_declaration, scope: !2, entity: !761, file: !680, line: 120)
!761 = !DISubprogram(name: "getc", scope: !62, file: !62, line: 532, type: !693, isLocal: false, isDefinition: false, flags: DIFlagPrototyped, isOptimized: false)
!762 = !DIImportedEntity(tag: DW_TAG_imported_declaration, scope: !2, entity: !763, file: !680, line: 121)
!763 = !DISubprogram(name: "getchar", scope: !62, file: !62, line: 538, type: !597, isLocal: false, isDefinition: false, flags: DIFlagPrototyped, isOptimized: false)
!764 = !DIImportedEntity(tag: DW_TAG_imported_declaration, scope: !2, entity: !765, file: !680, line: 126)
!765 = !DISubprogram(name: "perror", scope: !62, file: !62, line: 846, type: !766, isLocal: false, isDefinition: false, flags: DIFlagPrototyped, isOptimized: false)
!766 = !DISubroutineType(types: !767)
!767 = !{null, !106}
!768 = !DIImportedEntity(tag: DW_TAG_imported_declaration, scope: !2, entity: !769, file: !680, line: 127)
!769 = !DISubprogram(name: "printf", scope: !62, file: !62, line: 362, type: !770, isLocal: false, isDefinition: false, flags: DIFlagPrototyped, isOptimized: false)
!770 = !DISubroutineType(types: !771)
!771 = !{!11, !105, null}
!772 = !DIImportedEntity(tag: DW_TAG_imported_declaration, scope: !2, entity: !773, file: !680, line: 128)
!773 = !DISubprogram(name: "putc", scope: !62, file: !62, line: 574, type: !724, isLocal: false, isDefinition: false, flags: DIFlagPrototyped, isOptimized: false)
!774 = !DIImportedEntity(tag: DW_TAG_imported_declaration, scope: !2, entity: !775, file: !680, line: 129)
!775 = !DISubprogram(name: "putchar", scope: !62, file: !62, line: 580, type: !465, isLocal: false, isDefinition: false, flags: DIFlagPrototyped, isOptimized: false)
!776 = !DIImportedEntity(tag: DW_TAG_imported_declaration, scope: !2, entity: !777, file: !680, line: 130)
!777 = !DISubprogram(name: "puts", scope: !62, file: !62, line: 695, type: !529, isLocal: false, isDefinition: false, flags: DIFlagPrototyped, isOptimized: false)
!778 = !DIImportedEntity(tag: DW_TAG_imported_declaration, scope: !2, entity: !779, file: !680, line: 131)
!779 = !DISubprogram(name: "remove", scope: !62, file: !62, line: 178, type: !529, isLocal: false, isDefinition: false, flags: DIFlagPrototyped, isOptimized: false)
!780 = !DIImportedEntity(tag: DW_TAG_imported_declaration, scope: !2, entity: !781, file: !680, line: 132)
!781 = !DISubprogram(name: "rename", scope: !62, file: !62, line: 180, type: !782, isLocal: false, isDefinition: false, flags: DIFlagPrototyped, isOptimized: false)
!782 = !DISubroutineType(types: !783)
!783 = !{!11, !106, !106}
!784 = !DIImportedEntity(tag: DW_TAG_imported_declaration, scope: !2, entity: !785, file: !680, line: 133)
!785 = !DISubprogram(name: "rewind", scope: !62, file: !62, line: 759, type: !688, isLocal: false, isDefinition: false, flags: DIFlagPrototyped, isOptimized: false)
!786 = !DIImportedEntity(tag: DW_TAG_imported_declaration, scope: !2, entity: !787, file: !680, line: 134)
!787 = !DISubprogram(name: "scanf", scope: !62, file: !62, line: 431, type: !770, isLocal: false, isDefinition: false, flags: DIFlagPrototyped, isOptimized: false)
!788 = !DIImportedEntity(tag: DW_TAG_imported_declaration, scope: !2, entity: !789, file: !680, line: 135)
!789 = !DISubprogram(name: "setbuf", scope: !62, file: !62, line: 332, type: !790, isLocal: false, isDefinition: false, flags: DIFlagPrototyped, isOptimized: false)
!790 = !DISubroutineType(types: !791)
!791 = !{null, !707, !176}
!792 = !DIImportedEntity(tag: DW_TAG_imported_declaration, scope: !2, entity: !793, file: !680, line: 136)
!793 = !DISubprogram(name: "setvbuf", scope: !62, file: !62, line: 336, type: !794, isLocal: false, isDefinition: false, flags: DIFlagPrototyped, isOptimized: false)
!794 = !DISubroutineType(types: !795)
!795 = !{!11, !707, !176, !11, !103}
!796 = !DIImportedEntity(tag: DW_TAG_imported_declaration, scope: !2, entity: !797, file: !680, line: 137)
!797 = !DISubprogram(name: "sprintf", scope: !62, file: !62, line: 364, type: !798, isLocal: false, isDefinition: false, flags: DIFlagPrototyped, isOptimized: false)
!798 = !DISubroutineType(types: !799)
!799 = !{!11, !176, !105, null}
!800 = !DIImportedEntity(tag: DW_TAG_imported_declaration, scope: !2, entity: !801, file: !680, line: 138)
!801 = !DISubprogram(name: "sscanf", scope: !62, file: !62, line: 433, type: !802, isLocal: false, isDefinition: false, flags: DIFlagPrototyped, isOptimized: false)
!802 = !DISubroutineType(types: !803)
!803 = !{!11, !105, !105, null}
!804 = !DIImportedEntity(tag: DW_TAG_imported_declaration, scope: !2, entity: !805, file: !680, line: 139)
!805 = !DISubprogram(name: "tmpfile", scope: !62, file: !62, line: 195, type: !806, isLocal: false, isDefinition: false, flags: DIFlagPrototyped, isOptimized: false)
!806 = !DISubroutineType(types: !807)
!807 = !{!690}
!808 = !DIImportedEntity(tag: DW_TAG_imported_declaration, scope: !2, entity: !809, file: !680, line: 141)
!809 = !DISubprogram(name: "tmpnam", scope: !62, file: !62, line: 209, type: !810, isLocal: false, isDefinition: false, flags: DIFlagPrototyped, isOptimized: false)
!810 = !DISubroutineType(types: !811)
!811 = !{!177, !177}
!812 = !DIImportedEntity(tag: DW_TAG_imported_declaration, scope: !2, entity: !813, file: !680, line: 143)
!813 = !DISubprogram(name: "ungetc", scope: !62, file: !62, line: 702, type: !724, isLocal: false, isDefinition: false, flags: DIFlagPrototyped, isOptimized: false)
!814 = !DIImportedEntity(tag: DW_TAG_imported_declaration, scope: !2, entity: !815, file: !680, line: 144)
!815 = !DISubprogram(name: "vfprintf", scope: !62, file: !62, line: 371, type: !816, isLocal: false, isDefinition: false, flags: DIFlagPrototyped, isOptimized: false)
!816 = !DISubroutineType(types: !817)
!817 = !{!11, !707, !105, !148}
!818 = !DIImportedEntity(tag: DW_TAG_imported_declaration, scope: !2, entity: !819, file: !680, line: 145)
!819 = !DISubprogram(name: "vprintf", scope: !62, file: !62, line: 377, type: !820, isLocal: false, isDefinition: false, flags: DIFlagPrototyped, isOptimized: false)
!820 = !DISubroutineType(types: !821)
!821 = !{!11, !105, !148}
!822 = !DIImportedEntity(tag: DW_TAG_imported_declaration, scope: !2, entity: !823, file: !680, line: 146)
!823 = !DISubprogram(name: "vsprintf", scope: !62, file: !62, line: 379, type: !824, isLocal: false, isDefinition: false, flags: DIFlagPrototyped, isOptimized: false)
!824 = !DISubroutineType(types: !825)
!825 = !{!11, !176, !105, !148}
!826 = !DIImportedEntity(tag: DW_TAG_imported_declaration, scope: !24, entity: !827, file: !680, line: 175)
!827 = !DISubprogram(name: "snprintf", scope: !62, file: !62, line: 386, type: !828, isLocal: false, isDefinition: false, flags: DIFlagPrototyped, isOptimized: false)
!828 = !DISubroutineType(types: !829)
!829 = !{!11, !176, !103, !105, null}
!830 = !DIImportedEntity(tag: DW_TAG_imported_declaration, scope: !24, entity: !831, file: !680, line: 176)
!831 = !DISubprogram(name: "vfscanf", scope: !62, file: !62, line: 471, type: !816, isLocal: false, isDefinition: false, flags: DIFlagPrototyped, isOptimized: false)
!832 = !DIImportedEntity(tag: DW_TAG_imported_declaration, scope: !24, entity: !833, file: !680, line: 177)
!833 = !DISubprogram(name: "vscanf", scope: !62, file: !62, line: 479, type: !820, isLocal: false, isDefinition: false, flags: DIFlagPrototyped, isOptimized: false)
!834 = !DIImportedEntity(tag: DW_TAG_imported_declaration, scope: !24, entity: !835, file: !680, line: 178)
!835 = !DISubprogram(name: "vsnprintf", scope: !62, file: !62, line: 390, type: !836, isLocal: false, isDefinition: false, flags: DIFlagPrototyped, isOptimized: false)
!836 = !DISubroutineType(types: !837)
!837 = !{!11, !176, !103, !105, !148}
!838 = !DIImportedEntity(tag: DW_TAG_imported_declaration, scope: !24, entity: !839, file: !680, line: 179)
!839 = !DISubprogram(name: "vsscanf", scope: !62, file: !62, line: 483, type: !840, isLocal: false, isDefinition: false, flags: DIFlagPrototyped, isOptimized: false)
!840 = !DISubroutineType(types: !841)
!841 = !{!11, !105, !105, !148}
!842 = !DIImportedEntity(tag: DW_TAG_imported_declaration, scope: !2, entity: !827, file: !680, line: 185)
!843 = !DIImportedEntity(tag: DW_TAG_imported_declaration, scope: !2, entity: !831, file: !680, line: 186)
!844 = !DIImportedEntity(tag: DW_TAG_imported_declaration, scope: !2, entity: !833, file: !680, line: 187)
!845 = !DIImportedEntity(tag: DW_TAG_imported_declaration, scope: !2, entity: !835, file: !680, line: 188)
!846 = !DIImportedEntity(tag: DW_TAG_imported_declaration, scope: !2, entity: !839, file: !680, line: 189)
!847 = !DIImportedEntity(tag: DW_TAG_imported_declaration, scope: !2, entity: !848, file: !854, line: 82)
!848 = !DIDerivedType(tag: DW_TAG_typedef, name: "wctrans_t", file: !849, line: 186, baseType: !850)
!849 = !DIFile(filename: "/usr/include/wctype.h", directory: "/mnt/Projects/LLVM-custom/test/Datarand")
!850 = !DIDerivedType(tag: DW_TAG_pointer_type, baseType: !851, size: 64)
!851 = !DIDerivedType(tag: DW_TAG_const_type, baseType: !852)
!852 = !DIDerivedType(tag: DW_TAG_typedef, name: "__int32_t", file: !853, line: 40, baseType: !11)
!853 = !DIFile(filename: "/usr/include/x86_64-linux-gnu/bits/types.h", directory: "/mnt/Projects/LLVM-custom/test/Datarand")
!854 = !DIFile(filename: "/usr/lib/gcc/x86_64-linux-gnu/5.4.0/../../../../include/c++/5.4.0/cwctype", directory: "/mnt/Projects/LLVM-custom/test/Datarand")
!855 = !DIImportedEntity(tag: DW_TAG_imported_declaration, scope: !2, entity: !856, file: !854, line: 83)
!856 = !DIDerivedType(tag: DW_TAG_typedef, name: "wctype_t", file: !849, line: 52, baseType: !104)
!857 = !DIImportedEntity(tag: DW_TAG_imported_declaration, scope: !2, entity: !50, file: !854, line: 84)
!858 = !DIImportedEntity(tag: DW_TAG_imported_declaration, scope: !2, entity: !859, file: !854, line: 86)
!859 = !DISubprogram(name: "iswalnum", scope: !849, file: !849, line: 111, type: !268, isLocal: false, isDefinition: false, flags: DIFlagPrototyped, isOptimized: false)
!860 = !DIImportedEntity(tag: DW_TAG_imported_declaration, scope: !2, entity: !861, file: !854, line: 87)
!861 = !DISubprogram(name: "iswalpha", scope: !849, file: !849, line: 117, type: !268, isLocal: false, isDefinition: false, flags: DIFlagPrototyped, isOptimized: false)
!862 = !DIImportedEntity(tag: DW_TAG_imported_declaration, scope: !2, entity: !863, file: !854, line: 89)
!863 = !DISubprogram(name: "iswblank", scope: !849, file: !849, line: 162, type: !268, isLocal: false, isDefinition: false, flags: DIFlagPrototyped, isOptimized: false)
!864 = !DIImportedEntity(tag: DW_TAG_imported_declaration, scope: !2, entity: !865, file: !854, line: 91)
!865 = !DISubprogram(name: "iswcntrl", scope: !849, file: !849, line: 120, type: !268, isLocal: false, isDefinition: false, flags: DIFlagPrototyped, isOptimized: false)
!866 = !DIImportedEntity(tag: DW_TAG_imported_declaration, scope: !2, entity: !867, file: !854, line: 92)
!867 = !DISubprogram(name: "iswctype", scope: !849, file: !849, line: 175, type: !868, isLocal: false, isDefinition: false, flags: DIFlagPrototyped, isOptimized: false)
!868 = !DISubroutineType(types: !869)
!869 = !{!11, !50, !856}
!870 = !DIImportedEntity(tag: DW_TAG_imported_declaration, scope: !2, entity: !871, file: !854, line: 93)
!871 = !DISubprogram(name: "iswdigit", scope: !849, file: !849, line: 124, type: !268, isLocal: false, isDefinition: false, flags: DIFlagPrototyped, isOptimized: false)
!872 = !DIImportedEntity(tag: DW_TAG_imported_declaration, scope: !2, entity: !873, file: !854, line: 94)
!873 = !DISubprogram(name: "iswgraph", scope: !849, file: !849, line: 128, type: !268, isLocal: false, isDefinition: false, flags: DIFlagPrototyped, isOptimized: false)
!874 = !DIImportedEntity(tag: DW_TAG_imported_declaration, scope: !2, entity: !875, file: !854, line: 95)
!875 = !DISubprogram(name: "iswlower", scope: !849, file: !849, line: 133, type: !268, isLocal: false, isDefinition: false, flags: DIFlagPrototyped, isOptimized: false)
!876 = !DIImportedEntity(tag: DW_TAG_imported_declaration, scope: !2, entity: !877, file: !854, line: 96)
!877 = !DISubprogram(name: "iswprint", scope: !849, file: !849, line: 136, type: !268, isLocal: false, isDefinition: false, flags: DIFlagPrototyped, isOptimized: false)
!878 = !DIImportedEntity(tag: DW_TAG_imported_declaration, scope: !2, entity: !879, file: !854, line: 97)
!879 = !DISubprogram(name: "iswpunct", scope: !849, file: !849, line: 141, type: !268, isLocal: false, isDefinition: false, flags: DIFlagPrototyped, isOptimized: false)
!880 = !DIImportedEntity(tag: DW_TAG_imported_declaration, scope: !2, entity: !881, file: !854, line: 98)
!881 = !DISubprogram(name: "iswspace", scope: !849, file: !849, line: 146, type: !268, isLocal: false, isDefinition: false, flags: DIFlagPrototyped, isOptimized: false)
!882 = !DIImportedEntity(tag: DW_TAG_imported_declaration, scope: !2, entity: !883, file: !854, line: 99)
!883 = !DISubprogram(name: "iswupper", scope: !849, file: !849, line: 151, type: !268, isLocal: false, isDefinition: false, flags: DIFlagPrototyped, isOptimized: false)
!884 = !DIImportedEntity(tag: DW_TAG_imported_declaration, scope: !2, entity: !885, file: !854, line: 100)
!885 = !DISubprogram(name: "iswxdigit", scope: !849, file: !849, line: 156, type: !268, isLocal: false, isDefinition: false, flags: DIFlagPrototyped, isOptimized: false)
!886 = !DIImportedEntity(tag: DW_TAG_imported_declaration, scope: !2, entity: !887, file: !854, line: 101)
!887 = !DISubprogram(name: "towctrans", scope: !849, file: !849, line: 221, type: !888, isLocal: false, isDefinition: false, flags: DIFlagPrototyped, isOptimized: false)
!888 = !DISubroutineType(types: !889)
!889 = !{!50, !50, !848}
!890 = !DIImportedEntity(tag: DW_TAG_imported_declaration, scope: !2, entity: !891, file: !854, line: 102)
!891 = !DISubprogram(name: "towlower", scope: !849, file: !849, line: 194, type: !892, isLocal: false, isDefinition: false, flags: DIFlagPrototyped, isOptimized: false)
!892 = !DISubroutineType(types: !893)
!893 = !{!50, !50}
!894 = !DIImportedEntity(tag: DW_TAG_imported_declaration, scope: !2, entity: !895, file: !854, line: 103)
!895 = !DISubprogram(name: "towupper", scope: !849, file: !849, line: 197, type: !892, isLocal: false, isDefinition: false, flags: DIFlagPrototyped, isOptimized: false)
!896 = !DIImportedEntity(tag: DW_TAG_imported_declaration, scope: !2, entity: !897, file: !854, line: 104)
!897 = !DISubprogram(name: "wctrans", scope: !849, file: !849, line: 218, type: !898, isLocal: false, isDefinition: false, flags: DIFlagPrototyped, isOptimized: false)
!898 = !DISubroutineType(types: !899)
!899 = !{!848, !106}
!900 = !DIImportedEntity(tag: DW_TAG_imported_declaration, scope: !2, entity: !901, file: !854, line: 105)
!901 = !DISubprogram(name: "wctype", scope: !849, file: !849, line: 171, type: !902, isLocal: false, isDefinition: false, flags: DIFlagPrototyped, isOptimized: false)
!902 = !DISubroutineType(types: !903)
!903 = !{!856, !106}
!904 = !DIImportedEntity(tag: DW_TAG_imported_declaration, scope: !2, entity: !905, file: !909, line: 102)
!905 = !DISubprogram(name: "acos", scope: !906, file: !906, line: 54, type: !907, isLocal: false, isDefinition: false, flags: DIFlagPrototyped, isOptimized: false)
!906 = !DIFile(filename: "/usr/include/x86_64-linux-gnu/bits/mathcalls.h", directory: "/mnt/Projects/LLVM-custom/test/Datarand")
!907 = !DISubroutineType(types: !908)
!908 = !{!242, !242}
!909 = !DIFile(filename: "/usr/lib/gcc/x86_64-linux-gnu/5.4.0/../../../../include/c++/5.4.0/cmath", directory: "/mnt/Projects/LLVM-custom/test/Datarand")
!910 = !DIImportedEntity(tag: DW_TAG_imported_declaration, scope: !2, entity: !911, file: !909, line: 121)
!911 = !DISubprogram(name: "asin", scope: !906, file: !906, line: 56, type: !907, isLocal: false, isDefinition: false, flags: DIFlagPrototyped, isOptimized: false)
!912 = !DIImportedEntity(tag: DW_TAG_imported_declaration, scope: !2, entity: !913, file: !909, line: 140)
!913 = !DISubprogram(name: "atan", scope: !906, file: !906, line: 58, type: !907, isLocal: false, isDefinition: false, flags: DIFlagPrototyped, isOptimized: false)
!914 = !DIImportedEntity(tag: DW_TAG_imported_declaration, scope: !2, entity: !915, file: !909, line: 159)
!915 = !DISubprogram(name: "atan2", scope: !906, file: !906, line: 60, type: !916, isLocal: false, isDefinition: false, flags: DIFlagPrototyped, isOptimized: false)
!916 = !DISubroutineType(types: !917)
!917 = !{!242, !242, !242}
!918 = !DIImportedEntity(tag: DW_TAG_imported_declaration, scope: !2, entity: !919, file: !909, line: 180)
!919 = !DISubprogram(name: "ceil", scope: !906, file: !906, line: 178, type: !907, isLocal: false, isDefinition: false, flags: DIFlagPrototyped, isOptimized: false)
!920 = !DIImportedEntity(tag: DW_TAG_imported_declaration, scope: !2, entity: !921, file: !909, line: 199)
!921 = !DISubprogram(name: "cos", scope: !906, file: !906, line: 63, type: !907, isLocal: false, isDefinition: false, flags: DIFlagPrototyped, isOptimized: false)
!922 = !DIImportedEntity(tag: DW_TAG_imported_declaration, scope: !2, entity: !923, file: !909, line: 218)
!923 = !DISubprogram(name: "cosh", scope: !906, file: !906, line: 72, type: !907, isLocal: false, isDefinition: false, flags: DIFlagPrototyped, isOptimized: false)
!924 = !DIImportedEntity(tag: DW_TAG_imported_declaration, scope: !2, entity: !925, file: !909, line: 237)
!925 = !DISubprogram(name: "exp", scope: !906, file: !906, line: 100, type: !907, isLocal: false, isDefinition: false, flags: DIFlagPrototyped, isOptimized: false)
!926 = !DIImportedEntity(tag: DW_TAG_imported_declaration, scope: !2, entity: !927, file: !909, line: 256)
!927 = !DISubprogram(name: "fabs", scope: !906, file: !906, line: 181, type: !907, isLocal: false, isDefinition: false, flags: DIFlagPrototyped, isOptimized: false)
!928 = !DIImportedEntity(tag: DW_TAG_imported_declaration, scope: !2, entity: !929, file: !909, line: 275)
!929 = !DISubprogram(name: "floor", scope: !906, file: !906, line: 184, type: !907, isLocal: false, isDefinition: false, flags: DIFlagPrototyped, isOptimized: false)
!930 = !DIImportedEntity(tag: DW_TAG_imported_declaration, scope: !2, entity: !931, file: !909, line: 294)
!931 = !DISubprogram(name: "fmod", scope: !906, file: !906, line: 187, type: !916, isLocal: false, isDefinition: false, flags: DIFlagPrototyped, isOptimized: false)
!932 = !DIImportedEntity(tag: DW_TAG_imported_declaration, scope: !2, entity: !933, file: !909, line: 315)
!933 = !DISubprogram(name: "frexp", scope: !906, file: !906, line: 103, type: !934, isLocal: false, isDefinition: false, flags: DIFlagPrototyped, isOptimized: false)
!934 = !DISubroutineType(types: !935)
!935 = !{!242, !242, !936}
!936 = !DIDerivedType(tag: DW_TAG_pointer_type, baseType: !11, size: 64)
!937 = !DIImportedEntity(tag: DW_TAG_imported_declaration, scope: !2, entity: !938, file: !909, line: 334)
!938 = !DISubprogram(name: "ldexp", scope: !906, file: !906, line: 106, type: !939, isLocal: false, isDefinition: false, flags: DIFlagPrototyped, isOptimized: false)
!939 = !DISubroutineType(types: !940)
!940 = !{!242, !242, !11}
!941 = !DIImportedEntity(tag: DW_TAG_imported_declaration, scope: !2, entity: !942, file: !909, line: 353)
!942 = !DISubprogram(name: "log", scope: !906, file: !906, line: 109, type: !907, isLocal: false, isDefinition: false, flags: DIFlagPrototyped, isOptimized: false)
!943 = !DIImportedEntity(tag: DW_TAG_imported_declaration, scope: !2, entity: !944, file: !909, line: 372)
!944 = !DISubprogram(name: "log10", scope: !906, file: !906, line: 112, type: !907, isLocal: false, isDefinition: false, flags: DIFlagPrototyped, isOptimized: false)
!945 = !DIImportedEntity(tag: DW_TAG_imported_declaration, scope: !2, entity: !946, file: !909, line: 391)
!946 = !DISubprogram(name: "modf", scope: !906, file: !906, line: 115, type: !947, isLocal: false, isDefinition: false, flags: DIFlagPrototyped, isOptimized: false)
!947 = !DISubroutineType(types: !948)
!948 = !{!242, !242, !949}
!949 = !DIDerivedType(tag: DW_TAG_pointer_type, baseType: !242, size: 64)
!950 = !DIImportedEntity(tag: DW_TAG_imported_declaration, scope: !2, entity: !951, file: !909, line: 403)
!951 = !DISubprogram(name: "pow", scope: !906, file: !906, line: 153, type: !916, isLocal: false, isDefinition: false, flags: DIFlagPrototyped, isOptimized: false)
!952 = !DIImportedEntity(tag: DW_TAG_imported_declaration, scope: !2, entity: !953, file: !909, line: 440)
!953 = !DISubprogram(name: "sin", scope: !906, file: !906, line: 65, type: !907, isLocal: false, isDefinition: false, flags: DIFlagPrototyped, isOptimized: false)
!954 = !DIImportedEntity(tag: DW_TAG_imported_declaration, scope: !2, entity: !955, file: !909, line: 459)
!955 = !DISubprogram(name: "sinh", scope: !906, file: !906, line: 74, type: !907, isLocal: false, isDefinition: false, flags: DIFlagPrototyped, isOptimized: false)
!956 = !DIImportedEntity(tag: DW_TAG_imported_declaration, scope: !2, entity: !957, file: !909, line: 478)
!957 = !DISubprogram(name: "sqrt", scope: !906, file: !906, line: 156, type: !907, isLocal: false, isDefinition: false, flags: DIFlagPrototyped, isOptimized: false)
!958 = !DIImportedEntity(tag: DW_TAG_imported_declaration, scope: !2, entity: !959, file: !909, line: 497)
!959 = !DISubprogram(name: "tan", scope: !906, file: !906, line: 67, type: !907, isLocal: false, isDefinition: false, flags: DIFlagPrototyped, isOptimized: false)
!960 = !DIImportedEntity(tag: DW_TAG_imported_declaration, scope: !2, entity: !961, file: !909, line: 516)
!961 = !DISubprogram(name: "tanh", scope: !906, file: !906, line: 76, type: !907, isLocal: false, isDefinition: false, flags: DIFlagPrototyped, isOptimized: false)
!962 = !DIImportedEntity(tag: DW_TAG_imported_declaration, scope: !2, entity: !963, file: !909, line: 1067)
!963 = !DIDerivedType(tag: DW_TAG_typedef, name: "double_t", file: !964, line: 29, baseType: !242)
!964 = !DIFile(filename: "/usr/include/x86_64-linux-gnu/bits/mathdef.h", directory: "/mnt/Projects/LLVM-custom/test/Datarand")
!965 = !DIImportedEntity(tag: DW_TAG_imported_declaration, scope: !2, entity: !966, file: !909, line: 1068)
!966 = !DIDerivedType(tag: DW_TAG_typedef, name: "float_t", file: !964, line: 28, baseType: !249)
!967 = !DIImportedEntity(tag: DW_TAG_imported_declaration, scope: !2, entity: !968, file: !909, line: 1071)
!968 = !DISubprogram(name: "acosh", scope: !906, file: !906, line: 88, type: !907, isLocal: false, isDefinition: false, flags: DIFlagPrototyped, isOptimized: false)
!969 = !DIImportedEntity(tag: DW_TAG_imported_declaration, scope: !2, entity: !970, file: !909, line: 1072)
!970 = !DISubprogram(name: "acoshf", scope: !906, file: !906, line: 88, type: !971, isLocal: false, isDefinition: false, flags: DIFlagPrototyped, isOptimized: false)
!971 = !DISubroutineType(types: !972)
!972 = !{!249, !249}
!973 = !DIImportedEntity(tag: DW_TAG_imported_declaration, scope: !2, entity: !974, file: !909, line: 1073)
!974 = !DISubprogram(name: "acoshl", scope: !906, file: !906, line: 88, type: !975, isLocal: false, isDefinition: false, flags: DIFlagPrototyped, isOptimized: false)
!975 = !DISubroutineType(types: !976)
!976 = !{!308, !308}
!977 = !DIImportedEntity(tag: DW_TAG_imported_declaration, scope: !2, entity: !978, file: !909, line: 1075)
!978 = !DISubprogram(name: "asinh", scope: !906, file: !906, line: 90, type: !907, isLocal: false, isDefinition: false, flags: DIFlagPrototyped, isOptimized: false)
!979 = !DIImportedEntity(tag: DW_TAG_imported_declaration, scope: !2, entity: !980, file: !909, line: 1076)
!980 = !DISubprogram(name: "asinhf", scope: !906, file: !906, line: 90, type: !971, isLocal: false, isDefinition: false, flags: DIFlagPrototyped, isOptimized: false)
!981 = !DIImportedEntity(tag: DW_TAG_imported_declaration, scope: !2, entity: !982, file: !909, line: 1077)
!982 = !DISubprogram(name: "asinhl", scope: !906, file: !906, line: 90, type: !975, isLocal: false, isDefinition: false, flags: DIFlagPrototyped, isOptimized: false)
!983 = !DIImportedEntity(tag: DW_TAG_imported_declaration, scope: !2, entity: !984, file: !909, line: 1079)
!984 = !DISubprogram(name: "atanh", scope: !906, file: !906, line: 92, type: !907, isLocal: false, isDefinition: false, flags: DIFlagPrototyped, isOptimized: false)
!985 = !DIImportedEntity(tag: DW_TAG_imported_declaration, scope: !2, entity: !986, file: !909, line: 1080)
!986 = !DISubprogram(name: "atanhf", scope: !906, file: !906, line: 92, type: !971, isLocal: false, isDefinition: false, flags: DIFlagPrototyped, isOptimized: false)
!987 = !DIImportedEntity(tag: DW_TAG_imported_declaration, scope: !2, entity: !988, file: !909, line: 1081)
!988 = !DISubprogram(name: "atanhl", scope: !906, file: !906, line: 92, type: !975, isLocal: false, isDefinition: false, flags: DIFlagPrototyped, isOptimized: false)
!989 = !DIImportedEntity(tag: DW_TAG_imported_declaration, scope: !2, entity: !990, file: !909, line: 1083)
!990 = !DISubprogram(name: "cbrt", scope: !906, file: !906, line: 169, type: !907, isLocal: false, isDefinition: false, flags: DIFlagPrototyped, isOptimized: false)
!991 = !DIImportedEntity(tag: DW_TAG_imported_declaration, scope: !2, entity: !992, file: !909, line: 1084)
!992 = !DISubprogram(name: "cbrtf", scope: !906, file: !906, line: 169, type: !971, isLocal: false, isDefinition: false, flags: DIFlagPrototyped, isOptimized: false)
!993 = !DIImportedEntity(tag: DW_TAG_imported_declaration, scope: !2, entity: !994, file: !909, line: 1085)
!994 = !DISubprogram(name: "cbrtl", scope: !906, file: !906, line: 169, type: !975, isLocal: false, isDefinition: false, flags: DIFlagPrototyped, isOptimized: false)
!995 = !DIImportedEntity(tag: DW_TAG_imported_declaration, scope: !2, entity: !996, file: !909, line: 1087)
!996 = !DISubprogram(name: "copysign", scope: !906, file: !906, line: 221, type: !916, isLocal: false, isDefinition: false, flags: DIFlagPrototyped, isOptimized: false)
!997 = !DIImportedEntity(tag: DW_TAG_imported_declaration, scope: !2, entity: !998, file: !909, line: 1088)
!998 = !DISubprogram(name: "copysignf", scope: !906, file: !906, line: 221, type: !999, isLocal: false, isDefinition: false, flags: DIFlagPrototyped, isOptimized: false)
!999 = !DISubroutineType(types: !1000)
!1000 = !{!249, !249, !249}
!1001 = !DIImportedEntity(tag: DW_TAG_imported_declaration, scope: !2, entity: !1002, file: !909, line: 1089)
!1002 = !DISubprogram(name: "copysignl", scope: !906, file: !906, line: 221, type: !1003, isLocal: false, isDefinition: false, flags: DIFlagPrototyped, isOptimized: false)
!1003 = !DISubroutineType(types: !1004)
!1004 = !{!308, !308, !308}
!1005 = !DIImportedEntity(tag: DW_TAG_imported_declaration, scope: !2, entity: !1006, file: !909, line: 1091)
!1006 = !DISubprogram(name: "erf", scope: !906, file: !906, line: 259, type: !907, isLocal: false, isDefinition: false, flags: DIFlagPrototyped, isOptimized: false)
!1007 = !DIImportedEntity(tag: DW_TAG_imported_declaration, scope: !2, entity: !1008, file: !909, line: 1092)
!1008 = !DISubprogram(name: "erff", scope: !906, file: !906, line: 259, type: !971, isLocal: false, isDefinition: false, flags: DIFlagPrototyped, isOptimized: false)
!1009 = !DIImportedEntity(tag: DW_TAG_imported_declaration, scope: !2, entity: !1010, file: !909, line: 1093)
!1010 = !DISubprogram(name: "erfl", scope: !906, file: !906, line: 259, type: !975, isLocal: false, isDefinition: false, flags: DIFlagPrototyped, isOptimized: false)
!1011 = !DIImportedEntity(tag: DW_TAG_imported_declaration, scope: !2, entity: !1012, file: !909, line: 1095)
!1012 = !DISubprogram(name: "erfc", scope: !906, file: !906, line: 260, type: !907, isLocal: false, isDefinition: false, flags: DIFlagPrototyped, isOptimized: false)
!1013 = !DIImportedEntity(tag: DW_TAG_imported_declaration, scope: !2, entity: !1014, file: !909, line: 1096)
!1014 = !DISubprogram(name: "erfcf", scope: !906, file: !906, line: 260, type: !971, isLocal: false, isDefinition: false, flags: DIFlagPrototyped, isOptimized: false)
!1015 = !DIImportedEntity(tag: DW_TAG_imported_declaration, scope: !2, entity: !1016, file: !909, line: 1097)
!1016 = !DISubprogram(name: "erfcl", scope: !906, file: !906, line: 260, type: !975, isLocal: false, isDefinition: false, flags: DIFlagPrototyped, isOptimized: false)
!1017 = !DIImportedEntity(tag: DW_TAG_imported_declaration, scope: !2, entity: !1018, file: !909, line: 1099)
!1018 = !DISubprogram(name: "exp2", scope: !906, file: !906, line: 141, type: !907, isLocal: false, isDefinition: false, flags: DIFlagPrototyped, isOptimized: false)
!1019 = !DIImportedEntity(tag: DW_TAG_imported_declaration, scope: !2, entity: !1020, file: !909, line: 1100)
!1020 = !DISubprogram(name: "exp2f", scope: !906, file: !906, line: 141, type: !971, isLocal: false, isDefinition: false, flags: DIFlagPrototyped, isOptimized: false)
!1021 = !DIImportedEntity(tag: DW_TAG_imported_declaration, scope: !2, entity: !1022, file: !909, line: 1101)
!1022 = !DISubprogram(name: "exp2l", scope: !906, file: !906, line: 141, type: !975, isLocal: false, isDefinition: false, flags: DIFlagPrototyped, isOptimized: false)
!1023 = !DIImportedEntity(tag: DW_TAG_imported_declaration, scope: !2, entity: !1024, file: !909, line: 1103)
!1024 = !DISubprogram(name: "expm1", scope: !906, file: !906, line: 128, type: !907, isLocal: false, isDefinition: false, flags: DIFlagPrototyped, isOptimized: false)
!1025 = !DIImportedEntity(tag: DW_TAG_imported_declaration, scope: !2, entity: !1026, file: !909, line: 1104)
!1026 = !DISubprogram(name: "expm1f", scope: !906, file: !906, line: 128, type: !971, isLocal: false, isDefinition: false, flags: DIFlagPrototyped, isOptimized: false)
!1027 = !DIImportedEntity(tag: DW_TAG_imported_declaration, scope: !2, entity: !1028, file: !909, line: 1105)
!1028 = !DISubprogram(name: "expm1l", scope: !906, file: !906, line: 128, type: !975, isLocal: false, isDefinition: false, flags: DIFlagPrototyped, isOptimized: false)
!1029 = !DIImportedEntity(tag: DW_TAG_imported_declaration, scope: !2, entity: !1030, file: !909, line: 1107)
!1030 = !DISubprogram(name: "fdim", scope: !906, file: !906, line: 347, type: !916, isLocal: false, isDefinition: false, flags: DIFlagPrototyped, isOptimized: false)
!1031 = !DIImportedEntity(tag: DW_TAG_imported_declaration, scope: !2, entity: !1032, file: !909, line: 1108)
!1032 = !DISubprogram(name: "fdimf", scope: !906, file: !906, line: 347, type: !999, isLocal: false, isDefinition: false, flags: DIFlagPrototyped, isOptimized: false)
!1033 = !DIImportedEntity(tag: DW_TAG_imported_declaration, scope: !2, entity: !1034, file: !909, line: 1109)
!1034 = !DISubprogram(name: "fdiml", scope: !906, file: !906, line: 347, type: !1003, isLocal: false, isDefinition: false, flags: DIFlagPrototyped, isOptimized: false)
!1035 = !DIImportedEntity(tag: DW_TAG_imported_declaration, scope: !2, entity: !1036, file: !909, line: 1111)
!1036 = !DISubprogram(name: "fma", scope: !906, file: !906, line: 366, type: !1037, isLocal: false, isDefinition: false, flags: DIFlagPrototyped, isOptimized: false)
!1037 = !DISubroutineType(types: !1038)
!1038 = !{!242, !242, !242, !242}
!1039 = !DIImportedEntity(tag: DW_TAG_imported_declaration, scope: !2, entity: !1040, file: !909, line: 1112)
!1040 = !DISubprogram(name: "fmaf", scope: !906, file: !906, line: 366, type: !1041, isLocal: false, isDefinition: false, flags: DIFlagPrototyped, isOptimized: false)
!1041 = !DISubroutineType(types: !1042)
!1042 = !{!249, !249, !249, !249}
!1043 = !DIImportedEntity(tag: DW_TAG_imported_declaration, scope: !2, entity: !1044, file: !909, line: 1113)
!1044 = !DISubprogram(name: "fmal", scope: !906, file: !906, line: 366, type: !1045, isLocal: false, isDefinition: false, flags: DIFlagPrototyped, isOptimized: false)
!1045 = !DISubroutineType(types: !1046)
!1046 = !{!308, !308, !308, !308}
!1047 = !DIImportedEntity(tag: DW_TAG_imported_declaration, scope: !2, entity: !1048, file: !909, line: 1115)
!1048 = !DISubprogram(name: "fmax", scope: !906, file: !906, line: 350, type: !916, isLocal: false, isDefinition: false, flags: DIFlagPrototyped, isOptimized: false)
!1049 = !DIImportedEntity(tag: DW_TAG_imported_declaration, scope: !2, entity: !1050, file: !909, line: 1116)
!1050 = !DISubprogram(name: "fmaxf", scope: !906, file: !906, line: 350, type: !999, isLocal: false, isDefinition: false, flags: DIFlagPrototyped, isOptimized: false)
!1051 = !DIImportedEntity(tag: DW_TAG_imported_declaration, scope: !2, entity: !1052, file: !909, line: 1117)
!1052 = !DISubprogram(name: "fmaxl", scope: !906, file: !906, line: 350, type: !1003, isLocal: false, isDefinition: false, flags: DIFlagPrototyped, isOptimized: false)
!1053 = !DIImportedEntity(tag: DW_TAG_imported_declaration, scope: !2, entity: !1054, file: !909, line: 1119)
!1054 = !DISubprogram(name: "fmin", scope: !906, file: !906, line: 353, type: !916, isLocal: false, isDefinition: false, flags: DIFlagPrototyped, isOptimized: false)
!1055 = !DIImportedEntity(tag: DW_TAG_imported_declaration, scope: !2, entity: !1056, file: !909, line: 1120)
!1056 = !DISubprogram(name: "fminf", scope: !906, file: !906, line: 353, type: !999, isLocal: false, isDefinition: false, flags: DIFlagPrototyped, isOptimized: false)
!1057 = !DIImportedEntity(tag: DW_TAG_imported_declaration, scope: !2, entity: !1058, file: !909, line: 1121)
!1058 = !DISubprogram(name: "fminl", scope: !906, file: !906, line: 353, type: !1003, isLocal: false, isDefinition: false, flags: DIFlagPrototyped, isOptimized: false)
!1059 = !DIImportedEntity(tag: DW_TAG_imported_declaration, scope: !2, entity: !1060, file: !909, line: 1123)
!1060 = !DISubprogram(name: "hypot", scope: !906, file: !906, line: 162, type: !916, isLocal: false, isDefinition: false, flags: DIFlagPrototyped, isOptimized: false)
!1061 = !DIImportedEntity(tag: DW_TAG_imported_declaration, scope: !2, entity: !1062, file: !909, line: 1124)
!1062 = !DISubprogram(name: "hypotf", scope: !906, file: !906, line: 162, type: !999, isLocal: false, isDefinition: false, flags: DIFlagPrototyped, isOptimized: false)
!1063 = !DIImportedEntity(tag: DW_TAG_imported_declaration, scope: !2, entity: !1064, file: !909, line: 1125)
!1064 = !DISubprogram(name: "hypotl", scope: !906, file: !906, line: 162, type: !1003, isLocal: false, isDefinition: false, flags: DIFlagPrototyped, isOptimized: false)
!1065 = !DIImportedEntity(tag: DW_TAG_imported_declaration, scope: !2, entity: !1066, file: !909, line: 1127)
!1066 = !DISubprogram(name: "ilogb", scope: !906, file: !906, line: 306, type: !1067, isLocal: false, isDefinition: false, flags: DIFlagPrototyped, isOptimized: false)
!1067 = !DISubroutineType(types: !1068)
!1068 = !{!11, !242}
!1069 = !DIImportedEntity(tag: DW_TAG_imported_declaration, scope: !2, entity: !1070, file: !909, line: 1128)
!1070 = !DISubprogram(name: "ilogbf", scope: !906, file: !906, line: 306, type: !1071, isLocal: false, isDefinition: false, flags: DIFlagPrototyped, isOptimized: false)
!1071 = !DISubroutineType(types: !1072)
!1072 = !{!11, !249}
!1073 = !DIImportedEntity(tag: DW_TAG_imported_declaration, scope: !2, entity: !1074, file: !909, line: 1129)
!1074 = !DISubprogram(name: "ilogbl", scope: !906, file: !906, line: 306, type: !1075, isLocal: false, isDefinition: false, flags: DIFlagPrototyped, isOptimized: false)
!1075 = !DISubroutineType(types: !1076)
!1076 = !{!11, !308}
!1077 = !DIImportedEntity(tag: DW_TAG_imported_declaration, scope: !2, entity: !1078, file: !909, line: 1131)
!1078 = !DISubprogram(name: "lgamma", scope: !906, file: !906, line: 261, type: !907, isLocal: false, isDefinition: false, flags: DIFlagPrototyped, isOptimized: false)
!1079 = !DIImportedEntity(tag: DW_TAG_imported_declaration, scope: !2, entity: !1080, file: !909, line: 1132)
!1080 = !DISubprogram(name: "lgammaf", scope: !906, file: !906, line: 261, type: !971, isLocal: false, isDefinition: false, flags: DIFlagPrototyped, isOptimized: false)
!1081 = !DIImportedEntity(tag: DW_TAG_imported_declaration, scope: !2, entity: !1082, file: !909, line: 1133)
!1082 = !DISubprogram(name: "lgammal", scope: !906, file: !906, line: 261, type: !975, isLocal: false, isDefinition: false, flags: DIFlagPrototyped, isOptimized: false)
!1083 = !DIImportedEntity(tag: DW_TAG_imported_declaration, scope: !2, entity: !1084, file: !909, line: 1135)
!1084 = !DISubprogram(name: "llrint", scope: !906, file: !906, line: 337, type: !1085, isLocal: false, isDefinition: false, flags: DIFlagPrototyped, isOptimized: false)
!1085 = !DISubroutineType(types: !1086)
!1086 = !{!313, !242}
!1087 = !DIImportedEntity(tag: DW_TAG_imported_declaration, scope: !2, entity: !1088, file: !909, line: 1136)
!1088 = !DISubprogram(name: "llrintf", scope: !906, file: !906, line: 337, type: !1089, isLocal: false, isDefinition: false, flags: DIFlagPrototyped, isOptimized: false)
!1089 = !DISubroutineType(types: !1090)
!1090 = !{!313, !249}
!1091 = !DIImportedEntity(tag: DW_TAG_imported_declaration, scope: !2, entity: !1092, file: !909, line: 1137)
!1092 = !DISubprogram(name: "llrintl", scope: !906, file: !906, line: 337, type: !1093, isLocal: false, isDefinition: false, flags: DIFlagPrototyped, isOptimized: false)
!1093 = !DISubroutineType(types: !1094)
!1094 = !{!313, !308}
!1095 = !DIImportedEntity(tag: DW_TAG_imported_declaration, scope: !2, entity: !1096, file: !909, line: 1139)
!1096 = !DISubprogram(name: "llround", scope: !906, file: !906, line: 343, type: !1085, isLocal: false, isDefinition: false, flags: DIFlagPrototyped, isOptimized: false)
!1097 = !DIImportedEntity(tag: DW_TAG_imported_declaration, scope: !2, entity: !1098, file: !909, line: 1140)
!1098 = !DISubprogram(name: "llroundf", scope: !906, file: !906, line: 343, type: !1089, isLocal: false, isDefinition: false, flags: DIFlagPrototyped, isOptimized: false)
!1099 = !DIImportedEntity(tag: DW_TAG_imported_declaration, scope: !2, entity: !1100, file: !909, line: 1141)
!1100 = !DISubprogram(name: "llroundl", scope: !906, file: !906, line: 343, type: !1093, isLocal: false, isDefinition: false, flags: DIFlagPrototyped, isOptimized: false)
!1101 = !DIImportedEntity(tag: DW_TAG_imported_declaration, scope: !2, entity: !1102, file: !909, line: 1143)
!1102 = !DISubprogram(name: "log1p", scope: !906, file: !906, line: 131, type: !907, isLocal: false, isDefinition: false, flags: DIFlagPrototyped, isOptimized: false)
!1103 = !DIImportedEntity(tag: DW_TAG_imported_declaration, scope: !2, entity: !1104, file: !909, line: 1144)
!1104 = !DISubprogram(name: "log1pf", scope: !906, file: !906, line: 131, type: !971, isLocal: false, isDefinition: false, flags: DIFlagPrototyped, isOptimized: false)
!1105 = !DIImportedEntity(tag: DW_TAG_imported_declaration, scope: !2, entity: !1106, file: !909, line: 1145)
!1106 = !DISubprogram(name: "log1pl", scope: !906, file: !906, line: 131, type: !975, isLocal: false, isDefinition: false, flags: DIFlagPrototyped, isOptimized: false)
!1107 = !DIImportedEntity(tag: DW_TAG_imported_declaration, scope: !2, entity: !1108, file: !909, line: 1147)
!1108 = !DISubprogram(name: "log2", scope: !906, file: !906, line: 144, type: !907, isLocal: false, isDefinition: false, flags: DIFlagPrototyped, isOptimized: false)
!1109 = !DIImportedEntity(tag: DW_TAG_imported_declaration, scope: !2, entity: !1110, file: !909, line: 1148)
!1110 = !DISubprogram(name: "log2f", scope: !906, file: !906, line: 144, type: !971, isLocal: false, isDefinition: false, flags: DIFlagPrototyped, isOptimized: false)
!1111 = !DIImportedEntity(tag: DW_TAG_imported_declaration, scope: !2, entity: !1112, file: !909, line: 1149)
!1112 = !DISubprogram(name: "log2l", scope: !906, file: !906, line: 144, type: !975, isLocal: false, isDefinition: false, flags: DIFlagPrototyped, isOptimized: false)
!1113 = !DIImportedEntity(tag: DW_TAG_imported_declaration, scope: !2, entity: !1114, file: !909, line: 1151)
!1114 = !DISubprogram(name: "logb", scope: !906, file: !906, line: 134, type: !907, isLocal: false, isDefinition: false, flags: DIFlagPrototyped, isOptimized: false)
!1115 = !DIImportedEntity(tag: DW_TAG_imported_declaration, scope: !2, entity: !1116, file: !909, line: 1152)
!1116 = !DISubprogram(name: "logbf", scope: !906, file: !906, line: 134, type: !971, isLocal: false, isDefinition: false, flags: DIFlagPrototyped, isOptimized: false)
!1117 = !DIImportedEntity(tag: DW_TAG_imported_declaration, scope: !2, entity: !1118, file: !909, line: 1153)
!1118 = !DISubprogram(name: "logbl", scope: !906, file: !906, line: 134, type: !975, isLocal: false, isDefinition: false, flags: DIFlagPrototyped, isOptimized: false)
!1119 = !DIImportedEntity(tag: DW_TAG_imported_declaration, scope: !2, entity: !1120, file: !909, line: 1155)
!1120 = !DISubprogram(name: "lrint", scope: !906, file: !906, line: 335, type: !1121, isLocal: false, isDefinition: false, flags: DIFlagPrototyped, isOptimized: false)
!1121 = !DISubroutineType(types: !1122)
!1122 = !{!214, !242}
!1123 = !DIImportedEntity(tag: DW_TAG_imported_declaration, scope: !2, entity: !1124, file: !909, line: 1156)
!1124 = !DISubprogram(name: "lrintf", scope: !906, file: !906, line: 335, type: !1125, isLocal: false, isDefinition: false, flags: DIFlagPrototyped, isOptimized: false)
!1125 = !DISubroutineType(types: !1126)
!1126 = !{!214, !249}
!1127 = !DIImportedEntity(tag: DW_TAG_imported_declaration, scope: !2, entity: !1128, file: !909, line: 1157)
!1128 = !DISubprogram(name: "lrintl", scope: !906, file: !906, line: 335, type: !1129, isLocal: false, isDefinition: false, flags: DIFlagPrototyped, isOptimized: false)
!1129 = !DISubroutineType(types: !1130)
!1130 = !{!214, !308}
!1131 = !DIImportedEntity(tag: DW_TAG_imported_declaration, scope: !2, entity: !1132, file: !909, line: 1159)
!1132 = !DISubprogram(name: "lround", scope: !906, file: !906, line: 341, type: !1121, isLocal: false, isDefinition: false, flags: DIFlagPrototyped, isOptimized: false)
!1133 = !DIImportedEntity(tag: DW_TAG_imported_declaration, scope: !2, entity: !1134, file: !909, line: 1160)
!1134 = !DISubprogram(name: "lroundf", scope: !906, file: !906, line: 341, type: !1125, isLocal: false, isDefinition: false, flags: DIFlagPrototyped, isOptimized: false)
!1135 = !DIImportedEntity(tag: DW_TAG_imported_declaration, scope: !2, entity: !1136, file: !909, line: 1161)
!1136 = !DISubprogram(name: "lroundl", scope: !906, file: !906, line: 341, type: !1129, isLocal: false, isDefinition: false, flags: DIFlagPrototyped, isOptimized: false)
!1137 = !DIImportedEntity(tag: DW_TAG_imported_declaration, scope: !2, entity: !1138, file: !909, line: 1163)
!1138 = !DISubprogram(name: "nan", scope: !906, file: !906, line: 228, type: !525, isLocal: false, isDefinition: false, flags: DIFlagPrototyped, isOptimized: false)
!1139 = !DIImportedEntity(tag: DW_TAG_imported_declaration, scope: !2, entity: !1140, file: !909, line: 1164)
!1140 = !DISubprogram(name: "nanf", scope: !906, file: !906, line: 228, type: !1141, isLocal: false, isDefinition: false, flags: DIFlagPrototyped, isOptimized: false)
!1141 = !DISubroutineType(types: !1142)
!1142 = !{!249, !106}
!1143 = !DIImportedEntity(tag: DW_TAG_imported_declaration, scope: !2, entity: !1144, file: !909, line: 1165)
!1144 = !DISubprogram(name: "nanl", scope: !906, file: !906, line: 228, type: !1145, isLocal: false, isDefinition: false, flags: DIFlagPrototyped, isOptimized: false)
!1145 = !DISubroutineType(types: !1146)
!1146 = !{!308, !106}
!1147 = !DIImportedEntity(tag: DW_TAG_imported_declaration, scope: !2, entity: !1148, file: !909, line: 1167)
!1148 = !DISubprogram(name: "nearbyint", scope: !906, file: !906, line: 315, type: !907, isLocal: false, isDefinition: false, flags: DIFlagPrototyped, isOptimized: false)
!1149 = !DIImportedEntity(tag: DW_TAG_imported_declaration, scope: !2, entity: !1150, file: !909, line: 1168)
!1150 = !DISubprogram(name: "nearbyintf", scope: !906, file: !906, line: 315, type: !971, isLocal: false, isDefinition: false, flags: DIFlagPrototyped, isOptimized: false)
!1151 = !DIImportedEntity(tag: DW_TAG_imported_declaration, scope: !2, entity: !1152, file: !909, line: 1169)
!1152 = !DISubprogram(name: "nearbyintl", scope: !906, file: !906, line: 315, type: !975, isLocal: false, isDefinition: false, flags: DIFlagPrototyped, isOptimized: false)
!1153 = !DIImportedEntity(tag: DW_TAG_imported_declaration, scope: !2, entity: !1154, file: !909, line: 1171)
!1154 = !DISubprogram(name: "nextafter", scope: !906, file: !906, line: 292, type: !916, isLocal: false, isDefinition: false, flags: DIFlagPrototyped, isOptimized: false)
!1155 = !DIImportedEntity(tag: DW_TAG_imported_declaration, scope: !2, entity: !1156, file: !909, line: 1172)
!1156 = !DISubprogram(name: "nextafterf", scope: !906, file: !906, line: 292, type: !999, isLocal: false, isDefinition: false, flags: DIFlagPrototyped, isOptimized: false)
!1157 = !DIImportedEntity(tag: DW_TAG_imported_declaration, scope: !2, entity: !1158, file: !909, line: 1173)
!1158 = !DISubprogram(name: "nextafterl", scope: !906, file: !906, line: 292, type: !1003, isLocal: false, isDefinition: false, flags: DIFlagPrototyped, isOptimized: false)
!1159 = !DIImportedEntity(tag: DW_TAG_imported_declaration, scope: !2, entity: !1160, file: !909, line: 1175)
!1160 = !DISubprogram(name: "nexttoward", scope: !906, file: !906, line: 294, type: !1161, isLocal: false, isDefinition: false, flags: DIFlagPrototyped, isOptimized: false)
!1161 = !DISubroutineType(types: !1162)
!1162 = !{!242, !242, !308}
!1163 = !DIImportedEntity(tag: DW_TAG_imported_declaration, scope: !2, entity: !1164, file: !909, line: 1176)
!1164 = !DISubprogram(name: "nexttowardf", scope: !906, file: !906, line: 294, type: !1165, isLocal: false, isDefinition: false, flags: DIFlagPrototyped, isOptimized: false)
!1165 = !DISubroutineType(types: !1166)
!1166 = !{!249, !249, !308}
!1167 = !DIImportedEntity(tag: DW_TAG_imported_declaration, scope: !2, entity: !1168, file: !909, line: 1177)
!1168 = !DISubprogram(name: "nexttowardl", scope: !906, file: !906, line: 294, type: !1003, isLocal: false, isDefinition: false, flags: DIFlagPrototyped, isOptimized: false)
!1169 = !DIImportedEntity(tag: DW_TAG_imported_declaration, scope: !2, entity: !1170, file: !909, line: 1179)
!1170 = !DISubprogram(name: "remainder", scope: !906, file: !906, line: 298, type: !916, isLocal: false, isDefinition: false, flags: DIFlagPrototyped, isOptimized: false)
!1171 = !DIImportedEntity(tag: DW_TAG_imported_declaration, scope: !2, entity: !1172, file: !909, line: 1180)
!1172 = !DISubprogram(name: "remainderf", scope: !906, file: !906, line: 298, type: !999, isLocal: false, isDefinition: false, flags: DIFlagPrototyped, isOptimized: false)
!1173 = !DIImportedEntity(tag: DW_TAG_imported_declaration, scope: !2, entity: !1174, file: !909, line: 1181)
!1174 = !DISubprogram(name: "remainderl", scope: !906, file: !906, line: 298, type: !1003, isLocal: false, isDefinition: false, flags: DIFlagPrototyped, isOptimized: false)
!1175 = !DIImportedEntity(tag: DW_TAG_imported_declaration, scope: !2, entity: !1176, file: !909, line: 1183)
!1176 = !DISubprogram(name: "remquo", scope: !906, file: !906, line: 328, type: !1177, isLocal: false, isDefinition: false, flags: DIFlagPrototyped, isOptimized: false)
!1177 = !DISubroutineType(types: !1178)
!1178 = !{!242, !242, !242, !936}
!1179 = !DIImportedEntity(tag: DW_TAG_imported_declaration, scope: !2, entity: !1180, file: !909, line: 1184)
!1180 = !DISubprogram(name: "remquof", scope: !906, file: !906, line: 328, type: !1181, isLocal: false, isDefinition: false, flags: DIFlagPrototyped, isOptimized: false)
!1181 = !DISubroutineType(types: !1182)
!1182 = !{!249, !249, !249, !936}
!1183 = !DIImportedEntity(tag: DW_TAG_imported_declaration, scope: !2, entity: !1184, file: !909, line: 1185)
!1184 = !DISubprogram(name: "remquol", scope: !906, file: !906, line: 328, type: !1185, isLocal: false, isDefinition: false, flags: DIFlagPrototyped, isOptimized: false)
!1185 = !DISubroutineType(types: !1186)
!1186 = !{!308, !308, !308, !936}
!1187 = !DIImportedEntity(tag: DW_TAG_imported_declaration, scope: !2, entity: !1188, file: !909, line: 1187)
!1188 = !DISubprogram(name: "rint", scope: !906, file: !906, line: 289, type: !907, isLocal: false, isDefinition: false, flags: DIFlagPrototyped, isOptimized: false)
!1189 = !DIImportedEntity(tag: DW_TAG_imported_declaration, scope: !2, entity: !1190, file: !909, line: 1188)
!1190 = !DISubprogram(name: "rintf", scope: !906, file: !906, line: 289, type: !971, isLocal: false, isDefinition: false, flags: DIFlagPrototyped, isOptimized: false)
!1191 = !DIImportedEntity(tag: DW_TAG_imported_declaration, scope: !2, entity: !1192, file: !909, line: 1189)
!1192 = !DISubprogram(name: "rintl", scope: !906, file: !906, line: 289, type: !975, isLocal: false, isDefinition: false, flags: DIFlagPrototyped, isOptimized: false)
!1193 = !DIImportedEntity(tag: DW_TAG_imported_declaration, scope: !2, entity: !1194, file: !909, line: 1191)
!1194 = !DISubprogram(name: "round", scope: !906, file: !906, line: 319, type: !907, isLocal: false, isDefinition: false, flags: DIFlagPrototyped, isOptimized: false)
!1195 = !DIImportedEntity(tag: DW_TAG_imported_declaration, scope: !2, entity: !1196, file: !909, line: 1192)
!1196 = !DISubprogram(name: "roundf", scope: !906, file: !906, line: 319, type: !971, isLocal: false, isDefinition: false, flags: DIFlagPrototyped, isOptimized: false)
!1197 = !DIImportedEntity(tag: DW_TAG_imported_declaration, scope: !2, entity: !1198, file: !909, line: 1193)
!1198 = !DISubprogram(name: "roundl", scope: !906, file: !906, line: 319, type: !975, isLocal: false, isDefinition: false, flags: DIFlagPrototyped, isOptimized: false)
!1199 = !DIImportedEntity(tag: DW_TAG_imported_declaration, scope: !2, entity: !1200, file: !909, line: 1195)
!1200 = !DISubprogram(name: "scalbln", scope: !906, file: !906, line: 311, type: !1201, isLocal: false, isDefinition: false, flags: DIFlagPrototyped, isOptimized: false)
!1201 = !DISubroutineType(types: !1202)
!1202 = !{!242, !242, !214}
!1203 = !DIImportedEntity(tag: DW_TAG_imported_declaration, scope: !2, entity: !1204, file: !909, line: 1196)
!1204 = !DISubprogram(name: "scalblnf", scope: !906, file: !906, line: 311, type: !1205, isLocal: false, isDefinition: false, flags: DIFlagPrototyped, isOptimized: false)
!1205 = !DISubroutineType(types: !1206)
!1206 = !{!249, !249, !214}
!1207 = !DIImportedEntity(tag: DW_TAG_imported_declaration, scope: !2, entity: !1208, file: !909, line: 1197)
!1208 = !DISubprogram(name: "scalblnl", scope: !906, file: !906, line: 311, type: !1209, isLocal: false, isDefinition: false, flags: DIFlagPrototyped, isOptimized: false)
!1209 = !DISubroutineType(types: !1210)
!1210 = !{!308, !308, !214}
!1211 = !DIImportedEntity(tag: DW_TAG_imported_declaration, scope: !2, entity: !1212, file: !909, line: 1199)
!1212 = !DISubprogram(name: "scalbn", scope: !906, file: !906, line: 302, type: !939, isLocal: false, isDefinition: false, flags: DIFlagPrototyped, isOptimized: false)
!1213 = !DIImportedEntity(tag: DW_TAG_imported_declaration, scope: !2, entity: !1214, file: !909, line: 1200)
!1214 = !DISubprogram(name: "scalbnf", scope: !906, file: !906, line: 302, type: !1215, isLocal: false, isDefinition: false, flags: DIFlagPrototyped, isOptimized: false)
!1215 = !DISubroutineType(types: !1216)
!1216 = !{!249, !249, !11}
!1217 = !DIImportedEntity(tag: DW_TAG_imported_declaration, scope: !2, entity: !1218, file: !909, line: 1201)
!1218 = !DISubprogram(name: "scalbnl", scope: !906, file: !906, line: 302, type: !1219, isLocal: false, isDefinition: false, flags: DIFlagPrototyped, isOptimized: false)
!1219 = !DISubroutineType(types: !1220)
!1220 = !{!308, !308, !11}
!1221 = !DIImportedEntity(tag: DW_TAG_imported_declaration, scope: !2, entity: !1222, file: !909, line: 1203)
!1222 = !DISubprogram(name: "tgamma", scope: !906, file: !906, line: 268, type: !907, isLocal: false, isDefinition: false, flags: DIFlagPrototyped, isOptimized: false)
!1223 = !DIImportedEntity(tag: DW_TAG_imported_declaration, scope: !2, entity: !1224, file: !909, line: 1204)
!1224 = !DISubprogram(name: "tgammaf", scope: !906, file: !906, line: 268, type: !971, isLocal: false, isDefinition: false, flags: DIFlagPrototyped, isOptimized: false)
!1225 = !DIImportedEntity(tag: DW_TAG_imported_declaration, scope: !2, entity: !1226, file: !909, line: 1205)
!1226 = !DISubprogram(name: "tgammal", scope: !906, file: !906, line: 268, type: !975, isLocal: false, isDefinition: false, flags: DIFlagPrototyped, isOptimized: false)
!1227 = !DIImportedEntity(tag: DW_TAG_imported_declaration, scope: !2, entity: !1228, file: !909, line: 1207)
!1228 = !DISubprogram(name: "trunc", scope: !906, file: !906, line: 323, type: !907, isLocal: false, isDefinition: false, flags: DIFlagPrototyped, isOptimized: false)
!1229 = !DIImportedEntity(tag: DW_TAG_imported_declaration, scope: !2, entity: !1230, file: !909, line: 1208)
!1230 = !DISubprogram(name: "truncf", scope: !906, file: !906, line: 323, type: !971, isLocal: false, isDefinition: false, flags: DIFlagPrototyped, isOptimized: false)
!1231 = !DIImportedEntity(tag: DW_TAG_imported_declaration, scope: !2, entity: !1232, file: !909, line: 1209)
!1232 = !DISubprogram(name: "truncl", scope: !906, file: !906, line: 323, type: !975, isLocal: false, isDefinition: false, flags: DIFlagPrototyped, isOptimized: false)
!1233 = !DIImportedEntity(tag: DW_TAG_imported_declaration, scope: !2, entity: !1234, file: !1240, line: 57)
!1234 = !DIDerivedType(tag: DW_TAG_typedef, name: "jmp_buf", file: !1235, line: 48, baseType: !1236)
!1235 = !DIFile(filename: "/usr/include/setjmp.h", directory: "/mnt/Projects/LLVM-custom/test/Datarand")
!1236 = !DICompositeType(tag: DW_TAG_array_type, baseType: !1237, size: 1600, elements: !1238)
!1237 = distinct !DICompositeType(tag: DW_TAG_structure_type, name: "__jmp_buf_tag", file: !1235, line: 34, flags: DIFlagFwdDecl, identifier: "_ZTS13__jmp_buf_tag")
!1238 = !{!1239}
!1239 = !DISubrange(count: 1)
!1240 = !DIFile(filename: "/usr/lib/gcc/x86_64-linux-gnu/5.4.0/../../../../include/c++/5.4.0/csetjmp", directory: "/mnt/Projects/LLVM-custom/test/Datarand")
!1241 = !DIImportedEntity(tag: DW_TAG_imported_declaration, scope: !2, entity: !1242, file: !1240, line: 58)
!1242 = !DISubprogram(name: "longjmp", scope: !1235, file: !1235, line: 74, type: !1243, isLocal: false, isDefinition: false, flags: DIFlagPrototyped | DIFlagNoReturn, isOptimized: false)
!1243 = !DISubroutineType(types: !1244)
!1244 = !{null, !1245, !11}
!1245 = !DIDerivedType(tag: DW_TAG_pointer_type, baseType: !1237, size: 64)
!1246 = !DIImportedEntity(tag: DW_TAG_imported_declaration, scope: !2, entity: !1247, file: !1251, line: 52)
!1247 = !DIDerivedType(tag: DW_TAG_typedef, name: "sig_atomic_t", file: !1248, line: 40, baseType: !1249)
!1248 = !DIFile(filename: "/usr/include/signal.h", directory: "/mnt/Projects/LLVM-custom/test/Datarand")
!1249 = !DIDerivedType(tag: DW_TAG_typedef, name: "__sig_atomic_t", file: !1250, line: 22, baseType: !11)
!1250 = !DIFile(filename: "/usr/include/x86_64-linux-gnu/bits/sigset.h", directory: "/mnt/Projects/LLVM-custom/test/Datarand")
!1251 = !DIFile(filename: "/usr/lib/gcc/x86_64-linux-gnu/5.4.0/../../../../include/c++/5.4.0/csignal", directory: "/mnt/Projects/LLVM-custom/test/Datarand")
!1252 = !DIImportedEntity(tag: DW_TAG_imported_declaration, scope: !2, entity: !1253, file: !1251, line: 53)
!1253 = !DISubprogram(name: "signal", scope: !1248, file: !1248, line: 102, type: !1254, isLocal: false, isDefinition: false, flags: DIFlagPrototyped, isOptimized: false)
!1254 = !DISubroutineType(types: !1255)
!1255 = !{!1256, !11, !1256}
!1256 = !DIDerivedType(tag: DW_TAG_typedef, name: "__sighandler_t", file: !1248, line: 85, baseType: !1257)
!1257 = !DIDerivedType(tag: DW_TAG_pointer_type, baseType: !555, size: 64)
!1258 = !DIImportedEntity(tag: DW_TAG_imported_declaration, scope: !2, entity: !1259, file: !1251, line: 54)
!1259 = !DISubprogram(name: "raise", scope: !1248, file: !1248, line: 139, type: !465, isLocal: false, isDefinition: false, flags: DIFlagPrototyped, isOptimized: false)
!1260 = !DIImportedEntity(tag: DW_TAG_imported_declaration, scope: !2, entity: !1261, file: !1266, line: 54)
!1261 = !DIDerivedType(tag: DW_TAG_typedef, name: "va_list", file: !62, line: 79, baseType: !1262)
!1262 = !DIDerivedType(tag: DW_TAG_typedef, name: "__gnuc_va_list", file: !1263, line: 48, baseType: !1264)
!1263 = !DIFile(filename: "/mnt/Projects/LLVM-custom/install/lib/clang/7.0.0/include/stdarg.h", directory: "/mnt/Projects/LLVM-custom/test/Datarand")
!1264 = !DIDerivedType(tag: DW_TAG_typedef, name: "__builtin_va_list", file: !20, line: 74, baseType: !1265)
!1265 = !DICompositeType(tag: DW_TAG_array_type, baseType: !149, size: 192, elements: !1238)
!1266 = !DIFile(filename: "/usr/lib/gcc/x86_64-linux-gnu/5.4.0/../../../../include/c++/5.4.0/cstdarg", directory: "/mnt/Projects/LLVM-custom/test/Datarand")
!1267 = !DIImportedEntity(tag: DW_TAG_imported_declaration, scope: !2, entity: !1268, file: !1271, line: 51)
!1268 = !DIDerivedType(tag: DW_TAG_typedef, name: "max_align_t", file: !1269, line: 40, baseType: !1270)
!1269 = !DIFile(filename: "/mnt/Projects/LLVM-custom/install/lib/clang/7.0.0/include/__stddef_max_align_t.h", directory: "/mnt/Projects/LLVM-custom/test/Datarand")
!1270 = distinct !DICompositeType(tag: DW_TAG_structure_type, file: !1269, line: 35, flags: DIFlagFwdDecl, identifier: "_ZTS11max_align_t")
!1271 = !DIFile(filename: "/usr/lib/gcc/x86_64-linux-gnu/5.4.0/../../../../include/c++/5.4.0/cstddef", directory: "/mnt/Projects/LLVM-custom/test/Datarand")
!1272 = !DIImportedEntity(tag: DW_TAG_imported_declaration, scope: !2, entity: !1273, file: !1277, line: 75)
!1273 = !DISubprogram(name: "memchr", scope: !1274, file: !1274, line: 92, type: !1275, isLocal: false, isDefinition: false, flags: DIFlagPrototyped, isOptimized: false)
!1274 = !DIFile(filename: "/usr/include/string.h", directory: "/mnt/Projects/LLVM-custom/test/Datarand")
!1275 = !DISubroutineType(types: !1276)
!1276 = !{!154, !539, !11, !103}
!1277 = !DIFile(filename: "/usr/lib/gcc/x86_64-linux-gnu/5.4.0/../../../../include/c++/5.4.0/cstring", directory: "/mnt/Projects/LLVM-custom/test/Datarand")
!1278 = !DIImportedEntity(tag: DW_TAG_imported_declaration, scope: !2, entity: !1279, file: !1277, line: 76)
!1279 = !DISubprogram(name: "memcmp", scope: !1274, file: !1274, line: 65, type: !1280, isLocal: false, isDefinition: false, flags: DIFlagPrototyped, isOptimized: false)
!1280 = !DISubroutineType(types: !1281)
!1281 = !{!11, !539, !539, !103}
!1282 = !DIImportedEntity(tag: DW_TAG_imported_declaration, scope: !2, entity: !1283, file: !1277, line: 77)
!1283 = !DISubprogram(name: "memcpy", scope: !1274, file: !1274, line: 42, type: !1284, isLocal: false, isDefinition: false, flags: DIFlagPrototyped, isOptimized: false)
!1284 = !DISubroutineType(types: !1285)
!1285 = !{!154, !734, !759, !103}
!1286 = !DIImportedEntity(tag: DW_TAG_imported_declaration, scope: !2, entity: !1287, file: !1277, line: 78)
!1287 = !DISubprogram(name: "memmove", scope: !1274, file: !1274, line: 46, type: !1288, isLocal: false, isDefinition: false, flags: DIFlagPrototyped, isOptimized: false)
!1288 = !DISubroutineType(types: !1289)
!1289 = !{!154, !154, !539, !103}
!1290 = !DIImportedEntity(tag: DW_TAG_imported_declaration, scope: !2, entity: !1291, file: !1277, line: 79)
!1291 = !DISubprogram(name: "memset", scope: !1274, file: !1274, line: 62, type: !1292, isLocal: false, isDefinition: false, flags: DIFlagPrototyped, isOptimized: false)
!1292 = !DISubroutineType(types: !1293)
!1293 = !{!154, !154, !11, !103}
!1294 = !DIImportedEntity(tag: DW_TAG_imported_declaration, scope: !2, entity: !1295, file: !1277, line: 80)
!1295 = !DISubprogram(name: "strcat", scope: !1274, file: !1274, line: 133, type: !1296, isLocal: false, isDefinition: false, flags: DIFlagPrototyped, isOptimized: false)
!1296 = !DISubroutineType(types: !1297)
!1297 = !{!177, !176, !105}
!1298 = !DIImportedEntity(tag: DW_TAG_imported_declaration, scope: !2, entity: !1299, file: !1277, line: 81)
!1299 = !DISubprogram(name: "strcmp", scope: !1274, file: !1274, line: 140, type: !782, isLocal: false, isDefinition: false, flags: DIFlagPrototyped, isOptimized: false)
!1300 = !DIImportedEntity(tag: DW_TAG_imported_declaration, scope: !2, entity: !1301, file: !1277, line: 82)
!1301 = !DISubprogram(name: "strcoll", scope: !1274, file: !1274, line: 147, type: !782, isLocal: false, isDefinition: false, flags: DIFlagPrototyped, isOptimized: false)
!1302 = !DIImportedEntity(tag: DW_TAG_imported_declaration, scope: !2, entity: !1303, file: !1277, line: 83)
!1303 = !DISubprogram(name: "strcpy", scope: !1274, file: !1274, line: 125, type: !1296, isLocal: false, isDefinition: false, flags: DIFlagPrototyped, isOptimized: false)
!1304 = !DIImportedEntity(tag: DW_TAG_imported_declaration, scope: !2, entity: !1305, file: !1277, line: 84)
!1305 = !DISubprogram(name: "strcspn", scope: !1274, file: !1274, line: 280, type: !1306, isLocal: false, isDefinition: false, flags: DIFlagPrototyped, isOptimized: false)
!1306 = !DISubroutineType(types: !1307)
!1307 = !{!103, !106, !106}
!1308 = !DIImportedEntity(tag: DW_TAG_imported_declaration, scope: !2, entity: !1309, file: !1277, line: 85)
!1309 = !DISubprogram(name: "strerror", scope: !1274, file: !1274, line: 408, type: !1310, isLocal: false, isDefinition: false, flags: DIFlagPrototyped, isOptimized: false)
!1310 = !DISubroutineType(types: !1311)
!1311 = !{!177, !11}
!1312 = !DIImportedEntity(tag: DW_TAG_imported_declaration, scope: !2, entity: !1313, file: !1277, line: 86)
!1313 = !DISubprogram(name: "strlen", scope: !1274, file: !1274, line: 394, type: !1314, isLocal: false, isDefinition: false, flags: DIFlagPrototyped, isOptimized: false)
!1314 = !DISubroutineType(types: !1315)
!1315 = !{!103, !106}
!1316 = !DIImportedEntity(tag: DW_TAG_imported_declaration, scope: !2, entity: !1317, file: !1277, line: 87)
!1317 = !DISubprogram(name: "strncat", scope: !1274, file: !1274, line: 136, type: !1318, isLocal: false, isDefinition: false, flags: DIFlagPrototyped, isOptimized: false)
!1318 = !DISubroutineType(types: !1319)
!1319 = !{!177, !176, !105, !103}
!1320 = !DIImportedEntity(tag: DW_TAG_imported_declaration, scope: !2, entity: !1321, file: !1277, line: 88)
!1321 = !DISubprogram(name: "strncmp", scope: !1274, file: !1274, line: 143, type: !1322, isLocal: false, isDefinition: false, flags: DIFlagPrototyped, isOptimized: false)
!1322 = !DISubroutineType(types: !1323)
!1323 = !{!11, !106, !106, !103}
!1324 = !DIImportedEntity(tag: DW_TAG_imported_declaration, scope: !2, entity: !1325, file: !1277, line: 89)
!1325 = !DISubprogram(name: "strncpy", scope: !1274, file: !1274, line: 128, type: !1318, isLocal: false, isDefinition: false, flags: DIFlagPrototyped, isOptimized: false)
!1326 = !DIImportedEntity(tag: DW_TAG_imported_declaration, scope: !2, entity: !1327, file: !1277, line: 90)
!1327 = !DISubprogram(name: "strspn", scope: !1274, file: !1274, line: 284, type: !1306, isLocal: false, isDefinition: false, flags: DIFlagPrototyped, isOptimized: false)
!1328 = !DIImportedEntity(tag: DW_TAG_imported_declaration, scope: !2, entity: !1329, file: !1277, line: 91)
!1329 = !DISubprogram(name: "strtok", scope: !1274, file: !1274, line: 343, type: !1296, isLocal: false, isDefinition: false, flags: DIFlagPrototyped, isOptimized: false)
!1330 = !DIImportedEntity(tag: DW_TAG_imported_declaration, scope: !2, entity: !1331, file: !1277, line: 92)
!1331 = !DISubprogram(name: "strxfrm", scope: !1274, file: !1274, line: 150, type: !1332, isLocal: false, isDefinition: false, flags: DIFlagPrototyped, isOptimized: false)
!1332 = !DISubroutineType(types: !1333)
!1333 = !{!103, !176, !105, !103}
!1334 = !DIImportedEntity(tag: DW_TAG_imported_declaration, scope: !2, entity: !1335, file: !1277, line: 93)
!1335 = !DISubprogram(name: "strchr", scope: !1274, file: !1274, line: 231, type: !1336, isLocal: false, isDefinition: false, flags: DIFlagPrototyped, isOptimized: false)
!1336 = !DISubroutineType(types: !1337)
!1337 = !{!177, !106, !11}
!1338 = !DIImportedEntity(tag: DW_TAG_imported_declaration, scope: !2, entity: !1339, file: !1277, line: 94)
!1339 = !DISubprogram(name: "strpbrk", scope: !1274, file: !1274, line: 310, type: !1340, isLocal: false, isDefinition: false, flags: DIFlagPrototyped, isOptimized: false)
!1340 = !DISubroutineType(types: !1341)
!1341 = !{!177, !106, !106}
!1342 = !DIImportedEntity(tag: DW_TAG_imported_declaration, scope: !2, entity: !1343, file: !1277, line: 95)
!1343 = !DISubprogram(name: "strrchr", scope: !1274, file: !1274, line: 258, type: !1336, isLocal: false, isDefinition: false, flags: DIFlagPrototyped, isOptimized: false)
!1344 = !DIImportedEntity(tag: DW_TAG_imported_declaration, scope: !2, entity: !1345, file: !1277, line: 96)
!1345 = !DISubprogram(name: "strstr", scope: !1274, file: !1274, line: 337, type: !1340, isLocal: false, isDefinition: false, flags: DIFlagPrototyped, isOptimized: false)
!1346 = !DIImportedEntity(tag: DW_TAG_imported_declaration, scope: !2, entity: !1347, file: !1349, line: 60)
!1347 = !DIDerivedType(tag: DW_TAG_typedef, name: "clock_t", file: !202, line: 59, baseType: !1348)
!1348 = !DIDerivedType(tag: DW_TAG_typedef, name: "__clock_t", file: !853, line: 135, baseType: !214)
!1349 = !DIFile(filename: "/usr/lib/gcc/x86_64-linux-gnu/5.4.0/../../../../include/c++/5.4.0/ctime", directory: "/mnt/Projects/LLVM-custom/test/Datarand")
!1350 = !DIImportedEntity(tag: DW_TAG_imported_declaration, scope: !2, entity: !1351, file: !1349, line: 61)
!1351 = !DIDerivedType(tag: DW_TAG_typedef, name: "time_t", file: !202, line: 75, baseType: !1352)
!1352 = !DIDerivedType(tag: DW_TAG_typedef, name: "__time_t", file: !853, line: 139, baseType: !214)
!1353 = !DIImportedEntity(tag: DW_TAG_imported_declaration, scope: !2, entity: !201, file: !1349, line: 62)
!1354 = !DIImportedEntity(tag: DW_TAG_imported_declaration, scope: !2, entity: !1355, file: !1349, line: 64)
!1355 = !DISubprogram(name: "clock", scope: !202, file: !202, line: 189, type: !1356, isLocal: false, isDefinition: false, flags: DIFlagPrototyped, isOptimized: false)
!1356 = !DISubroutineType(types: !1357)
!1357 = !{!1347}
!1358 = !DIImportedEntity(tag: DW_TAG_imported_declaration, scope: !2, entity: !1359, file: !1349, line: 65)
!1359 = !DISubprogram(name: "difftime", scope: !202, file: !202, line: 195, type: !1360, isLocal: false, isDefinition: false, flags: DIFlagPrototyped, isOptimized: false)
!1360 = !DISubroutineType(types: !1361)
!1361 = !{!242, !1351, !1351}
!1362 = !DIImportedEntity(tag: DW_TAG_imported_declaration, scope: !2, entity: !1363, file: !1349, line: 66)
!1363 = !DISubprogram(name: "mktime", scope: !202, file: !202, line: 199, type: !1364, isLocal: false, isDefinition: false, flags: DIFlagPrototyped, isOptimized: false)
!1364 = !DISubroutineType(types: !1365)
!1365 = !{!1351, !1366}
!1366 = !DIDerivedType(tag: DW_TAG_pointer_type, baseType: !201, size: 64)
!1367 = !DIImportedEntity(tag: DW_TAG_imported_declaration, scope: !2, entity: !1368, file: !1349, line: 67)
!1368 = !DISubprogram(name: "time", scope: !202, file: !202, line: 192, type: !1369, isLocal: false, isDefinition: false, flags: DIFlagPrototyped, isOptimized: false)
!1369 = !DISubroutineType(types: !1370)
!1370 = !{!1351, !1371}
!1371 = !DIDerivedType(tag: DW_TAG_pointer_type, baseType: !1351, size: 64)
!1372 = !DIImportedEntity(tag: DW_TAG_imported_declaration, scope: !2, entity: !1373, file: !1349, line: 68)
!1373 = !DISubprogram(name: "asctime", scope: !202, file: !202, line: 261, type: !1374, isLocal: false, isDefinition: false, flags: DIFlagPrototyped, isOptimized: false)
!1374 = !DISubroutineType(types: !1375)
!1375 = !{!177, !199}
!1376 = !DIImportedEntity(tag: DW_TAG_imported_declaration, scope: !2, entity: !1377, file: !1349, line: 69)
!1377 = !DISubprogram(name: "ctime", scope: !202, file: !202, line: 264, type: !1378, isLocal: false, isDefinition: false, flags: DIFlagPrototyped, isOptimized: false)
!1378 = !DISubroutineType(types: !1379)
!1379 = !{!177, !1380}
!1380 = !DIDerivedType(tag: DW_TAG_pointer_type, baseType: !1381, size: 64)
!1381 = !DIDerivedType(tag: DW_TAG_const_type, baseType: !1351)
!1382 = !DIImportedEntity(tag: DW_TAG_imported_declaration, scope: !2, entity: !1383, file: !1349, line: 70)
!1383 = !DISubprogram(name: "gmtime", scope: !202, file: !202, line: 239, type: !1384, isLocal: false, isDefinition: false, flags: DIFlagPrototyped, isOptimized: false)
!1384 = !DISubroutineType(types: !1385)
!1385 = !{!1366, !1380}
!1386 = !DIImportedEntity(tag: DW_TAG_imported_declaration, scope: !2, entity: !1387, file: !1349, line: 71)
!1387 = !DISubprogram(name: "localtime", scope: !202, file: !202, line: 243, type: !1384, isLocal: false, isDefinition: false, flags: DIFlagPrototyped, isOptimized: false)
!1388 = !DIImportedEntity(tag: DW_TAG_imported_declaration, scope: !2, entity: !1389, file: !1349, line: 72)
!1389 = !DISubprogram(name: "strftime", scope: !202, file: !202, line: 205, type: !1390, isLocal: false, isDefinition: false, flags: DIFlagPrototyped, isOptimized: false)
!1390 = !DISubroutineType(types: !1391)
!1391 = !{!103, !176, !103, !105, !198}
!1392 = !DIImportedEntity(tag: DW_TAG_imported_declaration, scope: !2, entity: !1393, file: !1396, line: 58)
!1393 = !DIDerivedType(tag: DW_TAG_typedef, name: "fenv_t", file: !1394, line: 94, baseType: !1395)
!1394 = !DIFile(filename: "/usr/include/x86_64-linux-gnu/bits/fenv.h", directory: "/mnt/Projects/LLVM-custom/test/Datarand")
!1395 = distinct !DICompositeType(tag: DW_TAG_structure_type, file: !1394, line: 75, flags: DIFlagFwdDecl, identifier: "_ZTS6fenv_t")
!1396 = !DIFile(filename: "/usr/lib/gcc/x86_64-linux-gnu/5.4.0/../../../../include/c++/5.4.0/fenv.h", directory: "/mnt/Projects/LLVM-custom/test/Datarand")
!1397 = !DIImportedEntity(tag: DW_TAG_imported_declaration, scope: !2, entity: !1398, file: !1396, line: 59)
!1398 = !DIDerivedType(tag: DW_TAG_typedef, name: "fexcept_t", file: !1394, line: 68, baseType: !424)
!1399 = !DIImportedEntity(tag: DW_TAG_imported_declaration, scope: !2, entity: !1400, file: !1396, line: 62)
!1400 = !DISubprogram(name: "feclearexcept", scope: !1401, file: !1401, line: 64, type: !465, isLocal: false, isDefinition: false, flags: DIFlagPrototyped, isOptimized: false)
!1401 = !DIFile(filename: "/usr/include/fenv.h", directory: "/mnt/Projects/LLVM-custom/test/Datarand")
!1402 = !DIImportedEntity(tag: DW_TAG_imported_declaration, scope: !2, entity: !1403, file: !1396, line: 63)
!1403 = !DISubprogram(name: "fegetexceptflag", scope: !1401, file: !1401, line: 68, type: !1404, isLocal: false, isDefinition: false, flags: DIFlagPrototyped, isOptimized: false)
!1404 = !DISubroutineType(types: !1405)
!1405 = !{!11, !1406, !11}
!1406 = !DIDerivedType(tag: DW_TAG_pointer_type, baseType: !1398, size: 64)
!1407 = !DIImportedEntity(tag: DW_TAG_imported_declaration, scope: !2, entity: !1408, file: !1396, line: 64)
!1408 = !DISubprogram(name: "feraiseexcept", scope: !1401, file: !1401, line: 71, type: !465, isLocal: false, isDefinition: false, flags: DIFlagPrototyped, isOptimized: false)
!1409 = !DIImportedEntity(tag: DW_TAG_imported_declaration, scope: !2, entity: !1410, file: !1396, line: 65)
!1410 = !DISubprogram(name: "fesetexceptflag", scope: !1401, file: !1401, line: 75, type: !1411, isLocal: false, isDefinition: false, flags: DIFlagPrototyped, isOptimized: false)
!1411 = !DISubroutineType(types: !1412)
!1412 = !{!11, !1413, !11}
!1413 = !DIDerivedType(tag: DW_TAG_pointer_type, baseType: !1414, size: 64)
!1414 = !DIDerivedType(tag: DW_TAG_const_type, baseType: !1398)
!1415 = !DIImportedEntity(tag: DW_TAG_imported_declaration, scope: !2, entity: !1416, file: !1396, line: 66)
!1416 = !DISubprogram(name: "fetestexcept", scope: !1401, file: !1401, line: 79, type: !465, isLocal: false, isDefinition: false, flags: DIFlagPrototyped, isOptimized: false)
!1417 = !DIImportedEntity(tag: DW_TAG_imported_declaration, scope: !2, entity: !1418, file: !1396, line: 68)
!1418 = !DISubprogram(name: "fegetround", scope: !1401, file: !1401, line: 85, type: !597, isLocal: false, isDefinition: false, flags: DIFlagPrototyped, isOptimized: false)
!1419 = !DIImportedEntity(tag: DW_TAG_imported_declaration, scope: !2, entity: !1420, file: !1396, line: 69)
!1420 = !DISubprogram(name: "fesetround", scope: !1401, file: !1401, line: 88, type: !465, isLocal: false, isDefinition: false, flags: DIFlagPrototyped, isOptimized: false)
!1421 = !DIImportedEntity(tag: DW_TAG_imported_declaration, scope: !2, entity: !1422, file: !1396, line: 71)
!1422 = !DISubprogram(name: "fegetenv", scope: !1401, file: !1401, line: 95, type: !1423, isLocal: false, isDefinition: false, flags: DIFlagPrototyped, isOptimized: false)
!1423 = !DISubroutineType(types: !1424)
!1424 = !{!11, !1425}
!1425 = !DIDerivedType(tag: DW_TAG_pointer_type, baseType: !1393, size: 64)
!1426 = !DIImportedEntity(tag: DW_TAG_imported_declaration, scope: !2, entity: !1427, file: !1396, line: 72)
!1427 = !DISubprogram(name: "feholdexcept", scope: !1401, file: !1401, line: 100, type: !1423, isLocal: false, isDefinition: false, flags: DIFlagPrototyped, isOptimized: false)
!1428 = !DIImportedEntity(tag: DW_TAG_imported_declaration, scope: !2, entity: !1429, file: !1396, line: 73)
!1429 = !DISubprogram(name: "fesetenv", scope: !1401, file: !1401, line: 104, type: !1430, isLocal: false, isDefinition: false, flags: DIFlagPrototyped, isOptimized: false)
!1430 = !DISubroutineType(types: !1431)
!1431 = !{!11, !1432}
!1432 = !DIDerivedType(tag: DW_TAG_pointer_type, baseType: !1433, size: 64)
!1433 = !DIDerivedType(tag: DW_TAG_const_type, baseType: !1393)
!1434 = !DIImportedEntity(tag: DW_TAG_imported_declaration, scope: !2, entity: !1435, file: !1396, line: 74)
!1435 = !DISubprogram(name: "feupdateenv", scope: !1401, file: !1401, line: 109, type: !1430, isLocal: false, isDefinition: false, flags: DIFlagPrototyped, isOptimized: false)
!1436 = !DIImportedEntity(tag: DW_TAG_imported_declaration, scope: !2, entity: !1393, file: !1437, line: 61)
!1437 = !DIFile(filename: "/usr/lib/gcc/x86_64-linux-gnu/5.4.0/../../../../include/c++/5.4.0/cfenv", directory: "/mnt/Projects/LLVM-custom/test/Datarand")
!1438 = !DIImportedEntity(tag: DW_TAG_imported_declaration, scope: !2, entity: !1398, file: !1437, line: 62)
!1439 = !DIImportedEntity(tag: DW_TAG_imported_declaration, scope: !2, entity: !1400, file: !1437, line: 65)
!1440 = !DIImportedEntity(tag: DW_TAG_imported_declaration, scope: !2, entity: !1403, file: !1437, line: 66)
!1441 = !DIImportedEntity(tag: DW_TAG_imported_declaration, scope: !2, entity: !1408, file: !1437, line: 67)
!1442 = !DIImportedEntity(tag: DW_TAG_imported_declaration, scope: !2, entity: !1410, file: !1437, line: 68)
!1443 = !DIImportedEntity(tag: DW_TAG_imported_declaration, scope: !2, entity: !1416, file: !1437, line: 69)
!1444 = !DIImportedEntity(tag: DW_TAG_imported_declaration, scope: !2, entity: !1418, file: !1437, line: 71)
!1445 = !DIImportedEntity(tag: DW_TAG_imported_declaration, scope: !2, entity: !1420, file: !1437, line: 72)
!1446 = !DIImportedEntity(tag: DW_TAG_imported_declaration, scope: !2, entity: !1422, file: !1437, line: 74)
!1447 = !DIImportedEntity(tag: DW_TAG_imported_declaration, scope: !2, entity: !1427, file: !1437, line: 75)
!1448 = !DIImportedEntity(tag: DW_TAG_imported_declaration, scope: !2, entity: !1429, file: !1437, line: 76)
!1449 = !DIImportedEntity(tag: DW_TAG_imported_declaration, scope: !2, entity: !1435, file: !1437, line: 77)
!1450 = !DIImportedEntity(tag: DW_TAG_imported_declaration, scope: !2, entity: !1451, file: !1454, line: 58)
!1451 = !DIDerivedType(tag: DW_TAG_typedef, name: "imaxdiv_t", file: !1452, line: 275, baseType: !1453)
!1452 = !DIFile(filename: "/usr/include/inttypes.h", directory: "/mnt/Projects/LLVM-custom/test/Datarand")
!1453 = distinct !DICompositeType(tag: DW_TAG_structure_type, file: !1452, line: 271, flags: DIFlagFwdDecl, identifier: "_ZTS9imaxdiv_t")
!1454 = !DIFile(filename: "/usr/lib/gcc/x86_64-linux-gnu/5.4.0/../../../../include/c++/5.4.0/cinttypes", directory: "/mnt/Projects/LLVM-custom/test/Datarand")
!1455 = !DIImportedEntity(tag: DW_TAG_imported_declaration, scope: !2, entity: !1456, file: !1454, line: 61)
!1456 = !DISubprogram(name: "imaxabs", scope: !1452, file: !1452, line: 290, type: !1457, isLocal: false, isDefinition: false, flags: DIFlagPrototyped, isOptimized: false)
!1457 = !DISubroutineType(types: !1458)
!1458 = !{!416, !416}
!1459 = !DIImportedEntity(tag: DW_TAG_imported_declaration, scope: !2, entity: !1460, file: !1454, line: 62)
!1460 = !DISubprogram(name: "imaxdiv", scope: !1452, file: !1452, line: 293, type: !1461, isLocal: false, isDefinition: false, flags: DIFlagPrototyped, isOptimized: false)
!1461 = !DISubroutineType(types: !1462)
!1462 = !{!1451, !416, !416}
!1463 = !DIImportedEntity(tag: DW_TAG_imported_declaration, scope: !2, entity: !1464, file: !1454, line: 68)
!1464 = !DISubprogram(name: "strtoimax", scope: !1452, file: !1452, line: 297, type: !1465, isLocal: false, isDefinition: false, flags: DIFlagPrototyped, isOptimized: false)
!1465 = !DISubroutineType(types: !1466)
!1466 = !{!416, !105, !611, !11}
!1467 = !DIImportedEntity(tag: DW_TAG_imported_declaration, scope: !2, entity: !1468, file: !1454, line: 69)
!1468 = !DISubprogram(name: "strtoumax", scope: !1452, file: !1452, line: 301, type: !1469, isLocal: false, isDefinition: false, flags: DIFlagPrototyped, isOptimized: false)
!1469 = !DISubroutineType(types: !1470)
!1470 = !{!446, !105, !611, !11}
!1471 = !DIImportedEntity(tag: DW_TAG_imported_declaration, scope: !2, entity: !1472, file: !1454, line: 72)
!1472 = !DISubprogram(name: "wcstoimax", scope: !1452, file: !1452, line: 305, type: !1473, isLocal: false, isDefinition: false, flags: DIFlagPrototyped, isOptimized: false)
!1473 = !DISubroutineType(types: !1474)
!1474 = !{!416, !80, !243, !11}
!1475 = !DIImportedEntity(tag: DW_TAG_imported_declaration, scope: !2, entity: !1476, file: !1454, line: 73)
!1476 = !DISubprogram(name: "wcstoumax", scope: !1452, file: !1452, line: 310, type: !1477, isLocal: false, isDefinition: false, flags: DIFlagPrototyped, isOptimized: false)
!1477 = !DISubroutineType(types: !1478)
!1478 = !{!446, !80, !243, !11}
!1479 = !DIImportedEntity(tag: DW_TAG_imported_declaration, scope: !2, entity: !22, file: !1480, line: 81)
!1480 = !DIFile(filename: "/usr/lib/gcc/x86_64-linux-gnu/5.4.0/../../../../include/c++/5.4.0/bits/shared_ptr_base.h", directory: "/mnt/Projects/LLVM-custom/test/Datarand")
!1481 = !DIImportedEntity(tag: DW_TAG_imported_declaration, scope: !2, entity: !1482, file: !1480, line: 82)
!1482 = !DIGlobalVariable(name: "__default_lock_policy", linkageName: "_ZN9__gnu_cxxL21__default_lock_policyE", scope: !24, file: !23, line: 53, type: !1483, isLocal: true, isDefinition: false)
!1483 = !DIDerivedType(tag: DW_TAG_const_type, baseType: !22)
!1484 = !DIImportedEntity(tag: DW_TAG_imported_module, scope: !1485, entity: !1486, file: !1488, line: 873)
!1485 = !DINamespace(name: "chrono", scope: !2)
!1486 = !DINamespace(name: "chrono_literals", scope: !1487, exportSymbols: true)
!1487 = !DINamespace(name: "literals", scope: !2, exportSymbols: true)
!1488 = !DIFile(filename: "/usr/lib/gcc/x86_64-linux-gnu/5.4.0/../../../../include/c++/5.4.0/chrono", directory: "/mnt/Projects/LLVM-custom/test/Datarand")
!1489 = !{i32 2, !"Dwarf Version", i32 4}
!1490 = !{i32 2, !"Debug Info Version", i32 3}
!1491 = !{i32 1, !"wchar_size", i32 4}
!1492 = !{!"clang version 7.0.0 (trunk) (llvm/trunk 333727)"}
!1493 = distinct !DISubprogram(name: "__cxx_global_var_init", scope: !3, file: !3, line: 74, type: !512, isLocal: true, isDefinition: true, scopeLine: 74, flags: DIFlagPrototyped, isOptimized: false, unit: !19, retainedNodes: !1494)
!1494 = !{}
!1495 = !DILocation(line: 74, column: 25, scope: !1493)
!1496 = distinct !DISubprogram(name: "printName", linkageName: "_ZN7Student9printNameEv", scope: !1497, file: !20, line: 14, type: !1507, isLocal: false, isDefinition: true, scopeLine: 14, flags: DIFlagPrototyped, isOptimized: false, unit: !19, declaration: !1506, retainedNodes: !1494)
!1497 = distinct !DICompositeType(tag: DW_TAG_class_type, name: "Student", file: !20, line: 4, size: 320, flags: DIFlagTypePassByReference, elements: !1498, identifier: "_ZTS7Student")
!1498 = !{!1499, !1505, !1506, !1510}
!1499 = !DIDerivedType(tag: DW_TAG_member, name: "name", scope: !1497, file: !20, line: 6, baseType: !1500, size: 256, flags: DIFlagPublic)
!1500 = !DIDerivedType(tag: DW_TAG_typedef, name: "string", scope: !1502, file: !1501, line: 74, baseType: !1503)
!1501 = !DIFile(filename: "/usr/lib/gcc/x86_64-linux-gnu/5.4.0/../../../../include/c++/5.4.0/bits/stringfwd.h", directory: "/mnt/Projects/LLVM-custom/test/Datarand")
!1502 = !DINamespace(name: "__cxx11", scope: !2, exportSymbols: true)
!1503 = distinct !DICompositeType(tag: DW_TAG_class_type, name: "basic_string<char, std::char_traits<char>, std::allocator<char> >", scope: !1502, file: !1504, line: 1577, flags: DIFlagFwdDecl, identifier: "_ZTSNSt7__cxx1112basic_stringIcSt11char_traitsIcESaIcEEE")
!1504 = !DIFile(filename: "/usr/lib/gcc/x86_64-linux-gnu/5.4.0/../../../../include/c++/5.4.0/bits/basic_string.tcc", directory: "/mnt/Projects/LLVM-custom/test/Datarand")
!1505 = !DIDerivedType(tag: DW_TAG_member, name: "id", scope: !1497, file: !20, line: 7, baseType: !11, size: 32, offset: 256, flags: DIFlagPublic)
!1506 = !DISubprogram(name: "printName", linkageName: "_ZN7Student9printNameEv", scope: !1497, file: !20, line: 9, type: !1507, isLocal: false, isDefinition: false, scopeLine: 9, flags: DIFlagPublic | DIFlagPrototyped, isOptimized: false)
!1507 = !DISubroutineType(types: !1508)
!1508 = !{null, !1509}
!1509 = !DIDerivedType(tag: DW_TAG_pointer_type, baseType: !1497, size: 64, flags: DIFlagArtificial | DIFlagObjectPointer)
!1510 = !DISubprogram(name: "printId", linkageName: "_ZN7Student7printIdEv", scope: !1497, file: !20, line: 11, type: !1507, isLocal: false, isDefinition: false, scopeLine: 11, flags: DIFlagPublic | DIFlagPrototyped, isOptimized: false)
!1511 = !DILocalVariable(name: "this", arg: 1, scope: !1496, type: !1512, flags: DIFlagArtificial | DIFlagObjectPointer)
!1512 = !DIDerivedType(tag: DW_TAG_pointer_type, baseType: !1497, size: 64)
!1513 = !DILocation(line: 0, scope: !1496)
!1514 = !DILocation(line: 15, column: 14, scope: !1496)
!1515 = !DILocation(line: 15, column: 33, scope: !1496)
!1516 = !DILocation(line: 15, column: 30, scope: !1496)
!1517 = !DILocation(line: 15, column: 38, scope: !1496)
!1518 = !DILocation(line: 16, column: 1, scope: !1496)
!1519 = distinct !DISubprogram(name: "printId", linkageName: "_ZN7Student7printIdEv", scope: !1497, file: !20, line: 18, type: !1507, isLocal: false, isDefinition: true, scopeLine: 18, flags: DIFlagPrototyped, isOptimized: false, unit: !19, declaration: !1510, retainedNodes: !1494)
!1520 = !DILocalVariable(name: "this", arg: 1, scope: !1519, type: !1512, flags: DIFlagArtificial | DIFlagObjectPointer)
!1521 = !DILocation(line: 0, scope: !1519)
!1522 = !DILocation(line: 19, column: 15, scope: !1519)
!1523 = !DILocation(line: 19, column: 32, scope: !1519)
!1524 = !DILocation(line: 19, column: 29, scope: !1519)
!1525 = !DILocation(line: 19, column: 35, scope: !1519)
!1526 = !DILocation(line: 20, column: 1, scope: !1519)
!1527 = distinct !DISubprogram(name: "main", scope: !20, file: !20, line: 22, type: !597, isLocal: false, isDefinition: true, scopeLine: 22, flags: DIFlagPrototyped, isOptimized: false, unit: !19, retainedNodes: !1494)
!1528 = !DILocalVariable(name: "student", scope: !1527, file: !20, line: 23, type: !1497)
!1529 = !DILocation(line: 23, column: 13, scope: !1527)
!1530 = !DILocation(line: 24, column: 13, scope: !1527)
!1531 = !DILocation(line: 24, column: 16, scope: !1527)
!1532 = !DILocation(line: 25, column: 13, scope: !1527)
!1533 = !DILocation(line: 25, column: 18, scope: !1527)
!1534 = !DILocation(line: 26, column: 13, scope: !1527)
!1535 = !DILocation(line: 27, column: 13, scope: !1527)
!1536 = !DILocation(line: 28, column: 5, scope: !1527)
!1537 = !DILocation(line: 29, column: 1, scope: !1527)
!1538 = distinct !DISubprogram(name: "Student", linkageName: "_ZN7StudentC2Ev", scope: !1497, file: !20, line: 4, type: !1507, isLocal: false, isDefinition: true, scopeLine: 4, flags: DIFlagArtificial | DIFlagPrototyped, isOptimized: false, unit: !19, declaration: !1539, retainedNodes: !1494)
!1539 = !DISubprogram(name: "Student", scope: !1497, type: !1507, isLocal: false, isDefinition: false, flags: DIFlagPublic | DIFlagArtificial | DIFlagPrototyped, isOptimized: false)
!1540 = !DILocalVariable(name: "this", arg: 1, scope: !1538, type: !1512, flags: DIFlagArtificial | DIFlagObjectPointer)
!1541 = !DILocation(line: 0, scope: !1538)
!1542 = !DILocation(line: 4, column: 7, scope: !1538)
!1543 = distinct !DISubprogram(name: "~Student", linkageName: "_ZN7StudentD2Ev", scope: !1497, file: !20, line: 4, type: !1507, isLocal: false, isDefinition: true, scopeLine: 4, flags: DIFlagArtificial | DIFlagPrototyped, isOptimized: false, unit: !19, declaration: !1544, retainedNodes: !1494)
!1544 = !DISubprogram(name: "~Student", scope: !1497, type: !1507, isLocal: false, isDefinition: false, flags: DIFlagPublic | DIFlagArtificial | DIFlagPrototyped, isOptimized: false)
!1545 = !DILocalVariable(name: "this", arg: 1, scope: !1543, type: !1512, flags: DIFlagArtificial | DIFlagObjectPointer)
!1546 = !DILocation(line: 0, scope: !1543)
!1547 = !DILocation(line: 4, column: 7, scope: !1548)
!1548 = distinct !DILexicalBlock(scope: !1543, file: !20, line: 4, column: 7)
!1549 = !DILocation(line: 4, column: 7, scope: !1543)
!1550 = distinct !DISubprogram(linkageName: "_GLOBAL__sub_I_test.cpp", scope: !20, file: !20, type: !1551, isLocal: true, isDefinition: true, flags: DIFlagArtificial, isOptimized: false, unit: !19, retainedNodes: !1494)
!1551 = !DISubroutineType(types: !1494)
!1552 = !DILocation(line: 0, scope: !1550)
